(dp0
S'2017-03-13'
p1
(lp2
(dp3
S'home'
p4
VCeltics
p5
sS'away'
p6
VBulls
p7
sS'line'
p8
F7.5
sS'overunder'
p9
F207.5
sa(dp10
g4
VNets
p11
sg6
VKnicks
p12
sg8
F1.5
sg9
F221.5
sa(dp13
g4
VPacers
p14
sg6
VHeat
p15
sg8
F5.5
sg9
F199.5
sa(dp16
g4
VRockets
p17
sg6
VCavaliers
p18
sg8
F7.5
sg9
F236.5
sa(dp19
g4
VSuns
p20
sg6
VTrail Blaze
p21
sg8
F-2.5
sg9
F227.5
sa(dp22
g4
VLakers
p23
sg6
V76ers
p24
sg8
F5.5
sg9
F223.5
sasS'2017-01-05'
p25
(lp26
(dp27
g4
VMagic
p28
sg6
VHawks
p29
sg8
F-2.5
sg9
F206.5
sa(dp30
g4
VHornets
p31
sg6
VThunder
p32
sg8
F2.5
sg9
F209.5
sa(dp33
g4
VKnicks
p34
sg6
VMilwaukee
p35
sg8
F-3.5
sg9
F212.5
sa(dp36
g4
VCavaliers
p37
sg6
VBulls
p38
sg8
F3.5
sg9
F203.5
sa(dp39
g4
Vsac
p40
sg6
VHeat
p41
sg8
F7.5
sg9
F204.0
sa(dp42
g4
VWarriors
p43
sg6
VTrail Blaze
p44
sg8
F16.5
sg9
F220.5
sa(dp45
g4
VClippers
p46
sg6
VGrizzlies
p47
sg8
F-1.5
sg9
F195.5
sasS'2016-11-08'
p48
(lp49
(dp50
g4
V76ers
p51
sg6
VJazz
p52
sg8
F-4.5
sg9
F188.5
sa(dp53
g4
VWizards
p54
sg6
VRockets
p55
sg8
F1.0
sg9
F217.5
sa(dp56
g4
VHornets
p57
sg6
VPacers
p58
sg8
F3.0
sg9
F205.5
sa(dp59
g4
VBulls
p60
sg6
VMagic
p61
sg8
F6.5
sg9
F199.0
sa(dp62
g4
VThunder
p63
sg6
VHeat
p64
sg8
F5.5
sg9
F203.0
sa(dp65
g4
VWarriors
p66
sg6
VPelicans
p67
sg8
F16.5
sg9
F220.5
sa(dp68
g4
VClippers
p69
sg6
VPistons
p70
sg8
F8.5
sg9
F196.5
sasS'2017-03-30'
p71
(lp72
(dp73
g4
VMagic
p74
sg6
VThunder
p75
sg8
F-4.5
sg9
F220.5
sa(dp76
g4
V76ers
p77
sg6
VHawks
p78
sg8
F-3.0
sg9
F212.0
sa(dp79
g4
VCeltics
p80
sg6
VMilwaukee
p81
sg8
F7.5
sg9
F207.5
sa(dp82
g4
VKnicks
p83
sg6
VHeat
p84
sg8
F-1.5
sg9
F204.5
sa(dp85
g4
VRaptors
p86
sg6
VHornets
p87
sg8
F5.5
sg9
F200.5
sa(dp88
g4
VPelicans
p89
sg6
VMavericks
p90
sg8
F6.5
sg9
F201.5
sa(dp91
g4
VGrizzlies
p92
sg6
VPacers
p93
sg8
F4.5
sg9
F197.5
sa(dp94
g4
VSpurs
p95
sg6
VWarriors
p96
sg8
F4.5
sg9
F206.5
sa(dp97
g4
Vsac
p98
sg6
VJazz
p99
sg8
F-7.5
sg9
F195.5
sa(dp100
g4
VClippers
p101
sg6
VWizards
p102
sg8
F6.5
sg9
F219.5
sasS'2016-12-21'
p103
(lp104
(dp105
g4
V76ers
p106
sg6
VPelicans
p107
sg8
F-3.5
sg9
F205.5
sa(dp108
g4
VHornets
p109
sg6
VLakers
p110
sg8
F8.5
sg9
F212.5
sa(dp111
g4
VHeat
p112
sg6
VMagic
p113
sg8
F4.5
sg9
F198.5
sa(dp114
g4
VKnicks
p115
sg6
VPacers
p116
sg8
F4.5
sg9
F210.5
sa(dp117
g4
VRaptors
p118
sg6
VNets
p119
sg8
F15.5
sg9
F224.5
sa(dp120
g4
VMilwaukee
p121
sg6
VCavaliers
p122
sg8
F-3.0
sg9
F212.5
sa(dp123
g4
VRockets
p124
sg6
VSpurs
p125
sg8
F1.5
sg9
F212.5
sa(dp126
g4
VGrizzlies
p127
sg6
VCeltics
p128
sg8
F-2.5
sg9
F195.5
sa(dp129
g4
Vsac
p130
sg6
VTrail Blaze
p131
sg8
F-1.5
sg9
F217.5
sa(dp132
g4
VWarriors
p133
sg6
VJazz
p134
sg8
F12.5
sg9
F210.5
sa(dp135
g4
VClippers
p136
sg6
VNuggets
p137
sg8
F7.5
sg9
F218.5
sasS'2017-02-28'
p138
(lp139
(dp140
g4
VKnicks
p141
sg6
VRaptors
p142
sg8
F-3.5
sg9
F211.5
sa(dp143
g4
V76ers
p144
sg6
VWarriors
p145
sg8
F-13.5
sg9
F228.5
sa(dp146
g4
VCavaliers
p147
sg6
VMilwaukee
p148
sg8
F9.5
sg9
F218.5
sa(dp149
g4
VCeltics
p150
sg6
VHawks
p151
sg8
F4.5
sg9
F213.5
sa(dp152
g4
VMavericks
p153
sg6
VHeat
p154
sg8
F-1.5
sg9
F195.5
sa(dp155
g4
VRockets
p156
sg6
VPacers
p157
sg8
F10.0
sg9
F230.5
sa(dp158
g4
Vsac
p159
sg6
VTimberwolves
p160
sg8
F-4.5
sg9
F209.5
sasS'2017-02-26'
p161
(lp162
(dp163
g4
Vsac
p164
sg6
VHornets
p165
sg8
F-4.5
sg9
F202.5
sa(dp166
g4
VMagic
p167
sg6
VHawks
p168
sg8
F-3.5
sg9
F209.5
sa(dp169
g4
VKnicks
p170
sg6
V76ers
p171
sg8
F6.5
sg9
F219.5
sa(dp172
g4
VHeat
p173
sg6
VPacers
p174
sg8
F4.5
sg9
F207.5
sa(dp175
g4
VCavaliers
p176
sg6
VBulls
p177
sg8
F6.5
sg9
F209.5
sa(dp178
g4
VMavericks
p179
sg6
VPelicans
p180
sg8
F-2.5
sg9
F205.5
sa(dp181
g4
VRockets
p182
sg6
VTimberwolves
p183
sg8
F12.5
sg9
F229.5
sa(dp184
g4
VWarriors
p185
sg6
VNets
p186
sg8
F20.5
sg9
F232.5
sasS'2017-02-27'
p187
(lp188
(dp189
g4
VLakers
p190
sg6
VSpurs
p191
sg8
F-12.5
sg9
F210.5
sa(dp192
g4
VMilwaukee
p193
sg6
VSuns
p194
sg8
F5.5
sg9
F221.5
sa(dp195
g4
VWizards
p196
sg6
VJazz
p197
sg8
F1.5
sg9
F201.5
sa(dp198
g4
VNuggets
p199
sg6
VGrizzlies
p200
sg8
F1.5
sg9
F212.5
sa(dp201
g4
VPistons
p202
sg6
VCeltics
p203
sg8
F-1.5
sg9
F214.5
sa(dp204
g4
VRaptors
p205
sg6
VTrail Blaze
p206
sg8
F5.5
sg9
F208.5
sa(dp207
g4
VThunder
p208
sg6
VPelicans
p209
sg8
F6.0
sg9
F218.0
sa(dp210
g4
VClippers
p211
sg6
VHornets
p212
sg8
F10.5
sg9
F212.5
sasS'2017-02-24'
p213
(lp214
(dp215
g4
VMagic
p216
sg6
VTrail Blaze
p217
sg8
F-3.5
sg9
F217.5
sa(dp218
g4
VPistons
p219
sg6
VHornets
p220
sg8
F4.5
sg9
F207.5
sa(dp221
g4
VPelicans
p222
sg6
VRockets
p223
sg8
F-2.5
sg9
F228.5
sa(dp224
g4
VCavaliers
p225
sg6
VKnicks
p226
sg8
F10.5
sg9
F222.5
sa(dp227
g4
Vsac
p228
sg6
VNuggets
p229
sg8
F-6.5
sg9
F221.5
sa(dp230
g4
VWarriors
p231
sg6
VClippers
p232
sg8
F13.5
sg9
F228.5
sasS'2017-02-25'
p233
(lp234
(dp235
g4
V76ers
p236
sg6
VWizards
p237
sg8
F-9.5
sg9
F217.5
sa(dp238
g4
VPacers
p239
sg6
VGrizzlies
p240
sg8
F-1.5
sg9
F202.5
sa(dp241
g4
VMilwaukee
p242
sg6
VJazz
p243
sg8
F-3.5
sg9
F202.5
sa(dp244
g4
VHawks
p245
sg6
VHeat
p246
sg8
F2.5
sg9
F206.5
sa(dp247
g4
VBulls
p248
sg6
VSuns
p249
sg8
F5.5
sg9
F220.5
sa(dp250
g4
VRaptors
p251
sg6
VCeltics
p252
sg8
F1.5
sg9
F213.5
sa(dp253
g4
VTimberwolves
p254
sg6
VMavericks
p255
sg8
F4.0
sg9
F204.5
sa(dp256
g4
VThunder
p257
sg6
VLakers
p258
sg8
F9.5
sg9
F221.5
sa(dp259
g4
VNuggets
p260
sg6
VNets
p261
sg8
F9.5
sg9
F234.5
sa(dp262
g4
VClippers
p263
sg6
VSpurs
p264
sg8
F-2.5
sg9
F210.5
sasS'2016-12-22'
p265
(lp266
(dp267
g4
VCavaliers
p268
sg6
VMilwaukee
p269
sg8
F7.0
sg9
F207.0
sa(dp270
g4
VPistons
p271
sg6
VGrizzlies
p272
sg8
F6.5
sg9
F188.5
sa(dp273
g4
VHawks
p274
sg6
VTimberwolves
p275
sg8
F4.5
sg9
F215.5
sa(dp276
g4
VPelicans
p277
sg6
VThunder
p278
sg8
F-1.5
sg9
F207.5
sa(dp279
g4
VBulls
p280
sg6
VWizards
p281
sg8
F4.5
sg9
F209.5
sa(dp282
g4
VJazz
p283
sg6
Vsac
p284
sg8
F7.5
sg9
F194.5
sa(dp285
g4
VSuns
p286
sg6
VRockets
p287
sg8
F-5.5
sg9
F227.5
sa(dp288
g4
VTrail Blaze
p289
sg6
VMavericks
p290
sg8
F6.5
sg9
F210.5
sasS'2016-12-23'
p291
(lp292
(dp293
g4
VPacers
p294
sg6
VCeltics
p295
sg8
F-1.5
sg9
F208.5
sa(dp296
g4
VNets
p297
sg6
VWarriors
p298
sg8
F-13.5
sg9
F231.5
sa(dp299
g4
VKnicks
p300
sg6
VMagic
p301
sg8
F4.5
sg9
F210.5
sa(dp302
g4
VHeat
p303
sg6
VLakers
p304
sg8
F5.5
sg9
F209.5
sa(dp305
g4
VClippers
p306
sg6
VSpurs
p307
sg8
F-1.5
sg9
F203.5
sasS'2016-12-20'
p308
(lp309
(dp310
g4
VPacers
p311
sg6
VWizards
p312
sg8
F5.5
sg9
F211.5
sa(dp313
g4
VBulls
p314
sg6
VPistons
p315
sg8
F2.5
sg9
F197.5
sa(dp316
g4
VTimberwolves
p317
sg6
VSuns
p318
sg8
F6.5
sg9
F215.5
sa(dp319
g4
VThunder
p320
sg6
VHawks
p321
sg8
F2.5
sg9
F211.5
sa(dp322
g4
VNuggets
p323
sg6
VMavericks
p324
sg8
F8.5
sg9
F207.5
sasS'2017-03-31'
p325
(lp326
(dp327
g4
VPistons
p328
sg6
VNets
p329
sg8
F6.5
sg9
F212.5
sa(dp330
g4
VBulls
p331
sg6
VCavaliers
p332
sg8
F-5.5
sg9
F210.5
sa(dp333
g4
VTimberwolves
p334
sg6
VLakers
p335
sg8
F10.5
sg9
F216.5
sa(dp336
g4
VSuns
p337
sg6
VClippers
p338
sg8
F-9.5
sg9
F222.5
sa(dp339
g4
VTrail Blaze
p340
sg6
VRockets
p341
sg8
F-1.5
sg9
F230.5
sasS'2016-12-26'
p342
(lp343
(dp344
g4
VKnicks
p345
sg6
VCeltics
p346
sg8
F-2.5
sg9
F209.5
sa(dp347
g4
VCavaliers
p348
sg6
VWarriors
p349
sg8
F-3.5
sg9
F217.5
sa(dp350
g4
VSpurs
p351
sg6
VBulls
p352
sg8
F8.5
sg9
F196.5
sa(dp353
g4
VThunder
p354
sg6
VTimberwolves
p355
sg8
F3.5
sg9
F212.5
sa(dp356
g4
VLakers
p357
sg6
VClippers
p358
sg8
F-3.5
sg9
F209.5
sasS'2016-12-27'
p359
(lp360
(dp361
g4
VMagic
p362
sg6
VGrizzlies
p363
sg8
F-2.5
sg9
F194.5
sa(dp364
g4
VWizards
p365
sg6
VMilwaukee
p366
sg8
F2.5
sg9
F213.5
sa(dp367
g4
VNets
p368
sg6
VHornets
p369
sg8
F-6.5
sg9
F218.5
sa(dp370
g4
VPistons
p371
sg6
VCavaliers
p372
sg8
F5.5
sg9
F202.5
sa(dp373
g4
VPelicans
p374
sg6
VMavericks
p375
sg8
F4.5
sg9
F199.5
sa(dp376
g4
VBulls
p377
sg6
VPacers
p378
sg8
F2.5
sg9
F207.5
sa(dp379
g4
VTimberwolves
p380
sg6
VHawks
p381
sg8
F-1.5
sg9
F207.5
sa(dp382
g4
VRockets
p383
sg6
VSuns
p384
sg8
F12.5
sg9
F228.5
sa(dp385
g4
VTrail Blaze
p386
sg6
VRaptors
p387
sg8
F-8.5
sg9
F213.5
sa(dp388
g4
Vsac
p389
sg6
V76ers
p390
sg8
F8.5
sg9
F205.5
sa(dp391
g4
VClippers
p392
sg6
VNuggets
p393
sg8
F-4.5
sg9
F209.5
sasS'2016-12-24'
p394
(lp395
(dp396
g4
VMagic
p397
sg6
VLakers
p398
sg8
F5.5
sg9
F211.5
sa(dp399
g4
VHornets
p400
sg6
VBulls
p401
sg8
F4.5
sg9
F205.5
sa(dp402
g4
VCeltics
p403
sg6
VThunder
p404
sg8
F5.5
sg9
F211.5
sa(dp405
g4
VPistons
p406
sg6
VWarriors
p407
sg8
F-7.5
sg9
F214.5
sa(dp408
g4
VCavaliers
p409
sg6
VNets
p410
sg8
F16.5
sg9
F224.5
sa(dp411
g4
VPelicans
p412
sg6
VHeat
p413
sg8
F4.5
sg9
F206.5
sa(dp414
g4
VMilwaukee
p415
sg6
VWizards
p416
sg8
F3.5
sg9
F212.5
sa(dp417
g4
VTimberwolves
p418
sg6
Vsac
p419
sg8
F4.5
sg9
F205.5
sa(dp420
g4
VGrizzlies
p421
sg6
VRockets
p422
sg8
F-3.5
sg9
F206.5
sa(dp423
g4
VJazz
p424
sg6
VRaptors
p425
sg8
F1.5
sg9
F199.5
sa(dp426
g4
VNuggets
p427
sg6
VHawks
p428
sg8
F5.5
sg9
F216.5
sa(dp429
g4
VSuns
p430
sg6
V76ers
p431
sg8
F5.5
sg9
F212.5
sa(dp432
g4
VTrail Blaze
p433
sg6
VSpurs
p434
sg8
F-2.5
sg9
F211.5
sa(dp435
g4
VClippers
p436
sg6
VMavericks
p437
sg8
F3.5
sg9
F194.5
sasS'2017-01-09'
p438
(lp439
(dp440
g4
VNets
p441
sg6
V76ers
p442
sg8
F1.5
sg9
F215.5
sa(dp443
g4
VMilwaukee
p444
sg6
VWizards
p445
sg8
F-1.5
sg9
F212.5
sa(dp446
g4
VClippers
p447
sg6
VHeat
p448
sg8
F9.5
sg9
F205.5
sa(dp449
g4
VRaptors
p450
sg6
VRockets
p451
sg8
F-1.5
sg9
F227.5
sa(dp452
g4
VGrizzlies
p453
sg6
VJazz
p454
sg8
F2.5
sg9
F188.5
sa(dp455
g4
VSuns
p456
sg6
VCavaliers
p457
sg8
F-8.5
sg9
F221.5
sa(dp458
g4
Vsac
p459
sg6
VWarriors
p460
sg8
F-11.5
sg9
F225.5
sa(dp461
g4
VTrail Blaze
p462
sg6
VPistons
p463
sg8
F3.5
sg9
F211.5
sa(dp464
g4
VLakers
p465
sg6
VMagic
p466
sg8
F2.5
sg9
F217.5
sasS'2016-12-28'
p467
(lp468
(dp469
g4
VCeltics
p470
sg6
VGrizzlies
p471
sg8
F7.5
sg9
F198.5
sa(dp472
g4
VHeat
p473
sg6
VThunder
p474
sg8
F-4.5
sg9
F202.5
sa(dp475
g4
VMavericks
p476
sg6
VRockets
p477
sg8
F-5.5
sg9
F208.5
sa(dp478
g4
VLakers
p479
sg6
VJazz
p480
sg8
F-6.5
sg9
F205.5
sasS'2016-12-29'
p481
(lp482
(dp483
g4
VMagic
p484
sg6
VHornets
p485
sg8
F-4.5
sg9
F205.5
sa(dp486
g4
VWizards
p487
sg6
VPacers
p488
sg8
F4.5
sg9
F214.5
sa(dp489
g4
VPistons
p490
sg6
VMilwaukee
p491
sg8
F3.5
sg9
F204.5
sa(dp492
g4
VHawks
p493
sg6
VKnicks
p494
sg8
F5.5
sg9
F211.5
sa(dp495
g4
VPelicans
p496
sg6
VClippers
p497
sg8
F-1.5
sg9
F208.5
sa(dp498
g4
VBulls
p499
sg6
VNets
p500
sg8
F9.5
sg9
F214.5
sa(dp501
g4
VSpurs
p502
sg6
VSuns
p503
sg8
F10.5
sg9
F214.5
sa(dp504
g4
VNuggets
p505
sg6
VTimberwolves
p506
sg8
F3.5
sg9
F217.5
sa(dp507
g4
VTrail Blaze
p508
sg6
Vsac
p509
sg8
F2.5
sg9
F206.5
sa(dp510
g4
VWarriors
p511
sg6
VRaptors
p512
sg8
F10.5
sg9
F228.5
sasS'2017-03-09'
p513
(lp514
(dp515
g4
VMagic
p516
sg6
VBulls
p517
sg8
F1.5
sg9
F204.5
sa(dp518
g4
VHeat
p519
sg6
VHornets
p520
sg8
F3.5
sg9
F204.5
sa(dp521
g4
VHawks
p522
sg6
VNets
p523
sg8
F9.5
sg9
F220.5
sa(dp524
g4
VPacers
p525
sg6
VPistons
p526
sg8
F3.5
sg9
F206.5
sa(dp527
g4
VPelicans
p528
sg6
VRaptors
p529
sg8
F3.5
sg9
F204.0
sa(dp530
g4
VMilwaukee
p531
sg6
VKnicks
p532
sg8
F6.5
sg9
F208.5
sa(dp533
g4
VTimberwolves
p534
sg6
VClippers
p535
sg8
F-3.5
sg9
F211.5
sa(dp536
g4
VRockets
p537
sg6
VJazz
p538
sg8
F8.5
sg9
F216.5
sa(dp539
g4
VSpurs
p540
sg6
Vsac
p541
sg8
F12.5
sg9
F196.5
sa(dp542
g4
VNuggets
p543
sg6
VWizards
p544
sg8
F-2.0
sg9
F223.5
sa(dp545
g4
VWarriors
p546
sg6
VCeltics
p547
sg8
F7.5
sg9
F222.5
sasS'2017-01-08'
p548
(lp549
(dp550
g4
VPacers
p551
sg6
VKnicks
p552
sg8
F6.5
sg9
F217.5
sa(dp553
g4
VCeltics
p554
sg6
VPelicans
p555
sg8
F6.5
sg9
F209.5
sa(dp556
g4
VBulls
p557
sg6
VRaptors
p558
sg8
F-1.5
sg9
F207.5
sa(dp559
g4
VTimberwolves
p560
sg6
VJazz
p561
sg8
F-4.5
sg9
F192.5
sa(dp562
g4
VThunder
p563
sg6
VNuggets
p564
sg8
F7.5
sg9
F220.5
sa(dp565
g4
VMavericks
p566
sg6
VHawks
p567
sg8
F-1.5
sg9
F196.5
sa(dp568
g4
VSpurs
p569
sg6
VHornets
p570
sg8
F10.5
sg9
F208.5
sasS'2017-01-16'
p571
(lp572
(dp573
g4
VMavericks
p574
sg6
VTimberwolves
p575
sg8
F1.5
sg9
F196.5
sa(dp576
g4
VHawks
p577
sg6
VMilwaukee
p578
sg8
F4.5
sg9
F206.5
sa(dp579
g4
VRaptors
p580
sg6
VKnicks
p581
sg8
F9.5
sg9
F219.5
sa(dp582
g4
VNets
p583
sg6
VRockets
p584
sg8
F-14.5
sg9
F235.5
sa(dp585
g4
VGrizzlies
p586
sg6
VBulls
p587
sg8
F8.5
sg9
F192.5
sa(dp588
g4
Vsac
p589
sg6
VThunder
p590
sg8
F-1.5
sg9
F213.5
sa(dp591
g4
VLakers
p592
sg6
VPistons
p593
sg8
F-2.5
sg9
F212.5
sasS'2017-01-17'
p594
(lp595
(dp596
g4
VKnicks
p597
sg6
VHawks
p598
sg8
F-2.5
sg9
F209.5
sa(dp599
g4
VWizards
p600
sg6
VTrail Blaze
p601
sg8
F3.5
sg9
F219.5
sa(dp602
g4
VMilwaukee
p603
sg6
V76ers
p604
sg8
F8.5
sg9
F207.5
sa(dp605
g4
VPacers
p606
sg6
VPelicans
p607
sg8
F4.5
sg9
F214.5
sa(dp608
g4
VNuggets
p609
sg6
VMagic
p610
sg8
F5.5
sg9
F223.5
sa(dp611
g4
VCeltics
p612
sg6
VHornets
p613
sg8
F5.5
sg9
F217.5
sa(dp614
g4
VWarriors
p615
sg6
VCavaliers
p616
sg8
F8.5
sg9
F228.5
sa(dp617
g4
VSuns
p618
sg6
VJazz
p619
sg8
F-6.5
sg9
F204.5
sa(dp620
g4
VClippers
p621
sg6
VThunder
p622
sg8
F8.5
sg9
F218.5
sasS'2017-01-14'
p623
(lp624
(dp625
g4
V76ers
p626
sg6
VHornets
p627
sg8
F-5.0
sg9
F208.0
sa(dp628
g4
VRaptors
p629
sg6
VNets
p630
sg8
F15.5
sg9
F225.5
sa(dp631
g4
VMilwaukee
p632
sg6
VHeat
p633
sg8
F7.5
sg9
F205.5
sa(dp634
g4
VHawks
p635
sg6
VCeltics
p636
sg8
F3.5
sg9
F212.5
sa(dp637
g4
VTimberwolves
p638
sg6
VThunder
p639
sg8
F-2.0
sg9
F208.0
sa(dp640
g4
VRockets
p641
sg6
VGrizzlies
p642
sg8
F6.5
sg9
F216.5
sa(dp643
g4
VTrail Blaze
p644
sg6
VMagic
p645
sg8
F7.5
sg9
F214.5
sa(dp646
g4
VJazz
p647
sg6
VPistons
p648
sg8
F10.5
sg9
F188.5
sa(dp649
g4
Vsac
p650
sg6
VCavaliers
p651
sg8
F-6.0
sg9
F214.5
sasS'2016-11-19'
p652
(lp653
(dp654
g4
VPacers
p655
sg6
VSuns
p656
sg8
F3.5
sg9
F216.5
sa(dp657
g4
VHornets
p658
sg6
VHawks
p659
sg8
F2.5
sg9
F206.5
sa(dp660
g4
VCavaliers
p661
sg6
VPistons
p662
sg8
F8.5
sg9
F202.5
sa(dp663
g4
VCeltics
p664
sg6
VWarriors
p665
sg8
F-8.5
sg9
F224.5
sa(dp666
g4
VPelicans
p667
sg6
VTrail Blaze
p668
sg8
F1.5
sg9
F214.5
sa(dp669
g4
VThunder
p670
sg6
VNets
p671
sg8
F9.5
sg9
F216.5
sa(dp672
g4
VMavericks
p673
sg6
VGrizzlies
p674
sg8
F-3.5
sg9
F185.5
sa(dp675
g4
VNuggets
p676
sg6
VRaptors
p677
sg8
F-3.5
sg9
F213.5
sa(dp678
g4
VLakers
p679
sg6
VSpurs
p680
sg8
F-7.5
sg9
F209.5
sa(dp681
g4
Vsac
p682
sg6
VClippers
p683
sg8
F-8.5
sg9
F202.5
sasS'2017-01-12'
p684
(lp685
(dp686
g4
V76ers
p687
sg6
VKnicks
p688
sg8
F-2.0
sg9
F210.0
sa(dp689
g4
VCeltics
p690
sg6
VWizards
p691
sg8
F5.5
sg9
F217.5
sa(dp692
g4
VTimberwolves
p693
sg6
VRockets
p694
sg8
F-2.5
sg9
F218.5
sa(dp695
g4
VThunder
p696
sg6
VGrizzlies
p697
sg8
F4.5
sg9
F204.5
sa(dp698
g4
VTrail Blaze
p699
sg6
VCavaliers
p700
sg8
F-5.5
sg9
F219.5
sa(dp701
g4
VClippers
p702
sg6
VMagic
p703
sg8
F9.5
sg9
F206.5
sasS'2017-01-13'
p704
(lp705
(dp706
g4
VNuggets
p707
sg6
VPacers
p708
sg8
F-4.5
sg9
F226.5
sa(dp709
g4
VNets
p710
sg6
VPelicans
p711
sg8
F2.5
sg9
F213.5
sa(dp712
g4
VKnicks
p713
sg6
VBulls
p714
sg8
F3.0
sg9
F208.0
sa(dp715
g4
VSpurs
p716
sg6
VLakers
p717
sg8
F14.5
sg9
F212.5
sa(dp718
g4
VSuns
p719
sg6
VMavericks
p720
sg8
F-2.5
sg9
F207.5
sa(dp721
g4
VWarriors
p722
sg6
VPistons
p723
sg8
F12.5
sg9
F215.5
sasS'2017-01-10'
p724
(lp725
(dp726
g4
VKnicks
p727
sg6
VPelicans
p728
sg8
F2.5
sg9
F213.5
sa(dp729
g4
VBulls
p730
sg6
VThunder
p731
sg8
F1.5
sg9
F211.5
sa(dp732
g4
VTimberwolves
p733
sg6
VMavericks
p734
sg8
F4.5
sg9
F197.5
sasS'2017-01-11'
p735
(lp736
(dp737
g4
VWizards
p738
sg6
VBulls
p739
sg8
F11.5
sg9
F203.5
sa(dp740
g4
VNets
p741
sg6
VHawks
p742
sg8
F-8.5
sg9
F216.5
sa(dp743
g4
VRaptors
p744
sg6
VCeltics
p745
sg8
F4.5
sg9
F216.5
sa(dp746
g4
VRockets
p747
sg6
VHornets
p748
sg8
F9.0
sg9
F226.0
sa(dp749
g4
VSpurs
p750
sg6
VMilwaukee
p751
sg8
F9.5
sg9
F201.5
sa(dp752
g4
VJazz
p753
sg6
VCavaliers
p754
sg8
F-1.0
sg9
F203.5
sa(dp755
g4
VLakers
p756
sg6
VTrail Blaze
p757
sg8
F-2.5
sg9
F228.5
sa(dp758
g4
Vsac
p759
sg6
VPistons
p760
sg8
F2.5
sg9
F205.5
sa(dp761
g4
VWarriors
p762
sg6
VHeat
p763
sg8
F14.5
sg9
F218.5
sasS'2016-11-12'
p764
(lp765
(dp766
g4
VMagic
p767
sg6
VJazz
p768
sg8
F-5.5
sg9
F191.5
sa(dp769
g4
V76ers
p770
sg6
VPacers
p771
sg8
F-4.5
sg9
F213.5
sa(dp772
g4
VWizards
p773
sg6
VCavaliers
p774
sg8
F-7.5
sg9
F208.5
sa(dp775
g4
VHornets
p776
sg6
VRaptors
p777
sg8
F-1.5
sg9
F204.5
sa(dp778
g4
VCeltics
p779
sg6
VKnicks
p780
sg8
F4.5
sg9
F215.0
sa(dp781
g4
VThunder
p782
sg6
VClippers
p783
sg8
F-5.0
sg9
F206.0
sa(dp784
g4
VSpurs
p785
sg6
VPistons
p786
sg8
F9.0
sg9
F194.5
sa(dp787
g4
VTrail Blaze
p788
sg6
Vsac
p789
sg8
F7.0
sg9
F208.0
sasS'2016-11-13'
p790
(lp791
(dp792
g4
VPacers
p793
sg6
VCeltics
p794
sg8
F-1.5
sg9
F211.5
sa(dp795
g4
VPelicans
p796
sg6
VLakers
p797
sg8
F1.5
sg9
F217.5
sa(dp798
g4
VHawks
p799
sg6
V76ers
p800
sg8
F14.5
sg9
F204.5
sa(dp801
g4
VRaptors
p802
sg6
VKnicks
p803
sg8
F7.5
sg9
F208.5
sa(dp804
g4
VHeat
p805
sg6
VJazz
p806
sg8
F-1.5
sg9
F187.5
sa(dp807
g4
VBulls
p808
sg6
VWizards
p809
sg8
F9.5
sg9
F200.5
sa(dp810
g4
VTimberwolves
p811
sg6
VClippers
p812
sg8
F-5.5
sg9
F207.5
sa(dp813
g4
VRockets
p814
sg6
VSpurs
p815
sg8
F-1.5
sg9
F208.0
sa(dp816
g4
VMilwaukee
p817
sg6
VGrizzlies
p818
sg8
F3.5
sg9
F201.5
sa(dp819
g4
VNuggets
p820
sg6
VPistons
p821
sg8
F4.5
sg9
F202.5
sa(dp822
g4
VSuns
p823
sg6
VNets
p824
sg8
F4.5
sg9
F218.5
sasS'2016-11-10'
p825
(lp826
(dp827
g4
VKnicks
p828
sg6
VNets
p829
sg8
F8.0
sg9
F215.0
sa(dp830
g4
VMagic
p831
sg6
VTimberwolves
p832
sg8
F2.5
sg9
F201.5
sa(dp833
g4
VWizards
p834
sg6
VCeltics
p835
sg8
F1.5
sg9
F212.0
sa(dp836
g4
VPacers
p837
sg6
V76ers
p838
sg8
F11.5
sg9
F212.5
sa(dp839
g4
VHornets
p840
sg6
VJazz
p841
sg8
F3.0
sg9
F192.5
sa(dp842
g4
VHawks
p843
sg6
VBulls
p844
sg8
F3.5
sg9
F201.5
sa(dp845
g4
VThunder
p846
sg6
VRaptors
p847
sg8
F4.5
sg9
F203.5
sa(dp848
g4
VSuns
p849
sg6
VPistons
p850
sg8
F-4.5
sg9
F205.5
sa(dp851
g4
VSpurs
p852
sg6
VRockets
p853
sg8
F8.5
sg9
F212.5
sa(dp854
g4
VWarriors
p855
sg6
VMavericks
p856
sg8
F18.0
sg9
F206.0
sa(dp857
g4
VClippers
p858
sg6
VTrail Blaze
p859
sg8
F11.0
sg9
F211.0
sasS'2016-11-11'
p860
(lp861
(dp862
g4
VHeat
p863
sg6
VBulls
p864
sg8
F1.5
sg9
F201.5
sa(dp865
g4
VMilwaukee
p866
sg6
VPelicans
p867
sg8
F5.5
sg9
F208.5
sa(dp868
g4
VNuggets
p869
sg6
VWarriors
p870
sg8
F-6.5
sg9
F222.5
sa(dp871
g4
Vsac
p872
sg6
VLakers
p873
sg8
F5.5
sg9
F211.0
sasS'2016-11-16'
p874
(lp875
(dp876
g4
VCavaliers
p877
sg6
VRaptors
p878
sg8
F6.0
sg9
F210.5
sa(dp879
g4
VHeat
p880
sg6
VHawks
p881
sg8
F-6.5
sg9
F199.0
sa(dp882
g4
VTimberwolves
p883
sg6
VHornets
p884
sg8
F-1.5
sg9
F205.5
sa(dp885
g4
VTrail Blaze
p886
sg6
VBulls
p887
sg8
F4.5
sg9
F210.5
sa(dp888
g4
VLakers
p889
sg6
VNets
p890
sg8
F7.5
sg9
F219.5
sasS'2016-11-17'
p891
(lp892
(dp893
g4
VMagic
p894
sg6
VPelicans
p895
sg8
F7.0
sg9
F199.0
sa(dp896
g4
V76ers
p897
sg6
VWizards
p898
sg8
F-6.5
sg9
F203.5
sa(dp899
g4
VPacers
p900
sg6
VCavaliers
p901
sg8
F3.0
sg9
F208.5
sa(dp902
g4
VCeltics
p903
sg6
VMavericks
p904
sg8
F5.5
sg9
F197.5
sa(dp905
g4
VKnicks
p906
sg6
VPistons
p907
sg8
F1.5
sg9
F201.0
sa(dp908
g4
VHawks
p909
sg6
VMilwaukee
p910
sg8
F5.0
sg9
F210.5
sa(dp911
g4
VRaptors
p912
sg6
VWarriors
p913
sg8
F-6.0
sg9
F222.5
sa(dp914
g4
VThunder
p915
sg6
VRockets
p916
sg8
F-5.5
sg9
F222.5
sa(dp917
g4
VNuggets
p918
sg6
VSuns
p919
sg8
F4.5
sg9
F219.5
sa(dp920
g4
Vsac
p921
sg6
VSpurs
p922
sg8
F-5.5
sg9
F197.5
sa(dp923
g4
VClippers
p924
sg6
VGrizzlies
p925
sg8
F12.5
sg9
F200.5
sasS'2017-01-18'
p926
(lp927
(dp928
g4
VHeat
p929
sg6
VRockets
p930
sg8
F-7.5
sg9
F221.5
sa(dp931
g4
VNets
p932
sg6
VRaptors
p933
sg8
F-8.5
sg9
F225.5
sa(dp934
g4
VBulls
p935
sg6
VMavericks
p936
sg8
F4.5
sg9
F198.5
sa(dp937
g4
VSpurs
p938
sg6
VTimberwolves
p939
sg8
F11.5
sg9
F202.5
sa(dp940
g4
VLakers
p941
sg6
VNuggets
p942
sg8
F-1.5
sg9
F229.5
sasS'2017-01-19'
p943
(lp944
(dp945
g4
V76ers
p946
sg6
VRaptors
p947
sg8
F-6.5
sg9
F215.5
sa(dp948
g4
VWizards
p949
sg6
VGrizzlies
p950
sg8
F2.5
sg9
F205.5
sa(dp951
g4
VHornets
p952
sg6
VTrail Blaze
p953
sg8
F5.5
sg9
F216.5
sa(dp954
g4
VCeltics
p955
sg6
VKnicks
p956
sg8
F10.0
sg9
F220.5
sa(dp957
g4
VPistons
p958
sg6
VHawks
p959
sg8
F-2.5
sg9
F199.5
sa(dp960
g4
VPelicans
p961
sg6
VMagic
p962
sg8
F6.5
sg9
F211.5
sa(dp963
g4
VRockets
p964
sg6
VMilwaukee
p965
sg8
F6.5
sg9
F225.5
sa(dp966
g4
Vsac
p967
sg6
VPacers
p968
sg8
F2.5
sg9
F213.5
sa(dp969
g4
VWarriors
p970
sg6
VThunder
p971
sg8
F15.0
sg9
F230.5
sasS'2016-12-13'
p972
(lp973
(dp974
g4
VPacers
p975
sg6
VHornets
p976
sg8
F-2.5
sg9
F209.5
sa(dp977
g4
VHeat
p978
sg6
VWizards
p979
sg8
F-1.5
sg9
F207.5
sa(dp980
g4
VRaptors
p981
sg6
VMilwaukee
p982
sg8
F8.0
sg9
F212.5
sa(dp983
g4
VRockets
p984
sg6
VNets
p985
sg8
F12.5
sg9
F228.5
sa(dp986
g4
VMavericks
p987
sg6
VNuggets
p988
sg8
F-2.5
sg9
F204.0
sa(dp989
g4
Vsac
p990
sg6
VLakers
p991
sg8
F9.0
sg9
F217.5
sa(dp992
g4
VClippers
p993
sg6
VTrail Blaze
p994
sg8
F10.5
sg9
F219.5
sasS'2017-03-02'
p995
(lp996
(dp997
g4
VMagic
p998
sg6
VKnicks
p999
sg8
F2.5
sg9
F215.5
sa(dp1000
g4
VHeat
p1001
sg6
V76ers
p1002
sg8
F10.5
sg9
F214.5
sa(dp1003
g4
VHawks
p1004
sg6
VMavericks
p1005
sg8
F5.5
sg9
F194.5
sa(dp1006
g4
VRaptors
p1007
sg6
VWizards
p1008
sg8
F4.5
sg9
F208.5
sa(dp1009
g4
VCeltics
p1010
sg6
VCavaliers
p1011
sg8
F2.0
sg9
F224.5
sa(dp1012
g4
VPelicans
p1013
sg6
VPistons
p1014
sg8
F2.5
sg9
F208.5
sa(dp1015
g4
VMilwaukee
p1016
sg6
VNuggets
p1017
sg8
F4.5
sg9
F223.5
sa(dp1018
g4
VSpurs
p1019
sg6
VPacers
p1020
sg8
F9.5
sg9
F206.5
sa(dp1021
g4
VJazz
p1022
sg6
VTimberwolves
p1023
sg8
F6.5
sg9
F200.5
sa(dp1024
g4
Vsac
p1025
sg6
VNets
p1026
sg8
F2.5
sg9
F216.0
sa(dp1027
g4
VClippers
p1028
sg6
VRockets
p1029
sg8
F3.5
sg9
F237.5
sasS'2017-03-01'
p1030
(lp1031
(dp1032
g4
VWizards
p1033
sg6
VWarriors
p1034
sg8
F-6.5
sg9
F230.5
sa(dp1035
g4
VPistons
p1036
sg6
VTrail Blaze
p1037
sg8
F4.5
sg9
F210.5
sa(dp1038
g4
VBulls
p1039
sg6
VNuggets
p1040
sg8
F3.5
sg9
F223.5
sa(dp1041
g4
VGrizzlies
p1042
sg6
VSuns
p1043
sg8
F8.5
sg9
F211.5
sa(dp1044
g4
VThunder
p1045
sg6
VJazz
p1046
sg8
F-1.5
sg9
F202.5
sa(dp1047
g4
VLakers
p1048
sg6
VHornets
p1049
sg8
F-4.5
sg9
F216.5
sasS'2016-12-31'
p1050
(lp1051
(dp1052
g4
VPacers
p1053
sg6
VBulls
p1054
sg8
F4.5
sg9
F201.5
sa(dp1055
g4
VWizards
p1056
sg6
VNets
p1057
sg8
F7.5
sg9
F219.5
sa(dp1058
g4
VCeltics
p1059
sg6
VHeat
p1060
sg8
F9.5
sg9
F202.5
sa(dp1061
g4
VPelicans
p1062
sg6
VKnicks
p1063
sg8
F3.5
sg9
F215.5
sa(dp1064
g4
VHawks
p1065
sg6
VPistons
p1066
sg8
F2.5
sg9
F199.5
sa(dp1067
g4
VTimberwolves
p1068
sg6
VMilwaukee
p1069
sg8
F1.5
sg9
F208.5
sa(dp1070
g4
VRockets
p1071
sg6
VClippers
p1072
sg8
F10.5
sg9
F216.5
sa(dp1073
g4
VSpurs
p1074
sg6
VTrail Blaze
p1075
sg8
F9.5
sg9
F203.5
sa(dp1076
g4
VNuggets
p1077
sg6
V76ers
p1078
sg8
F10.5
sg9
F213.5
sa(dp1079
g4
VWarriors
p1080
sg6
VMavericks
p1081
sg8
F18.5
sg9
F214.5
sasS'2017-04-07'
p1082
(lp1083
(dp1084
g4
VMagic
p1085
sg6
VNets
p1086
sg8
F1.5
sg9
F222.5
sa(dp1087
g4
V76ers
p1088
sg6
VBulls
p1089
sg8
F-5.5
sg9
F209.0
sa(dp1090
g4
VPacers
p1091
sg6
VMilwaukee
p1092
sg8
F4.5
sg9
F203.5
sa(dp1093
g4
VKnicks
p1094
sg6
VWizards
p1095
sg8
F-6.0
sg9
F217.5
sa(dp1096
g4
VHawks
p1097
sg6
VCeltics
p1098
sg8
F-1.5
sg9
F209.5
sa(dp1099
g4
VTrail Blaze
p1100
sg6
VTimberwolves
p1101
sg8
F5.5
sg9
F217.5
sasS'2017-04-04'
p1102
(lp1103
(dp1104
g4
VTimberwolves
p1105
sg6
VTrail Blaze
p1106
sg8
F2.5
sg9
F216.5
sasS'2017-03-22'
p1107
(lp1108
(dp1109
g4
VRaptors
p1110
sg6
VBulls
p1111
sg8
F7.5
sg9
F198.5
sa(dp1112
g4
VHeat
p1113
sg6
VSuns
p1114
sg8
F11.5
sg9
F213.5
sa(dp1115
g4
VNets
p1116
sg6
VPistons
p1117
sg8
F-5.5
sg9
F215.5
sa(dp1118
g4
VPelicans
p1119
sg6
VGrizzlies
p1120
sg8
F3.5
sg9
F206.5
sa(dp1121
g4
VMavericks
p1122
sg6
VWarriors
p1123
sg8
F-4.5
sg9
F204.5
sa(dp1124
g4
VTimberwolves
p1125
sg6
VSpurs
p1126
sg8
F-4.5
sg9
F206.5
sa(dp1127
g4
VTrail Blaze
p1128
sg6
VMilwaukee
p1129
sg8
F4.5
sg9
F208.5
sa(dp1130
g4
VLakers
p1131
sg6
VClippers
p1132
sg8
F-9.5
sg9
F222.5
sasS'2017-04-02'
p1133
(lp1134
(dp1135
g4
VClippers
p1136
sg6
VLakers
p1137
sg8
F14.5
sg9
F220.5
sa(dp1138
g4
VBulls
p1139
sg6
VHawks
p1140
sg8
F5.5
sg9
F202.5
sa(dp1141
g4
VNets
p1142
sg6
VMagic
p1143
sg8
F4.5
sg9
F222.5
sa(dp1144
g4
VTimberwolves
p1145
sg6
Vsac
p1146
sg8
F12.5
sg9
F206.5
sa(dp1147
g4
VTrail Blaze
p1148
sg6
VSuns
p1149
sg8
F11.5
sg9
F223.5
sasS'2017-03-24'
p1150
(lp1151
(dp1152
g4
VHeat
p1153
sg6
VRaptors
p1154
sg8
F4.0
sg9
F199.5
sa(dp1155
g4
VNets
p1156
sg6
VSuns
p1157
sg8
F5.5
sg9
F226.5
sa(dp1158
g4
VMavericks
p1159
sg6
VClippers
p1160
sg8
F-5.5
sg9
F204.5
sa(dp1161
g4
VSpurs
p1162
sg6
VGrizzlies
p1163
sg8
F8.0
sg9
F197.5
sa(dp1164
g4
VTrail Blaze
p1165
sg6
VKnicks
p1166
sg8
F12.5
sg9
F210.5
sasS'2017-03-27'
p1167
(lp1168
(dp1169
g4
VHawks
p1170
sg6
VNets
p1171
sg8
F6.5
sg9
F216.5
sa(dp1172
g4
VHornets
p1173
sg6
VSuns
p1174
sg8
F13.5
sg9
F214.5
sa(dp1175
g4
VMilwaukee
p1176
sg6
VBulls
p1177
sg8
F6.5
sg9
F201.5
sa(dp1178
g4
VRockets
p1179
sg6
VThunder
p1180
sg8
F5.5
sg9
F228.5
sa(dp1181
g4
VClippers
p1182
sg6
Vsac
p1183
sg8
F12.5
sg9
F211.5
sa(dp1184
g4
VCeltics
p1185
sg6
VHeat
p1186
sg8
F5.5
sg9
F210.5
sa(dp1187
g4
VPacers
p1188
sg6
V76ers
p1189
sg8
F8.5
sg9
F213.5
sa(dp1190
g4
VNuggets
p1191
sg6
VPelicans
p1192
sg8
F7.5
sg9
F225.5
sa(dp1193
g4
VWarriors
p1194
sg6
VGrizzlies
p1195
sg8
F10.5
sg9
F207.5
sa(dp1196
g4
VLakers
p1197
sg6
VTrail Blaze
p1198
sg8
F-6.5
sg9
F220.5
sasS'2017-04-01'
p1199
(lp1200
(dp1201
g4
VRaptors
p1202
sg6
VPacers
p1203
sg8
F5.5
sg9
F203.5
sa(dp1204
g4
VHornets
p1205
sg6
VNuggets
p1206
sg8
F2.5
sg9
F218.5
sa(dp1207
g4
VCeltics
p1208
sg6
VMagic
p1209
sg8
F10.0
sg9
F216.5
sa(dp1210
g4
VCavaliers
p1211
sg6
V76ers
p1212
sg8
F12.5
sg9
F216.5
sa(dp1213
g4
VHeat
p1214
sg6
VKnicks
p1215
sg8
F10.5
sg9
F203.5
sa(dp1216
g4
VPelicans
p1217
sg6
Vsac
p1218
sg8
F11.5
sg9
F208.0
sa(dp1219
g4
VMilwaukee
p1220
sg6
VPistons
p1221
sg8
F6.5
sg9
F197.5
sa(dp1222
g4
VGrizzlies
p1223
sg6
VMavericks
p1224
sg8
F3.0
sg9
F191.5
sa(dp1225
g4
VThunder
p1226
sg6
VSpurs
p1227
sg8
F-3.0
sg9
F208.0
sa(dp1228
g4
VJazz
p1229
sg6
VWizards
p1230
sg8
F3.5
sg9
F208.5
sa(dp1231
g4
VWarriors
p1232
sg6
VRockets
p1233
sg8
F9.5
sg9
F232.5
sasS'2017-03-29'
p1234
(lp1235
(dp1236
g4
VPacers
p1237
sg6
VTimberwolves
p1238
sg8
F4.5
sg9
F206.5
sa(dp1239
g4
VHornets
p1240
sg6
VMilwaukee
p1241
sg8
F4.5
sg9
F198.5
sa(dp1242
g4
VNets
p1243
sg6
V76ers
p1244
sg8
F4.5
sg9
F224.5
sa(dp1245
g4
VPistons
p1246
sg6
VHeat
p1247
sg8
F-3.5
sg9
F200.5
sa(dp1248
g4
VHawks
p1249
sg6
VSuns
p1250
sg8
F9.5
sg9
F217.5
sa(dp1251
g4
VRockets
p1252
sg6
VWarriors
p1253
sg8
F1.5
sg9
F236.5
sa(dp1254
g4
VTrail Blaze
p1255
sg6
VNuggets
p1256
sg8
F1.5
sg9
F222.5
sa(dp1257
g4
VLakers
p1258
sg6
VWizards
p1259
sg8
F-9.5
sg9
F225.5
sasS'2017-03-28'
p1260
(lp1261
(dp1262
g4
VKnicks
p1263
sg6
VPistons
p1264
sg8
F-1.5
sg9
F209.5
sa(dp1265
g4
VRaptors
p1266
sg6
VMagic
p1267
sg8
F7.5
sg9
F206.5
sa(dp1268
g4
VSpurs
p1269
sg6
VCavaliers
p1270
sg8
F5.5
sg9
F212.5
sa(dp1271
g4
VMavericks
p1272
sg6
VThunder
p1273
sg8
F-2.5
sg9
F203.5
sa(dp1274
g4
VJazz
p1275
sg6
VPelicans
p1276
sg8
F5.5
sg9
F195.5
sa(dp1277
g4
Vsac
p1278
sg6
VGrizzlies
p1279
sg8
F-7.5
sg9
F198.5
sasS'2016-11-18'
p1280
(lp1281
(dp1282
g4
VWizards
p1283
sg6
VKnicks
p1284
sg8
F5.5
sg9
F207.5
sa(dp1285
g4
VHeat
p1286
sg6
VMilwaukee
p1287
sg8
F4.5
sg9
F202.5
sa(dp1288
g4
VTimberwolves
p1289
sg6
V76ers
p1290
sg8
F11.5
sg9
F211.5
sa(dp1291
g4
VRockets
p1292
sg6
VTrail Blaze
p1293
sg8
F4.5
sg9
F220.5
sa(dp1294
g4
VJazz
p1295
sg6
VBulls
p1296
sg8
F3.0
sg9
F192.5
sasS'2017-04-08'
p1297
(lp1298
(dp1299
g4
VRaptors
p1300
sg6
VHeat
p1301
sg8
F4.5
sg9
F206.5
sa(dp1302
g4
VCavaliers
p1303
sg6
VHawks
p1304
sg8
F14.5
sg9
F212.5
sa(dp1305
g4
VRockets
p1306
sg6
VPistons
p1307
sg8
F11.5
sg9
F225.5
sa(dp1308
g4
VGrizzlies
p1309
sg6
VKnicks
p1310
sg8
F12.5
sg9
F194.5
sa(dp1311
g4
VMavericks
p1312
sg6
VSpurs
p1313
sg8
F4.5
sg9
F190.5
sa(dp1314
g4
VJazz
p1315
sg6
VTimberwolves
p1316
sg8
F10.5
sg9
F197.5
sa(dp1317
g4
VNuggets
p1318
sg6
VPelicans
p1319
sg8
F6.5
sg9
F228.5
sa(dp1320
g4
VSuns
p1321
sg6
VThunder
p1322
sg8
F-9.0
sg9
F229.0
sa(dp1323
g4
VLakers
p1324
sg6
Vsac
p1325
sg8
F2.5
sg9
F216.5
sasS'2017-04-09'
p1326
(lp1327
(dp1328
g4
VNets
p1329
sg6
VBulls
p1330
sg8
F-2.5
sg9
F214.5
sa(dp1331
g4
VMagic
p1332
sg6
VPacers
p1333
sg8
F-4.5
sg9
F212.5
sa(dp1334
g4
VHornets
p1335
sg6
VCeltics
p1336
sg8
F1.0
sg9
F213.5
sa(dp1337
g4
V76ers
p1338
sg6
VMilwaukee
p1339
sg8
F-7.5
sg9
F202.5
sa(dp1340
g4
VWizards
p1341
sg6
VHeat
p1342
sg8
F3.5
sg9
F216.5
sa(dp1343
g4
VSpurs
p1344
sg6
VClippers
p1345
sg8
F1.5
sg9
F207.5
sa(dp1346
g4
VTrail Blaze
p1347
sg6
VJazz
p1348
sg8
F2.5
sg9
F202.5
sa(dp1349
g4
VWarriors
p1350
sg6
VPelicans
p1351
sg8
F16.5
sg9
F215.5
sasS'2016-11-09'
p1352
(lp1353
(dp1354
g4
VCavaliers
p1355
sg6
VHawks
p1356
sg8
F7.5
sg9
F207.5
sa(dp1357
g4
VNets
p1358
sg6
VTimberwolves
p1359
sg8
F-4.5
sg9
F209.5
sa(dp1360
g4
VGrizzlies
p1361
sg6
VNuggets
p1362
sg8
F4.0
sg9
F202.0
sa(dp1363
g4
VTrail Blaze
p1364
sg6
VSuns
p1365
sg8
F8.5
sg9
F219.0
sa(dp1366
g4
VLakers
p1367
sg6
VMavericks
p1368
sg8
F4.0
sg9
F203.5
sa(dp1369
g4
Vsac
p1370
sg6
VPelicans
p1371
sg8
F6.5
sg9
F204.5
sasS'2017-01-04'
p1372
(lp1373
(dp1374
g4
V76ers
p1375
sg6
VTimberwolves
p1376
sg8
F-4.5
sg9
F204.5
sa(dp1377
g4
VCeltics
p1378
sg6
VJazz
p1379
sg8
F5.5
sg9
F199.5
sa(dp1380
g4
VPistons
p1381
sg6
VPacers
p1382
sg8
F5.5
sg9
F204.5
sa(dp1383
g4
VMavericks
p1384
sg6
VWizards
p1385
sg8
F1.5
sg9
F200.5
sa(dp1386
g4
VSpurs
p1387
sg6
VRaptors
p1388
sg8
F5.5
sg9
F205.5
sa(dp1389
g4
VNuggets
p1390
sg6
Vsac
p1391
sg8
F3.5
sg9
F214.5
sa(dp1392
g4
VSuns
p1393
sg6
VHeat
p1394
sg8
F5.5
sg9
F211.5
sa(dp1395
g4
VLakers
p1396
sg6
VGrizzlies
p1397
sg8
F-4.5
sg9
F207.0
sasS'2017-01-07'
p1398
(lp1399
(dp1400
g4
VMagic
p1401
sg6
VRockets
p1402
sg8
F-4.5
sg9
F224.5
sa(dp1403
g4
VWizards
p1404
sg6
VTimberwolves
p1405
sg8
F4.5
sg9
F211.5
sa(dp1406
g4
VCeltics
p1407
sg6
V76ers
p1408
sg8
F11.5
sg9
F211.5
sa(dp1409
g4
VNets
p1410
sg6
VCavaliers
p1411
sg8
F-13.0
sg9
F221.0
sa(dp1412
g4
VMilwaukee
p1413
sg6
VKnicks
p1414
sg8
F4.5
sg9
F212.5
sa(dp1415
g4
VLakers
p1416
sg6
VHeat
p1417
sg8
F2.5
sg9
F214.5
sa(dp1418
g4
Vsac
p1419
sg6
VClippers
p1420
sg8
F-2.5
sg9
F212.5
sa(dp1421
g4
VWarriors
p1422
sg6
VGrizzlies
p1423
sg8
F14.5
sg9
F216.5
sasS'2017-01-06'
p1424
(lp1425
(dp1426
g4
VPacers
p1427
sg6
VNets
p1428
sg8
F10.5
sg9
F218.5
sa(dp1429
g4
VPistons
p1430
sg6
VHornets
p1431
sg8
F5.0
sg9
F208.0
sa(dp1432
g4
VRaptors
p1433
sg6
VJazz
p1434
sg8
F4.5
sg9
F196.5
sa(dp1435
g4
VPelicans
p1436
sg6
VHawks
p1437
sg8
F2.0
sg9
F208.5
sa(dp1438
g4
VRockets
p1439
sg6
VThunder
p1440
sg8
F7.5
sg9
F227.5
sa(dp1441
g4
VMavericks
p1442
sg6
VSuns
p1443
sg8
F5.5
sg9
F206.5
sa(dp1444
g4
VNuggets
p1445
sg6
VSpurs
p1446
sg8
F-7.0
sg9
F212.5
sa(dp1447
g4
VTrail Blaze
p1448
sg6
VLakers
p1449
sg8
F6.5
sg9
F219.5
sasS'2017-01-01'
p1450
(lp1451
(dp1452
g4
Vsac
p1453
sg6
VGrizzlies
p1454
sg8
F-1.5
sg9
F194.5
sa(dp1455
g4
VBulls
p1456
sg6
VMilwaukee
p1457
sg8
F3.5
sg9
F203.5
sa(dp1458
g4
VHornets
p1459
sg6
VCavaliers
p1460
sg8
F-1.0
sg9
F210.5
sa(dp1461
g4
VJazz
p1462
sg6
VSuns
p1463
sg8
F11.5
sg9
F206.5
sa(dp1464
g4
VRockets
p1465
sg6
VKnicks
p1466
sg8
F12.5
sg9
F224.5
sa(dp1467
g4
VThunder
p1468
sg6
VClippers
p1469
sg8
F9.5
sg9
F209.5
sasS'2017-03-05'
p1470
(lp1471
(dp1472
g4
V76ers
p1473
sg6
VPistons
p1474
sg8
F-5.5
sg9
F210.5
sa(dp1475
g4
VHeat
p1476
sg6
VCavaliers
p1477
sg8
F7.5
sg9
F208.5
sa(dp1478
g4
VMilwaukee
p1479
sg6
VRaptors
p1480
sg8
F1.5
sg9
F202.5
sa(dp1481
g4
VBulls
p1482
sg6
VClippers
p1483
sg8
F-3.5
sg9
F209.5
sa(dp1484
g4
VSpurs
p1485
sg6
VTimberwolves
p1486
sg8
F7.5
sg9
F204.5
sa(dp1487
g4
VRockets
p1488
sg6
VGrizzlies
p1489
sg8
F8.5
sg9
F220.5
sa(dp1490
g4
VNuggets
p1491
sg6
VHornets
p1492
sg8
F5.5
sg9
F221.5
sa(dp1493
g4
VTrail Blaze
p1494
sg6
VNets
p1495
sg8
F10.5
sg9
F222.5
sasS'2017-01-03'
p1496
(lp1497
(dp1498
g4
VMilwaukee
p1499
sg6
VThunder
p1500
sg8
F1.5
sg9
F213.5
sa(dp1501
g4
VCavaliers
p1502
sg6
VPelicans
p1503
sg8
F9.5
sg9
F216.5
sa(dp1504
g4
VNets
p1505
sg6
VJazz
p1506
sg8
F-6.5
sg9
F205.5
sa(dp1507
g4
VKnicks
p1508
sg6
VMagic
p1509
sg8
F4.5
sg9
F210.5
sa(dp1510
g4
VBulls
p1511
sg6
VHornets
p1512
sg8
F-1.5
sg9
F199.5
sa(dp1513
g4
VRockets
p1514
sg6
VWizards
p1515
sg8
F7.5
sg9
F230.5
sa(dp1516
g4
VWarriors
p1517
sg6
VNuggets
p1518
sg8
F14.5
sg9
F230.5
sa(dp1519
g4
VClippers
p1520
sg6
VSuns
p1521
sg8
F4.5
sg9
F213.5
sasS'2017-01-02'
p1522
(lp1523
(dp1524
g4
VHeat
p1525
sg6
VPistons
p1526
sg8
F-6.5
sg9
F197.5
sa(dp1527
g4
VPacers
p1528
sg6
VMagic
p1529
sg8
F5.5
sg9
F209.5
sa(dp1530
g4
VHawks
p1531
sg6
VSpurs
p1532
sg8
F-4.5
sg9
F199.5
sa(dp1533
g4
VTimberwolves
p1534
sg6
VTrail Blaze
p1535
sg8
F6.0
sg9
F208.5
sa(dp1536
g4
VLakers
p1537
sg6
VRaptors
p1538
sg8
F-7.5
sg9
F217.5
sasS'2016-11-01'
p1539
(lp1540
(dp1541
g4
VNets
p1542
sg6
VBulls
p1543
sg8
F-5.5
sg9
F208.5
sa(dp1544
g4
VHawks
p1545
sg6
Vsac
p1546
sg8
F6.5
sg9
F198.5
sa(dp1547
g4
VRaptors
p1548
sg6
VNuggets
p1549
sg8
F6.5
sg9
F204.5
sa(dp1550
g4
VClippers
p1551
sg6
VSuns
p1552
sg8
F12.5
sg9
F204.5
sasS'2016-11-03'
p1553
(lp1554
(dp1555
g4
VWizards
p1556
sg6
VRaptors
p1557
sg8
F-1.5
sg9
F205.5
sa(dp1558
g4
VHornets
p1559
sg6
V76ers
p1560
sg8
F12.5
sg9
F196.5
sa(dp1561
g4
VNets
p1562
sg6
VPistons
p1563
sg8
F-4.0
sg9
F204.0
sa(dp1564
g4
VKnicks
p1565
sg6
VRockets
p1566
sg8
F1.0
sg9
F218.5
sa(dp1567
g4
VHawks
p1568
sg6
VLakers
p1569
sg8
F12.5
sg9
F205.5
sa(dp1570
g4
VCeltics
p1571
sg6
VBulls
p1572
sg8
F3.5
sg9
F207.5
sa(dp1573
g4
VGrizzlies
p1574
sg6
VPelicans
p1575
sg8
F5.5
sg9
F206.0
sa(dp1576
g4
VJazz
p1577
sg6
VMavericks
p1578
sg8
F3.5
sg9
F186.0
sa(dp1579
g4
VSuns
p1580
sg6
VTrail Blaze
p1581
sg8
F-2.5
sg9
F216.5
sa(dp1582
g4
VClippers
p1583
sg6
VThunder
p1584
sg8
F7.5
sg9
F207.5
sasS'2016-11-02'
p1585
(lp1586
(dp1587
g4
VCavaliers
p1588
sg6
VRockets
p1589
sg8
F9.5
sg9
F215.5
sa(dp1590
g4
V76ers
p1591
sg6
VMagic
p1592
sg8
F-5.0
sg9
F198.5
sa(dp1593
g4
VPacers
p1594
sg6
VLakers
p1595
sg8
F8.5
sg9
F213.5
sa(dp1596
g4
VHeat
p1597
sg6
Vsac
p1598
sg8
F3.5
sg9
F199.5
sa(dp1599
g4
VPistons
p1600
sg6
VKnicks
p1601
sg8
F3.5
sg9
F202.5
sa(dp1602
g4
VPelicans
p1603
sg6
VMilwaukee
p1604
sg8
F3.5
sg9
F204.5
sa(dp1605
g4
VTimberwolves
p1606
sg6
VGrizzlies
p1607
sg8
F7.5
sg9
F198.5
sa(dp1608
g4
VSpurs
p1609
sg6
VJazz
p1610
sg8
F9.5
sg9
F186.5
sa(dp1611
g4
VTrail Blaze
p1612
sg6
VWarriors
p1613
sg8
F-5.5
sg9
F225.5
sasS'2016-11-05'
p1614
(lp1615
(dp1616
g4
VWizards
p1617
sg6
VHawks
p1618
sg8
F1.5
sg9
F205.5
sa(dp1619
g4
VNets
p1620
sg6
VHornets
p1621
sg8
F-6.5
sg9
F203.0
sa(dp1622
g4
VRaptors
p1623
sg6
VHeat
p1624
sg8
F7.0
sg9
F202.5
sa(dp1625
g4
VPelicans
p1626
sg6
VSuns
p1627
sg8
F2.5
sg9
F210.5
sa(dp1628
g4
VBulls
p1629
sg6
VKnicks
p1630
sg8
F7.5
sg9
F209.5
sa(dp1631
g4
VGrizzlies
p1632
sg6
VClippers
p1633
sg8
F-5.5
sg9
F197.5
sa(dp1634
g4
VMavericks
p1635
sg6
VTrail Blaze
p1636
sg8
F-2.5
sg9
F208.5
sa(dp1637
g4
VJazz
p1638
sg6
VSpurs
p1639
sg8
F-3.5
sg9
F183.5
sa(dp1640
g4
VLakers
p1641
sg6
VWarriors
p1642
sg8
F-11.5
sg9
F229.0
sasS'2016-11-04'
p1643
(lp1644
(dp1645
g4
VMagic
p1646
sg6
Vsac
p1647
sg8
F-1.5
sg9
F198.5
sa(dp1648
g4
VMilwaukee
p1649
sg6
VPacers
p1650
sg8
F-3.0
sg9
F211.0
sa(dp1651
g4
VCavaliers
p1652
sg6
VCeltics
p1653
sg8
F11.0
sg9
F207.0
sa(dp1654
g4
VTimberwolves
p1655
sg6
VNuggets
p1656
sg8
F3.5
sg9
F204.5
sa(dp1657
g4
VWarriors
p1658
sg6
VThunder
p1659
sg8
F12.0
sg9
F223.0
sasS'2016-11-07'
p1660
(lp1661
(dp1662
g4
VKnicks
p1663
sg6
VJazz
p1664
sg8
F-2.5
sg9
F193.0
sa(dp1665
g4
VGrizzlies
p1666
sg6
VTrail Blaze
p1667
sg8
F1.0
sg9
F204.0
sa(dp1668
g4
VRaptors
p1669
sg6
Vsac
p1670
sg8
F7.0
sg9
F198.0
sa(dp1671
g4
VMavericks
p1672
sg6
VMilwaukee
p1673
sg8
F2.5
sg9
F199.0
sa(dp1674
g4
VCeltics
p1675
sg6
VNuggets
p1676
sg8
F6.5
sg9
F211.5
sa(dp1677
g4
VLakers
p1678
sg6
VSuns
p1679
sg8
F4.0
sg9
F216.0
sasS'2016-11-06'
p1680
(lp1681
(dp1682
g4
VThunder
p1683
sg6
VTimberwolves
p1684
sg8
F4.5
sg9
F209.0
sa(dp1685
g4
VMagic
p1686
sg6
VWizards
p1687
sg8
F6.5
sg9
F201.5
sa(dp1688
g4
V76ers
p1689
sg6
VCavaliers
p1690
sg8
F-12.5
sg9
F207.5
sa(dp1691
g4
VPistons
p1692
sg6
VNuggets
p1693
sg8
F4.5
sg9
F200.5
sa(dp1694
g4
VPacers
p1695
sg6
VBulls
p1696
sg8
F3.5
sg9
F211.0
sa(dp1697
g4
VHawks
p1698
sg6
VRockets
p1699
sg8
F3.0
sg9
F218.0
sa(dp1700
g4
VMilwaukee
p1701
sg6
Vsac
p1702
sg8
F3.5
sg9
F202.5
sa(dp1703
g4
VSpurs
p1704
sg6
VClippers
p1705
sg8
F5.0
sg9
F196.5
sasS'2017-02-01'
p1706
(lp1707
(dp1708
g4
VWizards
p1709
sg6
VKnicks
p1710
sg8
F7.5
sg9
F215.5
sa(dp1711
g4
VRaptors
p1712
sg6
VPelicans
p1713
sg8
F8.5
sg9
F209.5
sa(dp1714
g4
VRockets
p1715
sg6
Vsac
p1716
sg8
F11.5
sg9
F225.5
sa(dp1717
g4
VSpurs
p1718
sg6
VThunder
p1719
sg8
F9.5
sg9
F208.5
sa(dp1720
g4
VTrail Blaze
p1721
sg6
VHornets
p1722
sg8
F3.5
sg9
F214.5
sa(dp1723
g4
VLakers
p1724
sg6
VNuggets
p1725
sg8
F-1.5
sg9
F226.5
sasS'2017-02-02'
p1726
(lp1727
(dp1728
g4
VMagic
p1729
sg6
VPacers
p1730
sg8
F-2.5
sg9
F213.5
sa(dp1731
g4
VCavaliers
p1732
sg6
VTimberwolves
p1733
sg8
F6.5
sg9
F216.5
sa(dp1734
g4
VCeltics
p1735
sg6
VRaptors
p1736
sg8
F5.5
sg9
F215.5
sa(dp1737
g4
VHeat
p1738
sg6
VHawks
p1739
sg8
F1.5
sg9
F202.5
sa(dp1740
g4
VNets
p1741
sg6
VKnicks
p1742
sg8
F-2.5
sg9
F224.5
sa(dp1743
g4
VPistons
p1744
sg6
VPelicans
p1745
sg8
F7.5
sg9
F211.5
sa(dp1746
g4
VMavericks
p1747
sg6
V76ers
p1748
sg8
F7.5
sg9
F205.0
sa(dp1749
g4
VJazz
p1750
sg6
VMilwaukee
p1751
sg8
F7.5
sg9
F198.5
sa(dp1752
g4
VNuggets
p1753
sg6
VGrizzlies
p1754
sg8
F-3.5
sg9
F212.5
sa(dp1755
g4
VSuns
p1756
sg6
VClippers
p1757
sg8
F-3.5
sg9
F221.5
sa(dp1758
g4
VThunder
p1759
sg6
VBulls
p1760
sg8
F2.5
sg9
F206.5
sa(dp1761
g4
VWarriors
p1762
sg6
VHornets
p1763
sg8
F16.5
sg9
F227.5
sasS'2017-02-03'
p1764
(lp1765
(dp1766
g4
VWizards
p1767
sg6
VLakers
p1768
sg8
F10.5
sg9
F219.5
sa(dp1769
g4
VRockets
p1770
sg6
VHawks
p1771
sg8
F9.5
sg9
F225.5
sa(dp1772
g4
VSpurs
p1773
sg6
V76ers
p1774
sg8
F17.5
sg9
F214.5
sa(dp1775
g4
VClippers
p1776
sg6
VWarriors
p1777
sg8
F-8.5
sg9
F229.5
sasS'2017-02-04'
p1778
(lp1779
(dp1780
g4
VMagic
p1781
sg6
VRaptors
p1782
sg8
F-5.5
sg9
F207.5
sa(dp1783
g4
VNets
p1784
sg6
VPacers
p1785
sg8
F-6.5
sg9
F218.5
sa(dp1786
g4
VPistons
p1787
sg6
VTimberwolves
p1788
sg8
F4.5
sg9
F209.5
sa(dp1789
g4
VCeltics
p1790
sg6
VLakers
p1791
sg8
F11.0
sg9
F222.5
sa(dp1792
g4
VRockets
p1793
sg6
VBulls
p1794
sg8
F9.5
sg9
F222.5
sa(dp1795
g4
VThunder
p1796
sg6
VGrizzlies
p1797
sg8
F-1.5
sg9
F204.5
sa(dp1798
g4
VNuggets
p1799
sg6
VMilwaukee
p1800
sg8
F3.0
sg9
F224.0
sa(dp1801
g4
Vsac
p1802
sg6
VSuns
p1803
sg8
F3.5
sg9
F218.5
sa(dp1804
g4
VTrail Blaze
p1805
sg6
VMavericks
p1806
sg8
F5.5
sg9
F204.5
sasS'2017-02-05'
p1807
(lp1808
(dp1809
g4
VWizards
p1810
sg6
VPelicans
p1811
sg8
F6.5
sg9
F216.5
sa(dp1812
g4
VPacers
p1813
sg6
VPistons
p1814
sg8
F3.5
sg9
F208.5
sa(dp1815
g4
VHawks
p1816
sg6
VMagic
p1817
sg8
F7.5
sg9
F210.5
sa(dp1818
g4
VHeat
p1819
sg6
V76ers
p1820
sg8
F9.5
sg9
F208.5
sa(dp1821
g4
VKnicks
p1822
sg6
VCavaliers
p1823
sg8
F-3.5
sg9
F213.5
sa(dp1824
g4
VSpurs
p1825
sg6
VNuggets
p1826
sg8
F13.5
sg9
F224.5
sa(dp1827
g4
VTimberwolves
p1828
sg6
VGrizzlies
p1829
sg8
F4.5
sg9
F203.5
sa(dp1830
g4
VJazz
p1831
sg6
VHornets
p1832
sg8
F8.5
sg9
F198.5
sa(dp1833
g4
VSuns
p1834
sg6
VMilwaukee
p1835
sg8
F-1.5
sg9
F219.5
sa(dp1836
g4
Vsac
p1837
sg6
VWarriors
p1838
sg8
F-14.5
sg9
F224.5
sasS'2017-02-06'
p1839
(lp1840
(dp1841
g4
VNets
p1842
sg6
VRaptors
p1843
sg8
F-6.5
sg9
F215.5
sa(dp1844
g4
VCeltics
p1845
sg6
VClippers
p1846
sg8
F4.5
sg9
F220.5
sa(dp1847
g4
VThunder
p1848
sg6
VTrail Blaze
p1849
sg8
F4.5
sg9
F218.5
sasS'2017-02-07'
p1850
(lp1851
(dp1852
g4
VKnicks
p1853
sg6
VLakers
p1854
sg8
F4.5
sg9
F222.5
sa(dp1855
g4
VWizards
p1856
sg6
VCavaliers
p1857
sg8
F-1.5
sg9
F219.5
sa(dp1858
g4
VPacers
p1859
sg6
VThunder
p1860
sg8
F5.5
sg9
F211.5
sa(dp1861
g4
VPistons
p1862
sg6
V76ers
p1863
sg8
F9.0
sg9
F211.5
sa(dp1864
g4
VHawks
p1865
sg6
VJazz
p1866
sg8
F1.5
sg9
F197.5
sa(dp1867
g4
VRaptors
p1868
sg6
VClippers
p1869
sg8
F6.5
sg9
F217.5
sa(dp1870
g4
VPelicans
p1871
sg6
VSuns
p1872
sg8
F5.5
sg9
F222.5
sa(dp1873
g4
VTimberwolves
p1874
sg6
VHeat
p1875
sg8
F1.5
sg9
F204.5
sa(dp1876
g4
VNuggets
p1877
sg6
VMavericks
p1878
sg8
F2.5
sg9
F214.5
sa(dp1879
g4
VGrizzlies
p1880
sg6
VSpurs
p1881
sg8
F1.5
sg9
F198.5
sa(dp1882
g4
Vsac
p1883
sg6
VBulls
p1884
sg8
F4.5
sg9
F205.5
sasS'2017-02-08'
p1885
(lp1886
(dp1887
g4
VHornets
p1888
sg6
VNets
p1889
sg8
F9.5
sg9
F219.5
sa(dp1890
g4
VRockets
p1891
sg6
VMagic
p1892
sg8
F12.0
sg9
F223.5
sa(dp1893
g4
VMavericks
p1894
sg6
VTrail Blaze
p1895
sg8
F-2.5
sg9
F206.5
sasS'2017-02-09'
p1896
(lp1897
(dp1898
g4
V76ers
p1899
sg6
VSpurs
p1900
sg8
F-11.5
sg9
F208.5
sa(dp1901
g4
VPacers
p1902
sg6
VCavaliers
p1903
sg8
F-3.5
sg9
F216.5
sa(dp1904
g4
VNets
p1905
sg6
VWizards
p1906
sg8
F-10.5
sg9
F222.5
sa(dp1907
g4
VPistons
p1908
sg6
VLakers
p1909
sg8
F6.5
sg9
F218.5
sa(dp1910
g4
VHawks
p1911
sg6
VNuggets
p1912
sg8
F3.5
sg9
F225.5
sa(dp1913
g4
VKnicks
p1914
sg6
VClippers
p1915
sg8
F-1.5
sg9
F221.5
sa(dp1916
g4
VPelicans
p1917
sg6
VJazz
p1918
sg8
F-3.5
sg9
F200.5
sa(dp1919
g4
VMilwaukee
p1920
sg6
VHeat
p1921
sg8
F4.5
sg9
F208.5
sa(dp1922
g4
VTimberwolves
p1923
sg6
VRaptors
p1924
sg8
F-2.5
sg9
F210.5
sa(dp1925
g4
VGrizzlies
p1926
sg6
VSuns
p1927
sg8
F7.5
sg9
F209.5
sa(dp1928
g4
Vsac
p1929
sg6
VCeltics
p1930
sg8
F-8.5
sg9
F212.0
sa(dp1931
g4
VWarriors
p1932
sg6
VBulls
p1933
sg8
F18.5
sg9
F222.5
sasS'2017-03-14'
p1934
(lp1935
(dp1936
g4
VHornets
p1937
sg6
VBulls
p1938
sg8
F7.5
sg9
F199.5
sa(dp1939
g4
VRaptors
p1940
sg6
VMavericks
p1941
sg8
F4.5
sg9
F194.5
sa(dp1942
g4
VSpurs
p1943
sg6
VHawks
p1944
sg8
F6.5
sg9
F203.5
sa(dp1945
g4
VTimberwolves
p1946
sg6
VWizards
p1947
sg8
F2.5
sg9
F215.5
sa(dp1948
g4
VGrizzlies
p1949
sg6
VMilwaukee
p1950
sg8
F4.5
sg9
F199.5
sa(dp1951
g4
VJazz
p1952
sg6
VClippers
p1953
sg8
F1.5
sg9
F200.5
sa(dp1954
g4
VNuggets
p1955
sg6
VLakers
p1956
sg8
F13.5
sg9
F227.5
sa(dp1957
g4
Vsac
p1958
sg6
VMagic
p1959
sg8
F-1.5
sg9
F205.5
sasS'2016-12-05'
p1960
(lp1961
(dp1962
g4
VPistons
p1963
sg6
VMagic
p1964
sg8
F6.5
sg9
F195.5
sa(dp1965
g4
VThunder
p1966
sg6
VPelicans
p1967
sg8
F5.5
sg9
F215.5
sa(dp1968
g4
VKnicks
p1969
sg6
Vsac
p1970
sg8
F1.5
sg9
F209.5
sa(dp1971
g4
VClippers
p1972
sg6
VPacers
p1973
sg8
F11.5
sg9
F206.5
sasS'2016-12-06'
p1974
(lp1975
(dp1976
g4
V76ers
p1977
sg6
VNuggets
p1978
sg8
F-4.5
sg9
F209.5
sa(dp1979
g4
VNets
p1980
sg6
VWizards
p1981
sg8
F-6.5
sg9
F217.5
sa(dp1982
g4
VHawks
p1983
sg6
VThunder
p1984
sg8
F3.5
sg9
F211.5
sa(dp1985
g4
VRaptors
p1986
sg6
VCavaliers
p1987
sg8
F2.5
sg9
F214.5
sa(dp1988
g4
VPelicans
p1989
sg6
VGrizzlies
p1990
sg8
F4.5
sg9
F196.5
sa(dp1991
g4
VMilwaukee
p1992
sg6
VSpurs
p1993
sg8
F-5.5
sg9
F202.5
sa(dp1994
g4
VBulls
p1995
sg6
VTrail Blaze
p1996
sg8
F4.0
sg9
F212.0
sa(dp1997
g4
VRockets
p1998
sg6
VCeltics
p1999
sg8
F5.5
sg9
F217.5
sa(dp2000
g4
VMavericks
p2001
sg6
VHornets
p2002
sg8
F-3.5
sg9
F193.5
sa(dp2003
g4
VLakers
p2004
sg6
VJazz
p2005
sg8
F-4.5
sg9
F197.5
sa(dp2006
g4
VWarriors
p2007
sg6
VPacers
p2008
sg8
F15.5
sg9
F222.5
sasS'2016-12-07'
p2009
(lp2010
(dp2011
g4
VWizards
p2012
sg6
VMagic
p2013
sg8
F1.5
sg9
F199.5
sa(dp2014
g4
VHeat
p2015
sg6
VKnicks
p2016
sg8
F1.0
sg9
F206.0
sa(dp2017
g4
VPistons
p2018
sg6
VBulls
p2019
sg8
F6.5
sg9
F202.5
sa(dp2020
g4
VTimberwolves
p2021
sg6
VSpurs
p2022
sg8
F-3.5
sg9
F204.5
sa(dp2023
g4
VGrizzlies
p2024
sg6
V76ers
p2025
sg8
F7.5
sg9
F194.5
sa(dp2026
g4
VJazz
p2027
sg6
VSuns
p2028
sg8
F6.5
sg9
F204.5
sasS'2017-03-10'
p2029
(lp2030
(dp2031
g4
VPistons
p2032
sg6
VCavaliers
p2033
sg8
F-4.5
sg9
F215.5
sa(dp2034
g4
VGrizzlies
p2035
sg6
VClippers
p2036
sg8
F2.5
sg9
F205.5
sa(dp2037
g4
VThunder
p2038
sg6
VSpurs
p2039
sg8
F-2.5
sg9
F208.5
sa(dp2040
g4
VTrail Blaze
p2041
sg6
V76ers
p2042
sg8
F9.5
sg9
F220.5
sa(dp2043
g4
VSuns
p2044
sg6
VLakers
p2045
sg8
F6.5
sg9
F229.5
sasS'2017-03-11'
p2046
(lp2047
(dp2048
g4
VHornets
p2049
sg6
VMagic
p2050
sg8
F8.5
sg9
F201.5
sa(dp2051
g4
VMilwaukee
p2052
sg6
VPacers
p2053
sg8
F1.5
sg9
F204.5
sa(dp2054
g4
VHawks
p2055
sg6
VRaptors
p2056
sg8
F3.5
sg9
F203.5
sa(dp2057
g4
VBulls
p2058
sg6
VRockets
p2059
sg8
F-5.5
sg9
F223.5
sa(dp2060
g4
VTimberwolves
p2061
sg6
VWarriors
p2062
sg8
F-5.5
sg9
F212.5
sa(dp2063
g4
VMavericks
p2064
sg6
VNets
p2065
sg8
F9.5
sg9
F214.5
sa(dp2066
g4
VNuggets
p2067
sg6
VCeltics
p2068
sg8
F-2.5
sg9
F221.5
sa(dp2069
g4
Vsac
p2070
sg6
VWizards
p2071
sg8
F-8.5
sg9
F214.5
sasS'2017-04-13'
p2072
(lp2073
(dp2074
S'home'
p2075
VCeltics
p2076
sS'away'
p2077
VMilwaukee
p2078
sS'line'
p2079
F13.5
sS'overunder'
p2080
F205.5
sa(dp2081
g2075
VHeat
p2082
sg2077
VWizards
p2083
sg2079
F11.5
sg2080
F206.5
sa(dp2084
g2075
VKnicks
p2085
sg2077
V76ers
p2086
sg2079
F3.5
sg2080
F209.5
sa(dp2087
g2075
VMagic
p2088
sg2077
VPistons
p2089
sg2079
F1.5
sg2080
F206.5
sa(dp2090
g2075
VPacers
p2091
sg2077
VHawks
p2092
sg2079
F14.5
sg2080
F199.5
sa(dp2093
g2075
VBulls
p2094
sg2077
VNets
p2095
sg2079
F14.5
sg2080
F212.5
sa(dp2096
g2075
VCavaliers
p2097
sg2077
VRaptors
p2098
sg2079
F-4.5
sg2080
F202.5
sa(dp2099
g2075
VRockets
p2100
sg2077
VTimberwolves
p2101
sg2079
F8.5
sg2080
F228.5
sa(dp2102
g2075
VGrizzlies
p2103
sg2077
VMavericks
p2104
sg2079
F7.5
sg2080
F189.5
sa(dp2105
g2075
VThunder
p2106
sg2077
VNuggets
p2107
sg2079
F5.5
sg2080
F224.5
sa(dp2108
g2075
VJazz
p2109
sg2077
VSpurs
p2110
sg2079
F3.5
sg2080
F192.5
sa(dp2111
g2075
VTrail Blaze
p2112
sg2077
VPelicans
p2113
sg2079
F6.5
sg2080
F201.5
sa(dp2114
g2075
VWarriors
p2115
sg2077
VLakers
p2116
sg2079
F13.5
sg2080
F220.5
sa(dp2117
g2075
VClippers
p2118
sg2077
Vsac
p2119
sg2079
F17.5
sg2080
F208.5
sasS'2016-12-03'
p2120
(lp2121
(dp2122
g4
V76ers
p2123
sg6
VMagic
p2124
sg8
F1.5
sg9
F198.5
sa(dp2125
g4
VCeltics
p2126
sg6
Vsac
p2127
sg8
F6.5
sg9
F209.5
sa(dp2128
g4
VKnicks
p2129
sg6
VTimberwolves
p2130
sg8
F-2.5
sg9
F210.5
sa(dp2131
g4
VRaptors
p2132
sg6
VLakers
p2133
sg8
F9.5
sg9
F214.5
sa(dp2134
g4
VPelicans
p2135
sg6
VClippers
p2136
sg8
F-4.5
sg9
F205.5
sa(dp2137
g4
VHawks
p2138
sg6
VPistons
p2139
sg8
F1.5
sg9
F197.5
sa(dp2140
g4
VBulls
p2141
sg6
VCavaliers
p2142
sg8
F-1.5
sg9
F209.5
sa(dp2143
g4
VSpurs
p2144
sg6
VWizards
p2145
sg8
F8.5
sg9
F204.5
sa(dp2146
g4
VNuggets
p2147
sg6
VRockets
p2148
sg8
F2.5
sg9
F221.5
sasS'2017-01-30'
p2149
(lp2150
(dp2151
g4
VHawks
p2152
sg6
VKnicks
p2153
sg8
F5.5
sg9
F209.5
sa(dp2154
g4
VCavaliers
p2155
sg6
VThunder
p2156
sg8
F7.5
sg9
F216.5
sa(dp2157
g4
VPacers
p2158
sg6
VRockets
p2159
sg8
F-3.5
sg9
F229.5
sa(dp2160
g4
VPelicans
p2161
sg6
VWizards
p2162
sg8
F-1.5
sg9
F221.5
sa(dp2163
g4
VRaptors
p2164
sg6
VMagic
p2165
sg8
F10.5
sg9
F211.5
sa(dp2166
g4
VBulls
p2167
sg6
V76ers
p2168
sg8
F6.5
sg9
F205.5
sa(dp2169
g4
VSpurs
p2170
sg6
VMavericks
p2171
sg8
F12.5
sg9
F195.5
sa(dp2172
g4
VTrail Blaze
p2173
sg6
VWarriors
p2174
sg8
F-5.5
sg9
F224.5
sasS'2017-01-31'
p2175
(lp2176
(dp2177
g4
V76ers
p2178
sg6
Vsac
p2179
sg8
F-2.5
sg9
F207.5
sa(dp2180
g4
VHeat
p2181
sg6
VNets
p2182
sg8
F7.5
sg9
F218.5
sa(dp2183
g4
VCeltics
p2184
sg6
VPistons
p2185
sg8
F5.5
sg9
F217.5
sa(dp2186
g4
VTimberwolves
p2187
sg6
VMagic
p2188
sg8
F8.0
sg9
F213.0
sa(dp2189
g4
VMavericks
p2190
sg6
VCavaliers
p2191
sg8
F-3.5
sg9
F207.5
sa(dp2192
g4
VSuns
p2193
sg6
VGrizzlies
p2194
sg8
F-4.5
sg9
F206.5
sasS'2017-03-18'
p2195
(lp2196
(dp2197
g4
V76ers
p2198
sg6
VMavericks
p2199
sg8
F-5.5
sg9
F205.0
sa(dp2200
g4
VWizards
p2201
sg6
VBulls
p2202
sg8
F7.5
sg9
F211.5
sa(dp2203
g4
VNets
p2204
sg6
VCeltics
p2205
sg8
F-8.5
sg9
F215.5
sa(dp2206
g4
VPistons
p2207
sg6
VRaptors
p2208
sg8
F3.5
sg9
F201.5
sa(dp2209
g4
VHeat
p2210
sg6
VTimberwolves
p2211
sg8
F4.5
sg9
F205.5
sa(dp2212
g4
VPelicans
p2213
sg6
VRockets
p2214
sg8
F-6.5
sg9
F226.5
sa(dp2215
g4
VSuns
p2216
sg6
VMagic
p2217
sg8
F1.5
sg9
F220.5
sa(dp2218
g4
VLakers
p2219
sg6
VMilwaukee
p2220
sg8
F-7.5
sg9
F214.5
sasS'2017-03-19'
p2221
(lp2222
(dp2223
g4
VThunder
p2224
sg6
Vsac
p2225
sg8
F12.5
sg9
F211.5
sa(dp2226
g4
VHawks
p2227
sg6
VTrail Blaze
p2228
sg8
F1.5
sg9
F215.5
sa(dp2229
g4
VHornets
p2230
sg6
VWizards
p2231
sg8
F3.5
sg9
F214.5
sa(dp2232
g4
VClippers
p2233
sg6
VCavaliers
p2234
sg8
F13.5
sg9
F213.5
sa(dp2235
g4
VBulls
p2236
sg6
VJazz
p2237
sg8
F-5.5
sg9
F191.5
sa(dp2238
g4
VGrizzlies
p2239
sg6
VSpurs
p2240
sg8
F-4.5
sg9
F195.5
sa(dp2241
g4
VNuggets
p2242
sg6
VRockets
p2243
sg8
F-1.5
sg9
F240.5
sa(dp2244
g4
VWarriors
p2245
sg6
VMilwaukee
p2246
sg8
F10.5
sg9
F214.5
sasS'2016-11-14'
p2247
(lp2248
(dp2249
g4
VCavaliers
p2250
sg6
VHornets
p2251
sg8
F7.0
sg9
F208.0
sa(dp2252
g4
VTimberwolves
p2253
sg6
VLakers
p2254
sg8
F1.0
sg9
F213.5
sa(dp2255
g4
VThunder
p2256
sg6
VMagic
p2257
sg8
F9.5
sg9
F204.0
sa(dp2258
g4
VWarriors
p2259
sg6
VSuns
p2260
sg8
F16.5
sg9
F226.5
sa(dp2261
g4
VTrail Blaze
p2262
sg6
VNuggets
p2263
sg8
F7.5
sg9
F216.5
sasS'2016-11-15'
p2264
(lp2265
(dp2266
g4
VPacers
p2267
sg6
VMagic
p2268
sg8
F8.0
sg9
F206.5
sa(dp2269
g4
VKnicks
p2270
sg6
VMavericks
p2271
sg8
F4.0
sg9
F202.0
sa(dp2272
g4
VPistons
p2273
sg6
VThunder
p2274
sg8
F-1.0
sg9
F202.5
sa(dp2275
g4
VPelicans
p2276
sg6
VCeltics
p2277
sg8
F-3.5
sg9
F212.0
sa(dp2278
g4
VRockets
p2279
sg6
V76ers
p2280
sg8
F11.5
sg9
F215.5
sa(dp2281
g4
VSpurs
p2282
sg6
VHeat
p2283
sg8
F10.5
sg9
F194.5
sa(dp2284
g4
VJazz
p2285
sg6
VGrizzlies
p2286
sg8
F6.5
sg9
F189.5
sa(dp2287
g4
VClippers
p2288
sg6
VNets
p2289
sg8
F16.5
sg9
F212.0
sasS'2016-11-30'
p2290
(lp2291
(dp2292
g4
VHornets
p2293
sg6
VPistons
p2294
sg8
F3.5
sg9
F200.5
sa(dp2295
g4
VNets
p2296
sg6
VClippers
p2297
sg8
F-10.5
sg9
F212.5
sa(dp2298
g4
VPelicans
p2299
sg6
VLakers
p2300
sg8
F5.5
sg9
F217.5
sa(dp2301
g4
VMilwaukee
p2302
sg6
VCavaliers
p2303
sg8
F-7.5
sg9
F214.5
sa(dp2304
g4
VSpurs
p2305
sg6
VMagic
p2306
sg8
F12.5
sg9
F194.5
sa(dp2307
g4
VJazz
p2308
sg6
VRockets
p2309
sg8
F-1.5
sg9
F204.5
sasS'2017-02-17'
p2310
(lp2311
(dp2312
g4
VPacers
p2313
sg6
VWizards
p2314
sg8
F-2.5
sg9
F215.5
sa(dp2315
g4
VBulls
p2316
sg6
VCeltics
p2317
sg8
F-1.5
sg9
F212.5
sasS'2017-02-16'
p2318
(lp2319
(dp2320
g4
VMagic
p2321
sg6
VSpurs
p2322
sg8
F-9.5
sg9
F206.5
sa(dp2323
g4
VCavaliers
p2324
sg6
VPacers
p2325
sg8
F5.5
sg9
F218.5
sa(dp2326
g4
VCeltics
p2327
sg6
V76ers
p2328
sg8
F9.5
sg9
F216.5
sa(dp2329
g4
VNets
p2330
sg6
VMilwaukee
p2331
sg8
F-4.5
sg9
F217.5
sa(dp2332
g4
VPistons
p2333
sg6
VMavericks
p2334
sg8
F4.5
sg9
F201.5
sa(dp2335
g4
VRaptors
p2336
sg6
VHornets
p2337
sg8
F6.5
sg9
F214.5
sa(dp2338
g4
VRockets
p2339
sg6
VHeat
p2340
sg8
F9.5
sg9
F222.5
sa(dp2341
g4
VGrizzlies
p2342
sg6
VPelicans
p2343
sg8
F7.5
sg9
F205.5
sa(dp2344
g4
VJazz
p2345
sg6
VTrail Blaze
p2346
sg8
F8.5
sg9
F205.5
sa(dp2347
g4
VNuggets
p2348
sg6
VTimberwolves
p2349
sg8
F6.5
sg9
F225.5
sa(dp2350
g4
VSuns
p2351
sg6
VLakers
p2352
sg8
F3.5
sg9
F226.5
sa(dp2353
g4
VThunder
p2354
sg6
VKnicks
p2355
sg8
F7.5
sg9
F218.0
sa(dp2356
g4
VWarriors
p2357
sg6
Vsac
p2358
sg8
F18.5
sg9
F226.5
sa(dp2359
g4
VClippers
p2360
sg6
VHawks
p2361
sg8
F3.5
sg9
F212.5
sasS'2016-12-19'
p2362
(lp2363
(dp2364
g4
VWizards
p2365
sg6
VClippers
p2366
sg8
F-5.5
sg9
F210.5
sa(dp2367
g4
VMavericks
p2368
sg6
Vsac
p2369
sg8
F-1.5
sg9
F194.5
sa(dp2370
g4
VHeat
p2371
sg6
VCeltics
p2372
sg8
F-4.5
sg9
F203.0
sa(dp2373
g4
VMagic
p2374
sg6
VRaptors
p2375
sg8
F-5.5
sg9
F212.5
sa(dp2376
g4
V76ers
p2377
sg6
VNets
p2378
sg8
F1.5
sg9
F215.5
sa(dp2379
g4
VGrizzlies
p2380
sg6
VJazz
p2381
sg8
F-1.5
sg9
F185.5
sa(dp2382
g4
VSpurs
p2383
sg6
VPelicans
p2384
sg8
F11.5
sg9
F208.5
sasS'2017-03-08'
p2385
(lp2386
(dp2387
g4
VThunder
p2388
sg6
VTrail Blaze
p2389
sg8
F6.5
sg9
F220.5
sa(dp2390
g4
VMavericks
p2391
sg6
VLakers
p2392
sg8
F8.5
sg9
F207.5
sa(dp2393
g4
VSuns
p2394
sg6
VWizards
p2395
sg8
F-5.5
sg9
F227.5
sasS'2017-02-13'
p2396
(lp2397
(dp2398
g4
VKnicks
p2399
sg6
VSpurs
p2400
sg8
F-9.5
sg9
F211.5
sa(dp2401
g4
VTimberwolves
p2402
sg6
VBulls
p2403
sg8
F7.0
sg9
F204.5
sa(dp2404
g4
VRaptors
p2405
sg6
VPistons
p2406
sg8
F6.5
sg9
F213.0
sa(dp2407
g4
Vsac
p2408
sg6
VPelicans
p2409
sg8
F3.5
sg9
F213.5
sasS'2017-02-12'
p2410
(lp2411
(dp2412
g4
VHornets
p2413
sg6
VClippers
p2414
sg8
F2.5
sg9
F215.5
sa(dp2415
g4
VPacers
p2416
sg6
VMilwaukee
p2417
sg8
F5.5
sg9
F211.5
sa(dp2418
g4
V76ers
p2419
sg6
VHeat
p2420
sg8
F-3.5
sg9
F208.5
sa(dp2421
g4
VCavaliers
p2422
sg6
VNuggets
p2423
sg8
F11.5
sg9
F230.5
sa(dp2424
g4
VThunder
p2425
sg6
VWarriors
p2426
sg8
F-8.0
sg9
F227.0
sa(dp2427
g4
VMavericks
p2428
sg6
VMagic
p2429
sg8
F6.5
sg9
F202.5
sa(dp2430
g4
VRockets
p2431
sg6
VSuns
p2432
sg8
F16.5
sg9
F234.5
sa(dp2433
g4
VJazz
p2434
sg6
VCeltics
p2435
sg8
F6.5
sg9
F204.5
sasS'2017-02-11'
p2436
(lp2437
(dp2438
g4
VNets
p2439
sg6
VHeat
p2440
sg8
F-5.5
sg9
F213.5
sa(dp2441
g4
VKnicks
p2442
sg6
VNuggets
p2443
sg8
F2.0
sg9
F228.5
sa(dp2444
g4
VPistons
p2445
sg6
VSpurs
p2446
sg8
F-4.5
sg9
F208.5
sa(dp2447
g4
VWizards
p2448
sg6
VPacers
p2449
sg8
F6.5
sg9
F215.5
sa(dp2450
g4
VMilwaukee
p2451
sg6
VLakers
p2452
sg8
F5.5
sg9
F218.5
sa(dp2453
g4
VTimberwolves
p2454
sg6
VPelicans
p2455
sg8
F5.5
sg9
F209.5
sa(dp2456
g4
VGrizzlies
p2457
sg6
VWarriors
p2458
sg8
F-7.5
sg9
F216.0
sa(dp2459
g4
Vsac
p2460
sg6
VHawks
p2461
sg8
F-1.5
sg9
F209.5
sa(dp2462
g4
VSuns
p2463
sg6
VBulls
p2464
sg8
F-2.5
sg9
F219.5
sasS'2017-02-10'
p2465
(lp2466
(dp2467
g4
VMagic
p2468
sg6
V76ers
p2469
sg8
F6.5
sg9
F208.5
sa(dp2470
g4
VHornets
p2471
sg6
VRockets
p2472
sg8
F-1.5
sg9
F223.5
sa(dp2473
g4
VThunder
p2474
sg6
VCavaliers
p2475
sg8
F1.5
sg9
F218.5
sa(dp2476
g4
VMavericks
p2477
sg6
VJazz
p2478
sg8
F-2.5
sg9
F193.5
sa(dp2479
g4
VTrail Blaze
p2480
sg6
VCeltics
p2481
sg8
F2.5
sg9
F221.5
sasS'2017-03-03'
p2482
(lp2483
(dp2484
g4
VBulls
p2485
sg6
VWarriors
p2486
sg8
F-7.5
sg9
F214.5
sa(dp2487
g4
VSuns
p2488
sg6
VHornets
p2489
sg8
F-3.5
sg9
F218.5
sa(dp2490
g4
VTrail Blaze
p2491
sg6
VThunder
p2492
sg8
F-1.5
sg9
F222.5
sasS'2016-12-12'
p2493
(lp2494
(dp2495
g4
VPistons
p2496
sg6
V76ers
p2497
sg8
F12.5
sg9
F198.5
sa(dp2498
g4
VTimberwolves
p2499
sg6
VWarriors
p2500
sg8
F-9.5
sg9
F225.5
sa(dp2501
g4
VThunder
p2502
sg6
VCeltics
p2503
sg8
F3.5
sg9
F206.5
sa(dp2504
g4
VSuns
p2505
sg6
VPelicans
p2506
sg8
F1.5
sg9
F214.5
sa(dp2507
g4
VLakers
p2508
sg6
VKnicks
p2509
sg8
F-2.5
sg9
F217.5
sasS'2016-12-11'
p2510
(lp2511
(dp2512
g4
VMagic
p2513
sg6
VNuggets
p2514
sg8
F-1.5
sg9
F205.5
sa(dp2515
g4
VWizards
p2516
sg6
VMilwaukee
p2517
sg8
F4.5
sg9
F210.5
sa(dp2518
g4
VPacers
p2519
sg6
VTrail Blaze
p2520
sg8
F-1.5
sg9
F217.5
sa(dp2521
g4
VCavaliers
p2522
sg6
VHornets
p2523
sg8
F6.5
sg9
F213.5
sa(dp2524
g4
VBulls
p2525
sg6
VHeat
p2526
sg8
F9.5
sg9
F201.5
sa(dp2527
g4
VRockets
p2528
sg6
VMavericks
p2529
sg8
F12.5
sg9
F210.5
sa(dp2530
g4
VGrizzlies
p2531
sg6
VWarriors
p2532
sg8
F-12.5
sg9
F211.5
sa(dp2533
g4
VSpurs
p2534
sg6
VNets
p2535
sg8
F15.5
sg9
F211.5
sa(dp2536
g4
VJazz
p2537
sg6
Vsac
p2538
sg8
F5.5
sg9
F196.5
sa(dp2539
g4
VClippers
p2540
sg6
VPelicans
p2541
sg8
F15.5
sg9
F199.5
sasS'2016-12-10'
p2542
(lp2543
(dp2544
g4
VHornets
p2545
sg6
VMagic
p2546
sg8
F6.5
sg9
F201.5
sa(dp2547
g4
VCeltics
p2548
sg6
VRaptors
p2549
sg8
F2.5
sg9
F206.5
sa(dp2550
g4
VCavaliers
p2551
sg6
VHeat
p2552
sg8
F11.5
sg9
F207.5
sa(dp2553
g4
VMilwaukee
p2554
sg6
VHawks
p2555
sg8
F3.5
sg9
F205.5
sa(dp2556
g4
VTimberwolves
p2557
sg6
VPistons
p2558
sg8
F-3.5
sg9
F203.0
sa(dp2559
g4
VThunder
p2560
sg6
VRockets
p2561
sg8
F-1.5
sg9
F223.5
sa(dp2562
g4
VMavericks
p2563
sg6
VPacers
p2564
sg8
F-3.0
sg9
F199.5
sa(dp2565
g4
VLakers
p2566
sg6
VSuns
p2567
sg8
F1.5
sg9
F219.5
sa(dp2568
g4
Vsac
p2569
sg6
VKnicks
p2570
sg8
F5.5
sg9
F210.5
sasS'2017-03-07'
p2571
(lp2572
(dp2573
g4
VMagic
p2574
sg6
VKnicks
p2575
sg8
F5.5
sg9
F205.5
sa(dp2576
g4
V76ers
p2577
sg6
VMilwaukee
p2578
sg8
F-6.5
sg9
F210.5
sa(dp2579
g4
VCavaliers
p2580
sg6
VHeat
p2581
sg8
F10.5
sg9
F211.5
sa(dp2582
g4
VPistons
p2583
sg6
VBulls
p2584
sg8
F6.5
sg9
F204.5
sa(dp2585
g4
VHawks
p2586
sg6
VWarriors
p2587
sg8
F-5.5
sg9
F215.5
sa(dp2588
g4
VTimberwolves
p2589
sg6
VTrail Blaze
p2590
sg8
F4.5
sg9
F214.5
sa(dp2591
g4
VGrizzlies
p2592
sg6
VNets
p2593
sg8
F10.5
sg9
F213.0
sa(dp2594
g4
VHornets
p2595
sg6
VPacers
p2596
sg8
F4.5
sg9
F204.5
sa(dp2597
g4
VSpurs
p2598
sg6
VRockets
p2599
sg8
F3.5
sg9
F222.5
sa(dp2600
g4
VJazz
p2601
sg6
VPelicans
p2602
sg8
F5.5
sg9
F196.5
sa(dp2603
g4
VNuggets
p2604
sg6
Vsac
p2605
sg8
F10.5
sg9
F215.5
sa(dp2606
g4
VClippers
p2607
sg6
VCeltics
p2608
sg8
F7.5
sg9
F219.5
sasS'2016-12-16'
p2609
(lp2610
(dp2611
g4
VPelicans
p2612
sg6
VPacers
p2613
sg8
F2.5
sg9
F208.5
sa(dp2614
g4
VMilwaukee
p2615
sg6
VBulls
p2616
sg8
F-1.5
sg9
F206.5
sa(dp2617
g4
VNuggets
p2618
sg6
VTrail Blaze
p2619
sg8
F2.5
sg9
F221.5
sa(dp2620
g4
VSuns
p2621
sg6
VSpurs
p2622
sg8
F-8.5
sg9
F211.5
sa(dp2623
g4
VWarriors
p2624
sg6
VKnicks
p2625
sg8
F17.5
sg9
F222.5
sasS'2016-12-15'
p2626
(lp2627
(dp2628
g4
VHeat
p2629
sg6
VPacers
p2630
sg8
F-1.5
sg9
F203.5
sa(dp2631
g4
VMagic
p2632
sg6
VClippers
p2633
sg8
F-8.5
sg9
F210.5
sa(dp2634
g4
V76ers
p2635
sg6
VRaptors
p2636
sg8
F-7.5
sg9
F203.5
sa(dp2637
g4
VWizards
p2638
sg6
VHornets
p2639
sg8
F-1.5
sg9
F209.5
sa(dp2640
g4
VNets
p2641
sg6
VLakers
p2642
sg8
F-1.5
sg9
F228.5
sa(dp2643
g4
VRockets
p2644
sg6
Vsac
p2645
sg8
F12.5
sg9
F213.5
sa(dp2646
g4
VGrizzlies
p2647
sg6
VCavaliers
p2648
sg8
F7.5
sg9
F189.5
sa(dp2649
g4
VMavericks
p2650
sg6
VPistons
p2651
sg8
F-5.5
sg9
F188.5
sa(dp2652
g4
VJazz
p2653
sg6
VThunder
p2654
sg8
F8.5
sg9
F200.5
sa(dp2655
g4
VSpurs
p2656
sg6
VCeltics
p2657
sg8
F5.5
sg9
F194.5
sasS'2017-03-04'
p2658
(lp2659
(dp2660
g4
VMagic
p2661
sg6
VHeat
p2662
sg8
F-5.5
sg9
F210.5
sa(dp2663
g4
V76ers
p2664
sg6
VKnicks
p2665
sg8
F-2.5
sg9
F217.5
sa(dp2666
g4
VWizards
p2667
sg6
VRaptors
p2668
sg8
F5.5
sg9
F207.5
sa(dp2669
g4
VHawks
p2670
sg6
VCavaliers
p2671
sg8
F-2.5
sg9
F213.5
sa(dp2672
g4
VMilwaukee
p2673
sg6
VClippers
p2674
sg8
F-5.5
sg9
F210.5
sa(dp2675
g4
VMavericks
p2676
sg6
VGrizzlies
p2677
sg8
F-2.5
sg9
F189.5
sa(dp2678
g4
VJazz
p2679
sg6
VNets
p2680
sg8
F12.5
sg9
F205.5
sa(dp2681
g4
VSuns
p2682
sg6
VThunder
p2683
sg8
F-5.5
sg9
F226.5
sa(dp2684
g4
VPelicans
p2685
sg6
VSpurs
p2686
sg8
F-5.5
sg9
F207.5
sa(dp2687
g4
VLakers
p2688
sg6
VCeltics
p2689
sg8
F-7.5
sg9
F219.5
sasS'2017-01-29'
p2690
(lp2691
(dp2692
g4
VHornets
p2693
sg6
Vsac
p2694
sg8
F7.5
sg9
F202.5
sa(dp2695
g4
VHeat
p2696
sg6
VPistons
p2697
sg8
F-3.0
sg9
F202.0
sa(dp2698
g4
VMilwaukee
p2699
sg6
VCeltics
p2700
sg8
F2.5
sg9
F217.5
sa(dp2701
g4
VWarriors
p2702
sg6
VClippers
p2703
sg8
F12.5
sg9
F224.5
sa(dp2704
g4
VTimberwolves
p2705
sg6
VNets
p2706
sg8
F11.5
sg9
F220.5
sa(dp2707
g4
VJazz
p2708
sg6
VGrizzlies
p2709
sg8
F7.5
sg9
F188.5
sa(dp2710
g4
VSuns
p2711
sg6
VNuggets
p2712
sg8
F3.5
sg9
F227.5
sasS'2017-01-28'
p2713
(lp2714
(dp2715
g4
VPacers
p2716
sg6
Vsac
p2717
sg8
F3.5
sg9
F212.5
sa(dp2718
g4
VCeltics
p2719
sg6
VMagic
p2720
sg8
F6.5
sg9
F212.5
sa(dp2721
g4
VKnicks
p2722
sg6
VHornets
p2723
sg8
F-1.5
sg9
F211.5
sa(dp2724
g4
VRaptors
p2725
sg6
VMilwaukee
p2726
sg8
F5.5
sg9
F212.5
sa(dp2727
g4
VCavaliers
p2728
sg6
VNets
p2729
sg8
F17.0
sg9
F226.0
sa(dp2730
g4
V76ers
p2731
sg6
VRockets
p2732
sg8
F-6.5
sg9
F221.5
sa(dp2733
g4
VPelicans
p2734
sg6
VSpurs
p2735
sg8
F-6.5
sg9
F212.0
sa(dp2736
g4
VHawks
p2737
sg6
VWizards
p2738
sg8
F3.5
sg9
F214.5
sa(dp2739
g4
VBulls
p2740
sg6
VHeat
p2741
sg8
F6.5
sg9
F204.5
sa(dp2742
g4
VTrail Blaze
p2743
sg6
VGrizzlies
p2744
sg8
F1.5
sg9
F206.5
sasS'2017-01-27'
p2745
(lp2746
(dp2747
g4
VTimberwolves
p2748
sg6
VPacers
p2749
sg8
F2.5
sg9
F213.5
sa(dp2750
g4
VThunder
p2751
sg6
VMavericks
p2752
sg8
F9.5
sg9
F196.5
sa(dp2753
g4
VNuggets
p2754
sg6
VSuns
p2755
sg8
F6.5
sg9
F232.5
sa(dp2756
g4
VJazz
p2757
sg6
VLakers
p2758
sg8
F13.5
sg9
F198.5
sasS'2017-01-26'
p2759
(lp2760
(dp2761
g4
VCavaliers
p2762
sg6
Vsac
p2763
sg8
F10.5
sg9
F215.5
sa(dp2764
g4
VCeltics
p2765
sg6
VRockets
p2766
sg8
F-4.5
sg9
F229.5
sa(dp2767
g4
VNets
p2768
sg6
VHeat
p2769
sg8
F-2.5
sg9
F217.5
sa(dp2770
g4
VPelicans
p2771
sg6
VThunder
p2772
sg8
F-1.5
sg9
F217.5
sa(dp2773
g4
VMilwaukee
p2774
sg6
V76ers
p2775
sg8
F11.0
sg9
F207.0
sa(dp2776
g4
VBulls
p2777
sg6
VHawks
p2778
sg8
F-1.5
sg9
F203.5
sa(dp2779
g4
VGrizzlies
p2780
sg6
VRaptors
p2781
sg8
F4.5
sg9
F201.5
sa(dp2782
g4
VHornets
p2783
sg6
VWarriors
p2784
sg8
F-9.5
sg9
F223.5
sa(dp2785
g4
VMavericks
p2786
sg6
VKnicks
p2787
sg8
F3.5
sg9
F200.5
sa(dp2788
g4
VTrail Blaze
p2789
sg6
VLakers
p2790
sg8
F7.5
sg9
F221.5
sasS'2017-01-25'
p2791
(lp2792
(dp2793
g4
VMagic
p2794
sg6
VBulls
p2795
sg8
F-3.5
sg9
F203.5
sa(dp2796
g4
V76ers
p2797
sg6
VClippers
p2798
sg8
F-1.5
sg9
F203.5
sa(dp2799
g4
VWizards
p2800
sg6
VCeltics
p2801
sg8
F1.5
sg9
F216.5
sa(dp2802
g4
VRaptors
p2803
sg6
VSpurs
p2804
sg8
F2.5
sg9
F201.5
sa(dp2805
g4
VNuggets
p2806
sg6
VJazz
p2807
sg8
F2.0
sg9
F211.0
sa(dp2808
g4
VSuns
p2809
sg6
VTimberwolves
p2810
sg8
F-1.5
sg9
F215.5
sasS'2017-01-24'
p2811
(lp2812
(dp2813
g4
VHornets
p2814
sg6
VWizards
p2815
sg8
F6.5
sg9
F212.5
sa(dp2816
g4
VHeat
p2817
sg6
VWarriors
p2818
sg8
F-11.5
sg9
F217.5
sa(dp2819
g4
VNets
p2820
sg6
VSpurs
p2821
sg8
F-8.0
sg9
F214.5
sa(dp2822
g4
VPistons
p2823
sg6
Vsac
p2824
sg8
F6.5
sg9
F205.5
sa(dp2825
g4
VHawks
p2826
sg6
VClippers
p2827
sg8
F7.5
sg9
F206.5
sa(dp2828
g4
VPacers
p2829
sg6
VKnicks
p2830
sg8
F5.5
sg9
F218.5
sa(dp2831
g4
VPelicans
p2832
sg6
VCavaliers
p2833
sg8
F-9.5
sg9
F215.5
sa(dp2834
g4
VMilwaukee
p2835
sg6
VRockets
p2836
sg8
F-4.5
sg9
F225.5
sa(dp2837
g4
VJazz
p2838
sg6
VThunder
p2839
sg8
F4.5
sg9
F201.5
sasS'2017-01-23'
p2840
(lp2841
(dp2842
g4
VMagic
p2843
sg6
VWarriors
p2844
sg8
F-13.5
sg9
F224.5
sa(dp2845
g4
VMavericks
p2846
sg6
VLakers
p2847
sg8
F5.5
sg9
F207.5
sa(dp2848
g4
VRaptors
p2849
sg6
VSuns
p2850
sg8
F11.5
sg9
F221.5
sa(dp2851
g4
VTimberwolves
p2852
sg6
VNuggets
p2853
sg8
F3.5
sg9
F221.0
sasS'2017-01-22'
p2854
(lp2855
(dp2856
g4
VCeltics
p2857
sg6
VTrail Blaze
p2858
sg8
F8.5
sg9
F217.5
sa(dp2859
g4
VPistons
p2860
sg6
VWizards
p2861
sg8
F1.5
sg9
F206.5
sa(dp2862
g4
VHawks
p2863
sg6
V76ers
p2864
sg8
F10.5
sg9
F197.5
sa(dp2865
g4
VHornets
p2866
sg6
VNets
p2867
sg8
F11.5
sg9
F221.5
sa(dp2868
g4
VHeat
p2869
sg6
VMilwaukee
p2870
sg8
F-1.5
sg9
F203.5
sa(dp2871
g4
VKnicks
p2872
sg6
VSuns
p2873
sg8
F5.5
sg9
F223.5
sa(dp2874
g4
VGrizzlies
p2875
sg6
VRockets
p2876
sg8
F-1.5
sg9
F215.5
sa(dp2877
g4
VCavaliers
p2878
sg6
VSpurs
p2879
sg8
F3.5
sg9
F212.5
sa(dp2880
g4
VBulls
p2881
sg6
Vsac
p2882
sg8
F6.5
sg9
F203.5
sa(dp2883
g4
VJazz
p2884
sg6
VPacers
p2885
sg8
F7.5
sg9
F199.5
sa(dp2886
g4
VNuggets
p2887
sg6
VClippers
p2888
sg8
F5.0
sg9
F222.5
sasS'2017-01-21'
p2889
(lp2890
(dp2891
g4
VMagic
p2892
sg6
VMilwaukee
p2893
sg8
F-2.5
sg9
F211.5
sa(dp2894
g4
V76ers
p2895
sg6
VTrail Blaze
p2896
sg8
F-2.5
sg9
F208.5
sa(dp2897
g4
VHornets
p2898
sg6
VRaptors
p2899
sg8
F1.5
sg9
F216.0
sa(dp2900
g4
VPelicans
p2901
sg6
VNets
p2902
sg8
F9.5
sg9
F221.5
sa(dp2903
g4
VHawks
p2904
sg6
VBulls
p2905
sg8
F3.5
sg9
F203.5
sa(dp2906
g4
VRockets
p2907
sg6
VWarriors
p2908
sg8
F-4.5
sg9
F240.5
sa(dp2909
g4
VGrizzlies
p2910
sg6
Vsac
p2911
sg8
F7.5
sg9
F199.5
sa(dp2912
g4
VMavericks
p2913
sg6
VJazz
p2914
sg8
F-4.5
sg9
F190.5
sa(dp2915
g4
VLakers
p2916
sg6
VPacers
p2917
sg8
F-3.5
sg9
F219.5
sasS'2017-01-20'
p2918
(lp2919
(dp2920
g4
VCavaliers
p2921
sg6
VSuns
p2922
sg8
F10.5
sg9
F219.5
sa(dp2923
g4
VHeat
p2924
sg6
VMavericks
p2925
sg8
F2.5
sg9
F201.5
sa(dp2926
g4
VKnicks
p2927
sg6
VWizards
p2928
sg8
F-1.5
sg9
F220.5
sa(dp2929
g4
VSpurs
p2930
sg6
VNuggets
p2931
sg8
F12.5
sg9
F216.5
sa(dp2932
g4
VClippers
p2933
sg6
VTimberwolves
p2934
sg8
F-1.5
sg9
F208.5
sasS'2016-11-23'
p2935
(lp2936
(dp2937
g4
VKnicks
p2938
sg6
VTrail Blaze
p2939
sg8
F1.5
sg9
F217.5
sa(dp2940
g4
VHawks
p2941
sg6
VPelicans
p2942
sg8
F7.5
sg9
F209.5
sa(dp2943
g4
VNuggets
p2944
sg6
VBulls
p2945
sg8
F-1.5
sg9
F207.5
sa(dp2946
g4
VLakers
p2947
sg6
VThunder
p2948
sg8
F-2.5
sg9
F220.5
sasS'2016-11-22'
p2949
(lp2950
(dp2951
g4
V76ers
p2952
sg6
VHeat
p2953
sg8
F-4.5
sg9
F201.5
sa(dp2954
g4
VWizards
p2955
sg6
VSuns
p2956
sg8
F7.5
sg9
F218.5
sa(dp2957
g4
VPacers
p2958
sg6
VWarriors
p2959
sg8
F-14.5
sg9
F218.5
sa(dp2960
g4
VHornets
p2961
sg6
VGrizzlies
p2962
sg8
F5.5
sg9
F197.5
sa(dp2963
g4
VPistons
p2964
sg6
VRockets
p2965
sg8
F-2.5
sg9
F209.5
sa(dp2966
g4
VMilwaukee
p2967
sg6
VMagic
p2968
sg8
F6.5
sg9
F200.0
sa(dp2969
g4
VTimberwolves
p2970
sg6
VCeltics
p2971
sg8
F-1.5
sg9
F206.5
sa(dp2972
g4
VSpurs
p2973
sg6
VMavericks
p2974
sg8
F13.5
sg9
F186.5
sa(dp2975
g4
VClippers
p2976
sg6
VRaptors
p2977
sg8
F8.5
sg9
F207.5
sasS'2016-11-21'
p2978
(lp2979
(dp2980
g4
VKnicks
p2981
sg6
VHawks
p2982
sg8
F-4.5
sg9
F209.0
sa(dp2983
g4
VNets
p2984
sg6
VTrail Blaze
p2985
sg8
F-4.5
sg9
F218.5
sa(dp2986
g4
VThunder
p2987
sg6
VPacers
p2988
sg8
F9.5
sg9
F209.5
sa(dp2989
g4
VNuggets
p2990
sg6
VJazz
p2991
sg8
F3.5
sg9
F197.5
sa(dp2992
g4
Vsac
p2993
sg6
VRaptors
p2994
sg8
F-3.5
sg9
F211.5
sa(dp2995
g4
VLakers
p2996
sg6
VBulls
p2997
sg8
F2.5
sg9
F209.5
sasS'2016-11-20'
p2998
(lp2999
(dp3000
g4
VRockets
p3001
sg6
VJazz
p3002
sg8
F6.5
sg9
F200.5
sa(dp3003
g4
VMagic
p3004
sg6
VMavericks
p3005
sg8
F7.5
sg9
F179.5
sa(dp3006
g4
VWizards
p3007
sg6
VHeat
p3008
sg8
F4.5
sg9
F199.5
sa(dp3009
g4
VPistons
p3010
sg6
VCeltics
p3011
sg8
F1.5
sg9
F198.5
sa(dp3012
g4
VPelicans
p3013
sg6
VHornets
p3014
sg8
F-2.0
sg9
F206.0
sa(dp3015
g4
V76ers
p3016
sg6
VSuns
p3017
sg8
F-1.5
sg9
F209.5
sa(dp3018
g4
VGrizzlies
p3019
sg6
VTimberwolves
p3020
sg8
F-1.5
sg9
F200.5
sa(dp3021
g4
VMilwaukee
p3022
sg6
VWarriors
p3023
sg8
F-9.5
sg9
F218.5
sa(dp3024
g4
VClippers
p3025
sg6
VBulls
p3026
sg8
F7.5
sg9
F202.5
sasS'2016-11-27'
p3027
(lp3028
(dp3029
g4
VWizards
p3030
sg6
VSpurs
p3031
sg8
F-5.5
sg9
F205.5
sa(dp3032
g4
VHornets
p3033
sg6
VKnicks
p3034
sg8
F5.5
sg9
F206.5
sa(dp3035
g4
VHeat
p3036
sg6
VGrizzlies
p3037
sg8
F-1.5
sg9
F185.5
sa(dp3038
g4
VThunder
p3039
sg6
VPistons
p3040
sg8
F4.5
sg9
F201.5
sa(dp3041
g4
VWarriors
p3042
sg6
VTimberwolves
p3043
sg8
F12.5
sg9
F223.5
sasS'2016-11-26'
p3044
(lp3045
(dp3046
g4
VCeltics
p3047
sg6
VSpurs
p3048
sg8
F-3.0
sg9
F200.0
sa(dp3049
g4
VMagic
p3050
sg6
VWizards
p3051
sg8
F-1.5
sg9
F198.5
sa(dp3052
g4
VKnicks
p3053
sg6
VHornets
p3054
sg8
F-1.5
sg9
F209.5
sa(dp3055
g4
V76ers
p3056
sg6
VBulls
p3057
sg8
F-9.5
sg9
F205.5
sa(dp3058
g4
VPistons
p3059
sg6
VClippers
p3060
sg8
F-6.5
sg9
F199.5
sa(dp3061
g4
VCavaliers
p3062
sg6
VMavericks
p3063
sg8
F12.5
sg9
F201.5
sa(dp3064
g4
VPacers
p3065
sg6
VNets
p3066
sg8
F5.5
sg9
F214.5
sa(dp3067
g4
VMilwaukee
p3068
sg6
VRaptors
p3069
sg8
F-3.5
sg9
F208.5
sa(dp3070
g4
VJazz
p3071
sg6
VHawks
p3072
sg8
F3.5
sg9
F195.5
sa(dp3073
g4
VGrizzlies
p3074
sg6
VHeat
p3075
sg8
F5.0
sg9
F185.0
sa(dp3076
g4
VNuggets
p3077
sg6
VThunder
p3078
sg8
F-2.5
sg9
F215.5
sa(dp3079
g4
VSuns
p3080
sg6
VTimberwolves
p3081
sg8
F-2.5
sg9
F214.0
sa(dp3082
g4
VTrail Blaze
p3083
sg6
VPelicans
p3084
sg8
F3.5
sg9
F217.5
sa(dp3085
g4
VLakers
p3086
sg6
VWarriors
p3087
sg8
F-14.5
sg9
F228.5
sa(dp3088
g4
Vsac
p3089
sg6
VRockets
p3090
sg8
F-3.5
sg9
F216.5
sasS'2016-11-24'
p3091
(lp3092
(dp3093
g4
VMagic
p3094
sg6
VSuns
p3095
sg8
F4.5
sg9
F208.5
sa(dp3096
g4
V76ers
p3097
sg6
VGrizzlies
p3098
sg8
F-6.5
sg9
F195.5
sa(dp3099
g4
VPacers
p3100
sg6
VHawks
p3101
sg8
F-1.5
sg9
F204.5
sa(dp3102
g4
VCavaliers
p3103
sg6
VTrail Blaze
p3104
sg8
F11.5
sg9
F218.5
sa(dp3105
g4
VHornets
p3106
sg6
VSpurs
p3107
sg8
F-5.5
sg9
F200.5
sa(dp3108
g4
VNets
p3109
sg6
VCeltics
p3110
sg8
F-7.5
sg9
F214.5
sa(dp3111
g4
VPistons
p3112
sg6
VHeat
p3113
sg8
F5.5
sg9
F188.5
sa(dp3114
g4
VRockets
p3115
sg6
VRaptors
p3116
sg8
F4.5
sg9
F216.5
sa(dp3117
g4
VMavericks
p3118
sg6
VClippers
p3119
sg8
F-10.5
sg9
F193.5
sa(dp3120
g4
VJazz
p3121
sg6
VNuggets
p3122
sg8
F8.5
sg9
F200.5
sa(dp3123
g4
VPelicans
p3124
sg6
VTimberwolves
p3125
sg8
F-2.5
sg9
F210.5
sa(dp3126
g4
Vsac
p3127
sg6
VThunder
p3128
sg8
F2.5
sg9
F213.5
sa(dp3129
g4
VWarriors
p3130
sg6
VLakers
p3131
sg8
F18.5
sg9
F230.5
sasS'2016-11-29'
p3132
(lp3133
(dp3134
g4
VWizards
p3135
sg6
Vsac
p3136
sg8
F5.5
sg9
F210.5
sa(dp3137
g4
VHeat
p3138
sg6
VCeltics
p3139
sg8
F-3.5
sg9
F199.5
sa(dp3140
g4
VKnicks
p3141
sg6
VThunder
p3142
sg8
F-1.5
sg9
F215.5
sa(dp3143
g4
VRaptors
p3144
sg6
V76ers
p3145
sg8
F14.5
sg9
F206.5
sa(dp3146
g4
VTimberwolves
p3147
sg6
VJazz
p3148
sg8
F-2.5
sg9
F193.5
sa(dp3149
g4
VGrizzlies
p3150
sg6
VHornets
p3151
sg8
F-1.5
sg9
F197.5
sa(dp3152
g4
VWarriors
p3153
sg6
VHawks
p3154
sg8
F14.5
sg9
F216.5
sasS'2016-11-28'
p3155
(lp3156
(dp3157
g4
V76ers
p3158
sg6
VCavaliers
p3159
sg8
F-11.0
sg9
F210.0
sa(dp3160
g4
VSuns
p3161
sg6
VNuggets
p3162
sg8
F2.5
sg9
F214.5
sa(dp3163
g4
VNets
p3164
sg6
Vsac
p3165
sg8
F-4.5
sg9
F220.5
sa(dp3166
g4
VMagic
p3167
sg6
VMilwaukee
p3168
sg8
F1.5
sg9
F197.5
sa(dp3169
g4
VPacers
p3170
sg6
VClippers
p3171
sg8
F-11.5
sg9
F205.5
sa(dp3172
g4
VMavericks
p3173
sg6
VPelicans
p3174
sg8
F-5.5
sg9
F196.5
sa(dp3175
g4
VTrail Blaze
p3176
sg6
VRockets
p3177
sg8
F-1.5
sg9
F226.5
sa(dp3178
g4
VLakers
p3179
sg6
VHawks
p3180
sg8
F-5.5
sg9
F209.5
sasS'2016-12-14'
p3181
(lp3182
(dp3183
g4
VCavaliers
p3184
sg6
VGrizzlies
p3185
sg8
F14.5
sg9
F201.0
sa(dp3186
g4
VHawks
p3187
sg6
VMagic
p3188
sg8
F8.5
sg9
F201.5
sa(dp3189
g4
VPelicans
p3190
sg6
VWarriors
p3191
sg8
F-10.5
sg9
F225.5
sa(dp3192
g4
VBulls
p3193
sg6
VTimberwolves
p3194
sg8
F6.5
sg9
F208.5
sa(dp3195
g4
VSuns
p3196
sg6
VKnicks
p3197
sg8
F-2.0
sg9
F218.0
sa(dp3198
g4
VTrail Blaze
p3199
sg6
VThunder
p3200
sg8
F2.5
sg9
F219.5
sasS'2016-12-04'
p3201
(lp3202
(dp3203
g4
VMilwaukee
p3204
sg6
VNets
p3205
sg8
F9.5
sg9
F214.5
sa(dp3206
g4
VHornets
p3207
sg6
VTimberwolves
p3208
sg8
F5.5
sg9
F211.5
sa(dp3209
g4
V76ers
p3210
sg6
VCeltics
p3211
sg8
F-9.5
sg9
F205.5
sa(dp3212
g4
VRaptors
p3213
sg6
VHawks
p3214
sg8
F8.5
sg9
F207.5
sa(dp3215
g4
VGrizzlies
p3216
sg6
VLakers
p3217
sg8
F2.5
sg9
F197.5
sa(dp3218
g4
VMavericks
p3219
sg6
VBulls
p3220
sg8
F-3.5
sg9
F190.5
sa(dp3221
g4
VJazz
p3222
sg6
VNuggets
p3223
sg8
F7.5
sg9
F200.5
sa(dp3224
g4
VTrail Blaze
p3225
sg6
VHeat
p3226
sg8
F6.5
sg9
F215.5
sa(dp3227
g4
VWarriors
p3228
sg6
VSuns
p3229
sg8
F16.5
sg9
F228.5
sasS'2017-03-15'
p3230
(lp3231
(dp3232
g4
VCavaliers
p3233
sg6
VPistons
p3234
sg8
F7.5
sg9
F214.5
sa(dp3235
g4
VNets
p3236
sg6
VThunder
p3237
sg8
F-6.5
sg9
F225.5
sa(dp3238
g4
VKnicks
p3239
sg6
VPacers
p3240
sg8
F-3.5
sg9
F209.5
sa(dp3241
g4
VPelicans
p3242
sg6
VTrail Blaze
p3243
sg8
F3.5
sg9
F214.5
sa(dp3244
g4
VWarriors
p3245
sg6
V76ers
p3246
sg8
F16.5
sg9
F220.5
sasS'2017-03-16'
p3247
(lp3248
(dp3249
g4
VWizards
p3250
sg6
VMavericks
p3251
sg8
F7.5
sg9
F207.5
sa(dp3252
g4
VPacers
p3253
sg6
VHornets
p3254
sg8
F2.5
sg9
F201.5
sa(dp3255
g4
VCeltics
p3256
sg6
VTimberwolves
p3257
sg8
F5.5
sg9
F210.5
sa(dp3258
g4
VHeat
p3259
sg6
VPelicans
p3260
sg8
F6.5
sg9
F204.5
sa(dp3261
g4
VPistons
p3262
sg6
VJazz
p3263
sg8
F-2.5
sg9
F198.5
sa(dp3264
g4
VBulls
p3265
sg6
VGrizzlies
p3266
sg8
F-2.5
sg9
F202.5
sa(dp3267
g4
VSpurs
p3268
sg6
VTrail Blaze
p3269
sg8
F11.5
sg9
F209.5
sa(dp3270
g4
VRockets
p3271
sg6
VLakers
p3272
sg8
F17.5
sg9
F234.5
sa(dp3273
g4
VSuns
p3274
sg6
Vsac
p3275
sg8
F5.5
sg9
F219.5
sa(dp3276
g4
VClippers
p3277
sg6
VMilwaukee
p3278
sg8
F7.5
sg9
F204.5
sasS'2017-03-17'
p3279
(lp3280
(dp3281
g4
VRaptors
p3282
sg6
VThunder
p3283
sg8
F1.5
sg9
F207.5
sa(dp3284
g4
VCavaliers
p3285
sg6
VJazz
p3286
sg8
F8.5
sg9
F209.5
sa(dp3287
g4
VKnicks
p3288
sg6
VNets
p3289
sg8
F4.5
sg9
F220.5
sa(dp3290
g4
VHawks
p3291
sg6
VGrizzlies
p3292
sg8
F3.5
sg9
F201.5
sa(dp3293
g4
VNuggets
p3294
sg6
VClippers
p3295
sg8
F5.5
sg9
F221.5
sa(dp3296
g4
VWarriors
p3297
sg6
VMagic
p3298
sg8
F13.5
sg9
F219.5
sasS'2017-04-11'
p3299
(lp3300
(dp3301
g4
V76ers
p3302
sg6
VPacers
p3303
sg8
F-8.5
sg9
F211.5
sa(dp3304
g4
VCeltics
p3305
sg6
VNets
p3306
sg8
F10.5
sg9
F222.5
sa(dp3307
g4
VHeat
p3308
sg6
VCavaliers
p3309
sg8
F10.5
sg9
F204.5
sa(dp3310
g4
VPistons
p3311
sg6
VWizards
p3312
sg8
F5.5
sg9
F206.5
sa(dp3313
g4
VMilwaukee
p3314
sg6
VHornets
p3315
sg8
F6.5
sg9
F197.5
sa(dp3316
g4
VBulls
p3317
sg6
VMagic
p3318
sg8
F8.0
sg9
F214.5
sa(dp3319
g4
VTrail Blaze
p3320
sg6
VSpurs
p3321
sg8
F-9.5
sg9
F193.5
sa(dp3322
g4
VWarriors
p3323
sg6
VJazz
p3324
sg8
F9.5
sg9
F206.5
sa(dp3325
g4
VClippers
p3326
sg6
VRockets
p3327
sg8
F9.5
sg9
F230.5
sasS'2017-03-06'
p3328
(lp3329
(dp3330
g4
VHawks
p3331
sg6
VPacers
p3332
sg8
F3.5
sg9
F209.5
sa(dp3333
g4
VKnicks
p3334
sg6
VWarriors
p3335
sg8
F-10.5
sg9
F219.5
sa(dp3336
g4
VWizards
p3337
sg6
VMagic
p3338
sg8
F12.5
sg9
F217.5
sa(dp3339
g4
VSuns
p3340
sg6
VCeltics
p3341
sg8
F-4.5
sg9
F228.5
sa(dp3342
g4
Vsac
p3343
sg6
VJazz
p3344
sg8
F-9.5
sg9
F190.5
sa(dp3345
g4
VMavericks
p3346
sg6
VThunder
p3347
sg8
F1.5
sg9
F207.5
sa(dp3348
g4
VLakers
p3349
sg6
VPelicans
p3350
sg8
F-6.5
sg9
F215.5
sasS'2017-04-10'
p3351
(lp3352
(dp3353
g4
VHawks
p3354
sg6
VCavaliers
p3355
sg8
F-5.5
sg9
F214.5
sa(dp3356
g4
VNuggets
p3357
sg6
VThunder
p3358
sg8
F4.5
sg9
F228.5
sa(dp3359
g4
VGrizzlies
p3360
sg6
VPistons
p3361
sg8
F4.5
sg9
F194.5
sa(dp3362
g4
Vsac
p3363
sg6
VRockets
p3364
sg8
F-9.5
sg9
F227.5
sa(dp3365
g4
VSuns
p3366
sg6
VMavericks
p3367
sg8
F1.5
sg9
F209.5
sa(dp3368
g4
VLakers
p3369
sg6
VTimberwolves
p3370
sg8
F-6.5
sg9
F221.5
sa(dp3371
S'home'
p3372
VKnicks
p3373
sS'away'
p3374
VRaptors
p3375
sS'line'
p3376
F-9.5
sS'overunder'
p3377
F196.5
sasS'2016-12-02'
p3378
(lp3379
(dp3380
g4
VHornets
p3381
sg6
VMavericks
p3382
sg8
F12.5
sg9
F194.5
sa(dp3383
g4
VNets
p3384
sg6
VMilwaukee
p3385
sg8
F-5.5
sg9
F213.5
sa(dp3386
g4
VCavaliers
p3387
sg6
VClippers
p3388
sg8
F3.5
sg9
F215.5
sa(dp3389
g4
VGrizzlies
p3390
sg6
VMagic
p3391
sg8
F-4.0
sg9
F190.5
sa(dp3392
g4
VJazz
p3393
sg6
VHeat
p3394
sg8
F7.5
sg9
F186.5
sa(dp3395
g4
VWarriors
p3396
sg6
VRockets
p3397
sg8
F11.5
sg9
F232.5
sasS'2016-12-01'
p3398
(lp3399
(dp3400
g4
VCeltics
p3401
sg6
VPistons
p3402
sg8
F6.5
sg9
F197.5
sa(dp3403
g4
VRaptors
p3404
sg6
VGrizzlies
p3405
sg8
F12.5
sg9
F193.5
sa(dp3406
g4
VBulls
p3407
sg6
VLakers
p3408
sg8
F10.5
sg9
F209.5
sa(dp3409
g4
VTimberwolves
p3410
sg6
VKnicks
p3411
sg8
F3.5
sg9
F212.5
sa(dp3412
g4
VThunder
p3413
sg6
VWizards
p3414
sg8
F5.5
sg9
F215.5
sa(dp3415
g4
VMavericks
p3416
sg6
VSpurs
p3417
sg8
F-8.5
sg9
F186.5
sa(dp3418
g4
VNuggets
p3419
sg6
VHeat
p3420
sg8
F6.5
sg9
F208.5
sa(dp3421
g4
VSuns
p3422
sg6
VHawks
p3423
sg8
F-3.5
sg9
F211.5
sa(dp3424
g4
VTrail Blaze
p3425
sg6
VPacers
p3426
sg8
F7.5
sg9
F208.5
sasS'2017-04-12'
p3427
(lp3428
(dp3429
g4
VHawks
p3430
sg6
VHornets
p3431
sg8
F8.5
sg9
F203.5
sa(dp3432
g4
VTimberwolves
p3433
sg6
VThunder
p3434
sg8
F7.5
sg9
F208.5
sa(dp3435
g4
VMavericks
p3436
sg6
VNuggets
p3437
sg8
F2.5
sg9
F213.5
sa(dp3438
g4
VLakers
p3439
sg6
VPelicans
p3440
sg8
F2.5
sg9
F218.5
sa(dp3441
g4
Vsac
p3442
sg6
VSuns
p3443
sg8
F4.5
sg9
F219.0
sasS'2016-10-26'
p3444
(lp3445
(dp3446
g4
VCavaliers
p3447
sg6
VKnicks
p3448
sg8
F9.5
sg9
F206.5
sa(dp3449
g4
VTrail Blaze
p3450
sg6
VJazz
p3451
sg8
F6.0
sg9
F192.0
sa(dp3452
g4
VWarriors
p3453
sg6
VSpurs
p3454
sg8
F8.0
sg9
F211.5
sasS'2016-10-27'
p3455
(lp3456
(dp3457
g4
VMagic
p3458
sg6
VHeat
p3459
sg8
F3.0
sg9
F199.0
sa(dp3460
g4
VPacers
p3461
sg6
VMavericks
p3462
sg8
F5.5
sg9
F204.5
sa(dp3463
g4
VCeltics
p3464
sg6
VNets
p3465
sg8
F11.5
sg9
F211.5
sa(dp3466
g4
VRaptors
p3467
sg6
VPistons
p3468
sg8
F6.5
sg9
F197.0
sa(dp3469
g4
V76ers
p3470
sg6
VThunder
p3471
sg8
F-9.0
sg9
F209.0
sa(dp3472
g4
VPelicans
p3473
sg6
VNuggets
p3474
sg8
F1.5
sg9
F205.5
sa(dp3475
g4
VMilwaukee
p3476
sg6
VHornets
p3477
sg8
F-1.5
sg9
F195.0
sa(dp3478
g4
VGrizzlies
p3479
sg6
VTimberwolves
p3480
sg8
F-1.5
sg9
F199.5
sa(dp3481
g4
VSuns
p3482
sg6
Vsac
p3483
sg8
F2.5
sg9
F211.5
sa(dp3484
g4
VLakers
p3485
sg6
VRockets
p3486
sg8
F-6.0
sg9
F224.5
sasS'2016-10-28'
p3487
(lp3488
(dp3489
g4
VHawks
p3490
sg6
VWizards
p3491
sg8
F4.0
sg9
F202.0
sa(dp3492
g4
VBulls
p3493
sg6
VCeltics
p3494
sg8
F1.5
sg9
F208.5
sa(dp3495
g4
Vsac
p3496
sg6
VSpurs
p3497
sg8
F-7.5
sg9
F203.5
sa(dp3498
g4
VTrail Blaze
p3499
sg6
VClippers
p3500
sg8
F-2.5
sg9
F210.0
sasS'2016-10-29'
p3501
(lp3502
(dp3503
g4
VRaptors
p3504
sg6
VCavaliers
p3505
sg8
F-2.5
sg9
F206.0
sa(dp3506
g4
VNets
p3507
sg6
VPacers
p3508
sg8
F-6.0
sg9
F219.0
sa(dp3509
g4
VPistons
p3510
sg6
VMagic
p3511
sg8
F4.0
sg9
F195.0
sa(dp3512
g4
VHeat
p3513
sg6
VHornets
p3514
sg8
F-1.5
sg9
F197.5
sa(dp3515
g4
VThunder
p3516
sg6
VSuns
p3517
sg8
F7.5
sg9
F209.0
sa(dp3518
g4
VMavericks
p3519
sg6
VRockets
p3520
sg8
F-2.0
sg9
F218.5
sa(dp3521
g4
VJazz
p3522
sg6
VLakers
p3523
sg8
F9.0
sg9
F201.5
sa(dp3524
g4
VPelicans
p3525
sg6
VWarriors
p3526
sg8
F-12.0
sg9
F223.5
sasS'2016-12-17'
p3527
(lp3528
(dp3529
g4
VMagic
p3530
sg6
VNets
p3531
sg8
F7.0
sg9
F217.5
sa(dp3532
g4
VWizards
p3533
sg6
VPistons
p3534
sg8
F-1.5
sg9
F205.5
sa(dp3535
g4
VCeltics
p3536
sg6
VHornets
p3537
sg8
F6.5
sg9
F207.5
sa(dp3538
g4
VRaptors
p3539
sg6
VHawks
p3540
sg8
F6.5
sg9
F215.5
sa(dp3541
g4
VHeat
p3542
sg6
VClippers
p3543
sg8
F-7.5
sg9
F205.5
sa(dp3544
g4
V76ers
p3545
sg6
VLakers
p3546
sg8
F1.5
sg9
F210.5
sa(dp3547
g4
VBulls
p3548
sg6
VMilwaukee
p3549
sg8
F5.5
sg9
F203.5
sa(dp3550
g4
VRockets
p3551
sg6
VPelicans
p3552
sg8
F12.5
sg9
F223.5
sa(dp3553
g4
VGrizzlies
p3554
sg6
Vsac
p3555
sg8
F5.5
sg9
F193.5
sa(dp3556
g4
VJazz
p3557
sg6
VMavericks
p3558
sg8
F11.5
sg9
F183.5
sasS'2016-12-08'
p3559
(lp3560
(dp3561
g4
VMagic
p3562
sg6
VCeltics
p3563
sg8
F-1.5
sg9
F194.5
sa(dp3564
g4
VHornets
p3565
sg6
VPistons
p3566
sg8
F5.5
sg9
F201.5
sa(dp3567
g4
VNets
p3568
sg6
VNuggets
p3569
sg8
F-4.5
sg9
F221.5
sa(dp3570
g4
VHawks
p3571
sg6
VHeat
p3572
sg8
F8.5
sg9
F203.5
sa(dp3573
g4
VKnicks
p3574
sg6
VCavaliers
p3575
sg8
F-7.5
sg9
F213.5
sa(dp3576
g4
VMilwaukee
p3577
sg6
VTrail Blaze
p3578
sg8
F1.5
sg9
F213.5
sa(dp3579
g4
VRockets
p3580
sg6
VLakers
p3581
sg8
F13.5
sg9
F222.5
sa(dp3582
g4
VMavericks
p3583
sg6
Vsac
p3584
sg8
F-3.5
sg9
F196.5
sa(dp3585
g4
VSuns
p3586
sg6
VPacers
p3587
sg8
F-4.5
sg9
F216.5
sa(dp3588
g4
VClippers
p3589
sg6
VWarriors
p3590
sg8
F-4.5
sg9
F222.5
sasS'2016-12-09'
p3591
(lp3592
(dp3593
g4
VWizards
p3594
sg6
VNuggets
p3595
sg8
F5.5
sg9
F216.5
sa(dp3596
g4
VRaptors
p3597
sg6
VTimberwolves
p3598
sg8
F9.5
sg9
F211.5
sa(dp3599
g4
VPelicans
p3600
sg6
V76ers
p3601
sg8
F5.5
sg9
F203.5
sa(dp3602
g4
VGrizzlies
p3603
sg6
VTrail Blaze
p3604
sg8
F-2.5
sg9
F205.5
sa(dp3605
g4
VJazz
p3606
sg6
VWarriors
p3607
sg8
F-11.5
sg9
F209.5
sa(dp3608
g4
VBulls
p3609
sg6
VSpurs
p3610
sg8
F-2.5
sg9
F199.5
sasS'2016-10-31'
p3611
(lp3612
(dp3613
g4
VClippers
p3614
sg6
VJazz
p3615
sg8
F7.0
sg9
F189.5
sa(dp3616
g4
VHeat
p3617
sg6
VSpurs
p3618
sg8
F-6.5
sg9
F193.5
sa(dp3619
g4
VPistons
p3620
sg6
VMilwaukee
p3621
sg8
F7.5
sg9
F197.5
sa(dp3622
g4
VSuns
p3623
sg6
VWarriors
p3624
sg8
F-11.5
sg9
F225.5
sa(dp3625
g4
VThunder
p3626
sg6
VLakers
p3627
sg8
F8.5
sg9
F216.0
sa(dp3628
g4
VRockets
p3629
sg6
VMavericks
p3630
sg8
F4.5
sg9
F215.5
sa(dp3631
g4
VGrizzlies
p3632
sg6
VWizards
p3633
sg8
F-3.5
sg9
F204.5
sasS'2016-10-30'
p3634
(lp3635
(dp3636
g4
V76ers
p3637
sg6
VHawks
p3638
sg8
F-8.0
sg9
F201.5
sa(dp3639
g4
VHornets
p3640
sg6
VCeltics
p3641
sg8
F-2.5
sg9
F203.5
sa(dp3642
g4
VKnicks
p3643
sg6
VGrizzlies
p3644
sg8
F2.5
sg9
F199.5
sa(dp3645
g4
VCavaliers
p3646
sg6
VMagic
p3647
sg8
F10.5
sg9
F202.5
sa(dp3648
g4
VMilwaukee
p3649
sg6
VNets
p3650
sg8
F7.5
sg9
F205.5
sa(dp3651
g4
VBulls
p3652
sg6
VPacers
p3653
sg8
F3.5
sg9
F209.5
sa(dp3654
g4
VSpurs
p3655
sg6
VPelicans
p3656
sg8
F13.5
sg9
F203.5
sa(dp3657
g4
VNuggets
p3658
sg6
VTrail Blaze
p3659
sg8
F-1.5
sg9
F212.5
sa(dp3660
g4
Vsac
p3661
sg6
VTimberwolves
p3662
sg8
F-1.5
sg9
F202.5
sasS'2017-04-06'
p3663
(lp3664
(dp3665
g4
VHornets
p3666
sg6
VHeat
p3667
sg8
F2.5
sg9
F203.5
sa(dp3668
g4
VPistons
p3669
sg6
VRaptors
p3670
sg8
F-1.5
sg9
F201.5
sa(dp3671
g4
VCeltics
p3672
sg6
VCavaliers
p3673
sg8
F3.5
sg9
F222.5
sa(dp3674
g4
VRockets
p3675
sg6
VNuggets
p3676
sg8
F7.5
sg9
F241.5
sa(dp3677
g4
VGrizzlies
p3678
sg6
VThunder
p3679
sg8
F-2.5
sg9
F198.5
sa(dp3680
g4
VSpurs
p3681
sg6
VLakers
p3682
sg8
F13.5
sg9
F208.5
sa(dp3683
g4
VSuns
p3684
sg6
VWarriors
p3685
sg8
F-8.5
sg9
F229.5
sa(dp3686
g4
VClippers
p3687
sg6
VMavericks
p3688
sg8
F11.5
sg9
F203.5
sasS'2017-03-21'
p3689
(lp3690
(dp3691
g4
VMagic
p3692
sg6
V76ers
p3693
sg8
F6.5
sg9
F218.5
sa(dp3694
g4
VPacers
p3695
sg6
VJazz
p3696
sg8
F-1.5
sg9
F193.5
sa(dp3697
g4
VHornets
p3698
sg6
VHawks
p3699
sg8
F5.5
sg9
F205.5
sa(dp3700
g4
VCeltics
p3701
sg6
VWizards
p3702
sg8
F3.5
sg9
F214.5
sa(dp3703
g4
VRockets
p3704
sg6
VNuggets
p3705
sg8
F7.5
sg9
F237.5
sa(dp3706
g4
VThunder
p3707
sg6
VWarriors
p3708
sg8
F-2.5
sg9
F221.5
sa(dp3709
g4
VClippers
p3710
sg6
VKnicks
p3711
sg8
F11.5
sg9
F214.5
sasS'2016-12-30'
p3712
(lp3713
(dp3714
g4
VHornets
p3715
sg6
VHeat
p3716
sg8
F5.5
sg9
F203.5
sa(dp3717
g4
VCavaliers
p3718
sg6
VCeltics
p3719
sg8
F6.5
sg9
F216.5
sa(dp3720
g4
VGrizzlies
p3721
sg6
VThunder
p3722
sg8
F1.5
sg9
F198.5
sa(dp3723
g4
VJazz
p3724
sg6
V76ers
p3725
sg8
F14.5
sg9
F197.5
sa(dp3726
g4
VSuns
p3727
sg6
VRaptors
p3728
sg8
F-8.5
sg9
F221.5
sa(dp3729
g4
VLakers
p3730
sg6
VMavericks
p3731
sg8
F3.5
sg9
F206.5
sasS'2017-03-20'
p3732
(lp3733
(dp3734
g4
V76ers
p3735
sg6
VCeltics
p3736
sg8
F-5.0
sg9
F202.5
sa(dp3737
g4
VPistons
p3738
sg6
VSuns
p3739
sg8
F11.5
sg9
F209.5
sa(dp3740
g4
VHeat
p3741
sg6
VTrail Blaze
p3742
sg8
F5.5
sg9
F214.5
sa(dp3743
g4
VPelicans
p3744
sg6
VTimberwolves
p3745
sg8
F3.5
sg9
F209.5
sa(dp3746
g4
VRaptors
p3747
sg6
VPacers
p3748
sg8
F2.5
sg9
F197.5
sa(dp3749
g4
VSpurs
p3750
sg6
Vsac
p3751
sg8
F14.5
sg9
F202.5
sa(dp3752
g4
VLakers
p3753
sg6
VCavaliers
p3754
sg8
F-12.5
sg9
F223.5
sa(dp3755
g3372
VNets
p3756
sg3374
VMavericks
p3757
sg3376
F-4.5
sg3377
F207.5
sasS'2017-02-15'
p3758
(lp3759
(dp3760
g4
VBulls
p3761
sg6
VRaptors
p3762
sg8
F-4.5
sg9
F210.5
sa(dp3763
g4
VTimberwolves
p3764
sg6
VCavaliers
p3765
sg8
F-3.5
sg9
F219.0
sa(dp3766
g4
VLakers
p3767
sg6
Vsac
p3768
sg8
F2.5
sg9
F219.5
sasS'2017-03-23'
p3769
(lp3770
(dp3771
g4
VMagic
p3772
sg6
VHornets
p3773
sg8
F-4.5
sg9
F207.0
sa(dp3774
g4
VCeltics
p3775
sg6
VPacers
p3776
sg8
F6.5
sg9
F206.5
sa(dp3777
g4
VWizards
p3778
sg6
VHawks
p3779
sg8
F7.5
sg9
F214.5
sa(dp3780
g4
VBulls
p3781
sg6
VPistons
p3782
sg8
F-2.5
sg9
F198.5
sa(dp3783
g4
VThunder
p3784
sg6
V76ers
p3785
sg8
F11.5
sg9
F219.5
sa(dp3786
g4
VNuggets
p3787
sg6
VCavaliers
p3788
sg8
F-2.0
sg9
F228.0
sa(dp3789
g4
VJazz
p3790
sg6
VKnicks
p3791
sg8
F11.5
sg9
F201.5
sa(dp3792
g4
Vsac
p3793
sg6
VMilwaukee
p3794
sg8
F-5.5
sg9
F202.5
sasS'2017-04-05'
p3795
(lp3796
(dp3797
g4
V76ers
p3798
sg6
VNets
p3799
sg8
F-1.5
sg9
F222.5
sa(dp3800
g4
VWizards
p3801
sg6
VHornets
p3802
sg8
F2.5
sg9
F217.5
sa(dp3803
g4
VPacers
p3804
sg6
VRaptors
p3805
sg8
F3.5
sg9
F202.5
sa(dp3806
g4
VCavaliers
p3807
sg6
VMagic
p3808
sg8
F11.5
sg9
F220.5
sa(dp3809
g4
VKnicks
p3810
sg6
VBulls
p3811
sg8
F-4.5
sg9
F204.5
sa(dp3812
g4
VPelicans
p3813
sg6
VNuggets
p3814
sg8
F3.5
sg9
F226.5
sa(dp3815
g4
VThunder
p3816
sg6
VMilwaukee
p3817
sg8
F5.5
sg9
F209.5
sa(dp3818
g4
VSpurs
p3819
sg6
VGrizzlies
p3820
sg8
F8.5
sg9
F195.5
sa(dp3821
g4
VJazz
p3822
sg6
VTrail Blaze
p3823
sg8
F5.5
sg9
F200.5
sa(dp3824
g4
Vsac
p3825
sg6
VMavericks
p3826
sg8
F-2.5
sg9
F197.0
sa(dp3827
g4
VWarriors
p3828
sg6
VTimberwolves
p3829
sg8
F14.5
sg9
F216.5
sasS'2016-12-18'
p3830
(lp3831
(dp3832
g4
VThunder
p3833
sg6
VSuns
p3834
sg8
F6.5
sg9
F215.5
sa(dp3835
g4
VPistons
p3836
sg6
VPacers
p3837
sg8
F4.5
sg9
F200.5
sa(dp3838
g4
VHawks
p3839
sg6
VHornets
p3840
sg8
F2.5
sg9
F208.5
sa(dp3841
g4
VCavaliers
p3842
sg6
VLakers
p3843
sg8
F14.5
sg9
F219.5
sa(dp3844
g4
VTimberwolves
p3845
sg6
VRockets
p3846
sg8
F-2.5
sg9
F220.5
sa(dp3847
g4
VNuggets
p3848
sg6
VKnicks
p3849
sg8
F3.5
sg9
F215.5
sa(dp3850
g4
VWarriors
p3851
sg6
VTrail Blaze
p3852
sg8
F14.5
sg9
F234.5
sasS'2017-03-25'
p3853
(lp3854
(dp3855
g4
VMagic
p3856
sg6
VPistons
p3857
sg8
F-2.5
sg9
F207.5
sa(dp3858
g4
VWizards
p3859
sg6
VNets
p3860
sg8
F10.5
sg9
F221.5
sa(dp3861
g4
VPacers
p3862
sg6
VNuggets
p3863
sg8
F1.5
sg9
F217.5
sa(dp3864
g4
VHornets
p3865
sg6
VCavaliers
p3866
sg8
F-3.5
sg9
F209.5
sa(dp3867
g4
VCeltics
p3868
sg6
VSuns
p3869
sg8
F16.5
sg9
F218.5
sa(dp3870
g4
VMilwaukee
p3871
sg6
VHawks
p3872
sg8
F6.5
sg9
F202.5
sa(dp3873
g4
VBulls
p3874
sg6
V76ers
p3875
sg8
F6.5
sg9
F211.5
sa(dp3876
g4
VRockets
p3877
sg6
VPelicans
p3878
sg8
F8.0
sg9
F232.0
sa(dp3879
g4
VLakers
p3880
sg6
VTimberwolves
p3881
sg8
F-6.5
sg9
F218.5
sa(dp3882
g4
VWarriors
p3883
sg6
Vsac
p3884
sg8
F18.5
sg9
F214.5
sasS'2017-04-03'
p3885
(lp3886
(dp3887
g4
VKnicks
p3888
sg6
VCeltics
p3889
sg8
F-7.5
sg9
F206.5
sa(dp3890
g4
VThunder
p3891
sg6
VHornets
p3892
sg8
F5.5
sg9
F211.5
sa(dp3893
g4
VLakers
p3894
sg6
VGrizzlies
p3895
sg8
F-7.5
sg9
F205.5
sa(dp3896
g4
VMilwaukee
p3897
sg6
VMavericks
p3898
sg8
F6.5
sg9
F194.5
sa(dp3899
g4
VSpurs
p3900
sg6
VJazz
p3901
sg8
F5.5
sg9
F188.5
sa(dp3902
g4
VHeat
p3903
sg6
VNuggets
p3904
sg8
F3.5
sg9
F218.5
sa(dp3905
g4
VNets
p3906
sg6
VHawks
p3907
sg8
F-3.5
sg9
F215.5
sa(dp3908
g4
VPelicans
p3909
sg6
VBulls
p3910
sg8
F8.5
sg9
F209.5
sa(dp3911
g4
VRaptors
p3912
sg6
V76ers
p3913
sg8
F11.5
sg9
F211.5
sa(dp3914
g4
VCavaliers
p3915
sg6
VPacers
p3916
sg8
F7.5
sg9
F214.5
sa(dp3917
g4
VWarriors
p3918
sg6
VWizards
p3919
sg8
F9.5
sg9
F223.5
sa(dp3920
g4
VSuns
p3921
sg6
VRockets
p3922
sg8
F-7.5
sg9
F225.5
sasS'2017-01-15'
p3923
(lp3924
(dp3925
g4
VClippers
p3926
sg6
VLakers
p3927
sg8
F11.5
sg9
F219.5
sa(dp3928
g4
VBulls
p3929
sg6
VPelicans
p3930
sg8
F3.5
sg9
F206.5
sa(dp3931
g4
VSuns
p3932
sg6
VSpurs
p3933
sg8
F-12.5
sg9
F213.5
sa(dp3934
g4
VWizards
p3935
sg6
V76ers
p3936
sg8
F9.5
sg9
F210.5
sa(dp3937
g4
VJazz
p3938
sg6
VMagic
p3939
sg8
F11.5
sg9
F194.5
sasS'2017-02-14'
p3940
(lp3941
(dp3942
g4
VPacers
p3943
sg6
VSpurs
p3944
sg8
F-5.5
sg9
F208.5
sa(dp3945
g4
VHornets
p3946
sg6
V76ers
p3947
sg8
F7.5
sg9
F213.5
sa(dp3948
g4
VHeat
p3949
sg6
VMagic
p3950
sg8
F7.5
sg9
F207.5
sa(dp3951
g4
VNets
p3952
sg6
VGrizzlies
p3953
sg8
F-8.5
sg9
F210.5
sa(dp3954
g4
VWizards
p3955
sg6
VThunder
p3956
sg8
F6.5
sg9
F218.5
sa(dp3957
g4
VMilwaukee
p3958
sg6
VPistons
p3959
sg8
F2.5
sg9
F209.5
sa(dp3960
g4
VMavericks
p3961
sg6
VCeltics
p3962
sg8
F-2.5
sg9
F212.5
sa(dp3963
g4
VJazz
p3964
sg6
VClippers
p3965
sg8
F8.5
sg9
F204.5
sa(dp3966
g4
VNuggets
p3967
sg6
VWarriors
p3968
sg8
F-11.5
sg9
F236.5
sa(dp3969
g4
VSuns
p3970
sg6
VPelicans
p3971
sg8
F2.5
sg9
F221.5
sa(dp3972
g4
VTrail Blaze
p3973
sg6
VHawks
p3974
sg8
F2.5
sg9
F216.5
sasS'2017-03-26'
p3975
(lp3976
(dp3977
g4
VClippers
p3978
sg6
VJazz
p3979
sg8
F4.5
sg9
F200.5
sa(dp3980
g4
VCavaliers
p3981
sg6
VWizards
p3982
sg8
F5.5
sg9
F222.5
sa(dp3983
g4
VMavericks
p3984
sg6
VRaptors
p3985
sg8
F1.5
sg9
F195.5
sa(dp3986
g4
VSpurs
p3987
sg6
VKnicks
p3988
sg8
F14.5
sg9
F202.5
sa(dp3989
g4
VTrail Blaze
p3990
sg6
VTimberwolves
p3991
sg8
F5.5
sg9
F212.5
sasS'2017-03-12'
p3992
(lp3993
(dp3994
g4
VThunder
p3995
sg6
VJazz
p3996
sg8
F4.5
sg9
F206.5
sa(dp3997
g4
VClippers
p3998
sg6
V76ers
p3999
sg8
F14.5
sg9
F215.0
sa(dp4000
g4
VPistons
p4001
sg6
VKnicks
p4002
sg8
F5.5
sg9
F212.5
sa(dp4003
g4
VMagic
p4004
sg6
VCavaliers
p4005
sg8
F-8.5
sg9
F214.5
sa(dp4006
g4
VHornets
p4007
sg6
VPelicans
p4008
sg8
F3.5
sg9
F204.5
sa(dp4009
g4
VHeat
p4010
sg6
VRaptors
p4011
sg8
F5.5
sg9
F202.5
sa(dp4012
g4
VMilwaukee
p4013
sg6
VTimberwolves
p4014
sg8
F3.5
sg9
F202.5
sa(dp4015
g4
VSpurs
p4016
sg6
VWarriors
p4017
sg8
F10.5
sg9
F197.5
sa(dp4018
g4
VMavericks
p4019
sg6
VSuns
p4020
sg8
F5.5
sg9
F216.5
sa(dp4021
g4
VGrizzlies
p4022
sg6
VHawks
p4023
sg8
F6.5
sg9
F207.5
sa(dp4024
g4
VTrail Blaze
p4025
sg6
VWizards
p4026
sg8
F3.5
sg9
F222.5
sa(dp4027
g4
Vsac
p4028
sg6
VNuggets
p4029
sg8
F-5.0
sg9
F217.0
sas.