(dp0
S'2017-04-13'
p1
(lp2
(dp3
S'home'
p4
VCeltics
p5
sS'away'
p6
VMilwaukee
p7
sS'line'
p8
F13.5
sS'overunder'
p9
F205.5
sa(dp10
g4
VHeat
p11
sg6
VWizards
p12
sg8
F11.5
sg9
F206.5
sa(dp13
g4
VKnicks
p14
sg6
V76ers
p15
sg8
F3.5
sg9
F209.5
sa(dp16
g4
VMagic
p17
sg6
VPistons
p18
sg8
F1.5
sg9
F206.5
sa(dp19
g4
VPacers
p20
sg6
VHawks
p21
sg8
F14.5
sg9
F199.5
sa(dp22
g4
VBulls
p23
sg6
VNets
p24
sg8
F14.5
sg9
F212.5
sa(dp25
g4
VCavaliers
p26
sg6
VRaptors
p27
sg8
F-4.5
sg9
F202.5
sa(dp28
g4
VRockets
p29
sg6
VTimberwolves
p30
sg8
F8.5
sg9
F228.5
sa(dp31
g4
VGrizzlies
p32
sg6
VMavericks
p33
sg8
F7.5
sg9
F189.5
sa(dp34
g4
VThunder
p35
sg6
VNuggets
p36
sg8
F5.5
sg9
F224.5
sa(dp37
g4
VJazz
p38
sg6
VSpurs
p39
sg8
F3.5
sg9
F192.5
sa(dp40
g4
VTrail Blaze
p41
sg6
VPelicans
p42
sg8
F6.5
sg9
F201.5
sa(dp43
g4
VWarriors
p44
sg6
VLakers
p45
sg8
F13.5
sg9
F220.5
sa(dp46
g4
VClippers
p47
sg6
Vsac
p48
sg8
F17.5
sg9
F208.5
sasS'2017-04-07'
p49
(lp50
(dp51
S'home'
p52
VMagic
p53
sS'away'
p54
VNets
p55
sS'line'
p56
F1.5
sS'overunder'
p57
F222.5
sa(dp58
g52
V76ers
p59
sg54
VBulls
p60
sg56
F-5.5
sg57
F209.0
sa(dp61
g52
VPacers
p62
sg54
VMilwaukee
p63
sg56
F4.5
sg57
F203.5
sa(dp64
g52
VKnicks
p65
sg54
VWizards
p66
sg56
F-6.0
sg57
F217.5
sa(dp67
g52
VHawks
p68
sg54
VCeltics
p69
sg56
F-1.5
sg57
F209.5
sa(dp70
g52
VTrail Blaze
p71
sg54
VTimberwolves
p72
sg56
F5.5
sg57
F217.5
sasS'2017-01-05'
p73
(lp74
(dp75
g52
VMagic
p76
sg54
VHawks
p77
sg56
F-2.5
sg57
F206.5
sa(dp78
g52
VHornets
p79
sg54
VThunder
p80
sg56
F2.5
sg57
F209.5
sa(dp81
g52
VKnicks
p82
sg54
VMilwaukee
p83
sg56
F-3.5
sg57
F212.5
sa(dp84
g52
VCavaliers
p85
sg54
VBulls
p86
sg56
F3.5
sg57
F203.5
sa(dp87
g52
Vsac
p88
sg54
VHeat
p89
sg56
F7.5
sg57
F204.0
sa(dp90
g52
VWarriors
p91
sg54
VTrail Blaze
p92
sg56
F16.5
sg57
F220.5
sa(dp93
g52
VClippers
p94
sg54
VGrizzlies
p95
sg56
F-1.5
sg57
F195.5
sasS'2017-01-04'
p96
(lp97
(dp98
g52
V76ers
p99
sg54
VTimberwolves
p100
sg56
F-4.5
sg57
F204.5
sa(dp101
g52
VCeltics
p102
sg54
VJazz
p103
sg56
F5.5
sg57
F199.5
sa(dp104
g52
VPistons
p105
sg54
VPacers
p106
sg56
F5.5
sg57
F204.5
sa(dp107
g52
VMavericks
p108
sg54
VWizards
p109
sg56
F1.5
sg57
F200.5
sa(dp110
g52
VSpurs
p111
sg54
VRaptors
p112
sg56
F5.5
sg57
F205.5
sa(dp113
g52
VNuggets
p114
sg54
Vsac
p115
sg56
F3.5
sg57
F214.5
sa(dp116
g52
VSuns
p117
sg54
VHeat
p118
sg56
F5.5
sg57
F211.5
sa(dp119
g52
VLakers
p120
sg54
VGrizzlies
p121
sg56
F-4.5
sg57
F207.0
sasS'2017-03-30'
p122
(lp123
(dp124
g52
VMagic
p125
sg54
VThunder
p126
sg56
F-4.5
sg57
F220.5
sa(dp127
g52
V76ers
p128
sg54
VHawks
p129
sg56
F-3.0
sg57
F212.0
sa(dp130
g52
VCeltics
p131
sg54
VMilwaukee
p132
sg56
F7.5
sg57
F207.5
sa(dp133
g52
VKnicks
p134
sg54
VHeat
p135
sg56
F-1.5
sg57
F204.5
sa(dp136
g52
VRaptors
p137
sg54
VHornets
p138
sg56
F5.5
sg57
F200.5
sa(dp139
g52
VPelicans
p140
sg54
VMavericks
p141
sg56
F6.5
sg57
F201.5
sa(dp142
g52
VGrizzlies
p143
sg54
VPacers
p144
sg56
F4.5
sg57
F197.5
sa(dp145
g52
VSpurs
p146
sg54
VWarriors
p147
sg56
F4.5
sg57
F206.5
sa(dp148
g52
Vsac
p149
sg54
VJazz
p150
sg56
F-7.5
sg57
F195.5
sa(dp151
g52
VClippers
p152
sg54
VWizards
p153
sg56
F6.5
sg57
F219.5
sasS'2016-12-21'
p154
(lp155
(dp156
g52
V76ers
p157
sg54
VPelicans
p158
sg56
F-3.5
sg57
F205.5
sa(dp159
g52
VHornets
p160
sg54
VLakers
p161
sg56
F8.5
sg57
F212.5
sa(dp162
g52
VHeat
p163
sg54
VMagic
p164
sg56
F4.5
sg57
F198.5
sa(dp165
g52
VKnicks
p166
sg54
VPacers
p167
sg56
F4.5
sg57
F210.5
sa(dp168
g52
VRaptors
p169
sg54
VNets
p170
sg56
F15.5
sg57
F224.5
sa(dp171
g52
VMilwaukee
p172
sg54
VCavaliers
p173
sg56
F-3.0
sg57
F212.5
sa(dp174
g52
VRockets
p175
sg54
VSpurs
p176
sg56
F1.5
sg57
F212.5
sa(dp177
g52
VGrizzlies
p178
sg54
VCeltics
p179
sg56
F-2.5
sg57
F195.5
sa(dp180
g52
Vsac
p181
sg54
VTrail Blaze
p182
sg56
F-1.5
sg57
F217.5
sa(dp183
g52
VWarriors
p184
sg54
VJazz
p185
sg56
F12.5
sg57
F210.5
sa(dp186
g52
VClippers
p187
sg54
VNuggets
p188
sg56
F7.5
sg57
F218.5
sasS'2017-02-28'
p189
(lp190
(dp191
g52
VKnicks
p192
sg54
VRaptors
p193
sg56
F-3.5
sg57
F211.5
sa(dp194
g52
V76ers
p195
sg54
VWarriors
p196
sg56
F-13.5
sg57
F228.5
sa(dp197
g52
VCavaliers
p198
sg54
VMilwaukee
p199
sg56
F9.5
sg57
F218.5
sa(dp200
g52
VCeltics
p201
sg54
VHawks
p202
sg56
F4.5
sg57
F213.5
sa(dp203
g52
VMavericks
p204
sg54
VHeat
p205
sg56
F-1.5
sg57
F195.5
sa(dp206
g52
VRockets
p207
sg54
VPacers
p208
sg56
F10.0
sg57
F230.5
sa(dp209
g52
Vsac
p210
sg54
VTimberwolves
p211
sg56
F-4.5
sg57
F209.5
sasS'2017-02-26'
p212
(lp213
(dp214
g52
Vsac
p215
sg54
VHornets
p216
sg56
F-4.5
sg57
F202.5
sa(dp217
g52
VMagic
p218
sg54
VHawks
p219
sg56
F-3.5
sg57
F209.5
sa(dp220
g52
VKnicks
p221
sg54
V76ers
p222
sg56
F6.5
sg57
F219.5
sa(dp223
g52
VHeat
p224
sg54
VPacers
p225
sg56
F4.5
sg57
F207.5
sa(dp226
g52
VCavaliers
p227
sg54
VBulls
p228
sg56
F6.5
sg57
F209.5
sa(dp229
g52
VMavericks
p230
sg54
VPelicans
p231
sg56
F-2.5
sg57
F205.5
sa(dp232
g52
VRockets
p233
sg54
VTimberwolves
p234
sg56
F12.5
sg57
F229.5
sa(dp235
g52
VWarriors
p236
sg54
VNets
p237
sg56
F20.5
sg57
F232.5
sasS'2017-02-27'
p238
(lp239
(dp240
g52
VLakers
p241
sg54
VSpurs
p242
sg56
F-12.5
sg57
F210.5
sa(dp243
g52
VMilwaukee
p244
sg54
VSuns
p245
sg56
F5.5
sg57
F221.5
sa(dp246
g52
VWizards
p247
sg54
VJazz
p248
sg56
F1.5
sg57
F201.5
sa(dp249
g52
VNuggets
p250
sg54
VGrizzlies
p251
sg56
F1.5
sg57
F212.5
sa(dp252
g52
VPistons
p253
sg54
VCeltics
p254
sg56
F-1.5
sg57
F214.5
sa(dp255
g52
VRaptors
p256
sg54
VTrail Blaze
p257
sg56
F5.5
sg57
F208.5
sa(dp258
g52
VThunder
p259
sg54
VPelicans
p260
sg56
F6.0
sg57
F218.0
sa(dp261
g52
VClippers
p262
sg54
VHornets
p263
sg56
F10.5
sg57
F212.5
sasS'2017-02-24'
p264
(lp265
(dp266
g52
VMagic
p267
sg54
VTrail Blaze
p268
sg56
F-3.5
sg57
F217.5
sa(dp269
g52
VPistons
p270
sg54
VHornets
p271
sg56
F4.5
sg57
F207.5
sa(dp272
g52
VPelicans
p273
sg54
VRockets
p274
sg56
F-2.5
sg57
F228.5
sa(dp275
g52
VCavaliers
p276
sg54
VKnicks
p277
sg56
F10.5
sg57
F222.5
sa(dp278
g52
Vsac
p279
sg54
VNuggets
p280
sg56
F-6.5
sg57
F221.5
sa(dp281
g52
VWarriors
p282
sg54
VClippers
p283
sg56
F13.5
sg57
F228.5
sasS'2017-02-25'
p284
(lp285
(dp286
g52
V76ers
p287
sg54
VWizards
p288
sg56
F-9.5
sg57
F217.5
sa(dp289
g52
VPacers
p290
sg54
VGrizzlies
p291
sg56
F-1.5
sg57
F202.5
sa(dp292
g52
VMilwaukee
p293
sg54
VJazz
p294
sg56
F-3.5
sg57
F202.5
sa(dp295
g52
VHawks
p296
sg54
VHeat
p297
sg56
F2.5
sg57
F206.5
sa(dp298
g52
VBulls
p299
sg54
VSuns
p300
sg56
F5.5
sg57
F220.5
sa(dp301
g52
VRaptors
p302
sg54
VCeltics
p303
sg56
F1.5
sg57
F213.5
sa(dp304
g52
VTimberwolves
p305
sg54
VMavericks
p306
sg56
F4.0
sg57
F204.5
sa(dp307
g52
VThunder
p308
sg54
VLakers
p309
sg56
F9.5
sg57
F221.5
sa(dp310
g52
VNuggets
p311
sg54
VNets
p312
sg56
F9.5
sg57
F234.5
sa(dp313
g52
VClippers
p314
sg54
VSpurs
p315
sg56
F-2.5
sg57
F210.5
sasS'2016-12-22'
p316
(lp317
(dp318
g52
VCavaliers
p319
sg54
VMilwaukee
p320
sg56
F7.0
sg57
F207.0
sa(dp321
g52
VPistons
p322
sg54
VGrizzlies
p323
sg56
F6.5
sg57
F188.5
sa(dp324
g52
VHawks
p325
sg54
VTimberwolves
p326
sg56
F4.5
sg57
F215.5
sa(dp327
g52
VPelicans
p328
sg54
VThunder
p329
sg56
F-1.5
sg57
F207.5
sa(dp330
g52
VBulls
p331
sg54
VWizards
p332
sg56
F4.5
sg57
F209.5
sa(dp333
g52
VJazz
p334
sg54
Vsac
p335
sg56
F7.5
sg57
F194.5
sa(dp336
g52
VSuns
p337
sg54
VRockets
p338
sg56
F-5.5
sg57
F227.5
sa(dp339
g52
VTrail Blaze
p340
sg54
VMavericks
p341
sg56
F6.5
sg57
F210.5
sasS'2016-12-23'
p342
(lp343
(dp344
g52
VPacers
p345
sg54
VCeltics
p346
sg56
F-1.5
sg57
F208.5
sa(dp347
g52
VNets
p348
sg54
VWarriors
p349
sg56
F-13.5
sg57
F231.5
sa(dp350
g52
VKnicks
p351
sg54
VMagic
p352
sg56
F4.5
sg57
F210.5
sa(dp353
g52
VHeat
p354
sg54
VLakers
p355
sg56
F5.5
sg57
F209.5
sa(dp356
g52
VClippers
p357
sg54
VSpurs
p358
sg56
F-1.5
sg57
F203.5
sasS'2016-12-20'
p359
(lp360
(dp361
g52
VPacers
p362
sg54
VWizards
p363
sg56
F5.5
sg57
F211.5
sa(dp364
g52
VBulls
p365
sg54
VPistons
p366
sg56
F2.5
sg57
F197.5
sa(dp367
g52
VTimberwolves
p368
sg54
VSuns
p369
sg56
F6.5
sg57
F215.5
sa(dp370
g52
VThunder
p371
sg54
VHawks
p372
sg56
F2.5
sg57
F211.5
sa(dp373
g52
VNuggets
p374
sg54
VMavericks
p375
sg56
F8.5
sg57
F207.5
sasS'2017-03-31'
p376
(lp377
(dp378
g52
VPistons
p379
sg54
VNets
p380
sg56
F6.5
sg57
F212.5
sa(dp381
g52
VBulls
p382
sg54
VCavaliers
p383
sg56
F-5.5
sg57
F210.5
sa(dp384
g52
VTimberwolves
p385
sg54
VLakers
p386
sg56
F10.5
sg57
F216.5
sa(dp387
g52
VSuns
p388
sg54
VClippers
p389
sg56
F-9.5
sg57
F222.5
sa(dp390
g52
VTrail Blaze
p391
sg54
VRockets
p392
sg56
F-1.5
sg57
F230.5
sasS'2016-12-26'
p393
(lp394
(dp395
g52
VKnicks
p396
sg54
VCeltics
p397
sg56
F-2.5
sg57
F209.5
sa(dp398
g52
VCavaliers
p399
sg54
VWarriors
p400
sg56
F-3.5
sg57
F217.5
sa(dp401
g52
VSpurs
p402
sg54
VBulls
p403
sg56
F8.5
sg57
F196.5
sa(dp404
g52
VThunder
p405
sg54
VTimberwolves
p406
sg56
F3.5
sg57
F212.5
sa(dp407
g52
VLakers
p408
sg54
VClippers
p409
sg56
F-3.5
sg57
F209.5
sasS'2016-12-27'
p410
(lp411
(dp412
g52
VMagic
p413
sg54
VGrizzlies
p414
sg56
F-2.5
sg57
F194.5
sa(dp415
g52
VWizards
p416
sg54
VMilwaukee
p417
sg56
F2.5
sg57
F213.5
sa(dp418
g52
VNets
p419
sg54
VHornets
p420
sg56
F-6.5
sg57
F218.5
sa(dp421
g52
VPistons
p422
sg54
VCavaliers
p423
sg56
F5.5
sg57
F202.5
sa(dp424
g52
VPelicans
p425
sg54
VMavericks
p426
sg56
F4.5
sg57
F199.5
sa(dp427
g52
VBulls
p428
sg54
VPacers
p429
sg56
F2.5
sg57
F207.5
sa(dp430
g52
VTimberwolves
p431
sg54
VHawks
p432
sg56
F-1.5
sg57
F207.5
sa(dp433
g52
VRockets
p434
sg54
VSuns
p435
sg56
F12.5
sg57
F228.5
sa(dp436
g52
VTrail Blaze
p437
sg54
VRaptors
p438
sg56
F-8.5
sg57
F213.5
sa(dp439
g52
Vsac
p440
sg54
V76ers
p441
sg56
F8.5
sg57
F205.5
sa(dp442
g52
VClippers
p443
sg54
VNuggets
p444
sg56
F-4.5
sg57
F209.5
sasS'2016-12-24'
p445
(lp446
(dp447
g52
VMagic
p448
sg54
VLakers
p449
sg56
F5.5
sg57
F211.5
sa(dp450
g52
VHornets
p451
sg54
VBulls
p452
sg56
F4.5
sg57
F205.5
sa(dp453
g52
VCeltics
p454
sg54
VThunder
p455
sg56
F5.5
sg57
F211.5
sa(dp456
g52
VPistons
p457
sg54
VWarriors
p458
sg56
F-7.5
sg57
F214.5
sa(dp459
g52
VCavaliers
p460
sg54
VNets
p461
sg56
F16.5
sg57
F224.5
sa(dp462
g52
VPelicans
p463
sg54
VHeat
p464
sg56
F4.5
sg57
F206.5
sa(dp465
g52
VMilwaukee
p466
sg54
VWizards
p467
sg56
F3.5
sg57
F212.5
sa(dp468
g52
VTimberwolves
p469
sg54
Vsac
p470
sg56
F4.5
sg57
F205.5
sa(dp471
g52
VGrizzlies
p472
sg54
VRockets
p473
sg56
F-3.5
sg57
F206.5
sa(dp474
g52
VJazz
p475
sg54
VRaptors
p476
sg56
F1.5
sg57
F199.5
sa(dp477
g52
VNuggets
p478
sg54
VHawks
p479
sg56
F5.5
sg57
F216.5
sa(dp480
g52
VSuns
p481
sg54
V76ers
p482
sg56
F5.5
sg57
F212.5
sa(dp483
g52
VTrail Blaze
p484
sg54
VSpurs
p485
sg56
F-2.5
sg57
F211.5
sa(dp486
g52
VClippers
p487
sg54
VMavericks
p488
sg56
F3.5
sg57
F194.5
sasS'2016-11-05'
p489
(lp490
(dp491
g52
VWizards
p492
sg54
VHawks
p493
sg56
F1.5
sg57
F205.5
sa(dp494
g52
VNets
p495
sg54
VHornets
p496
sg56
F-6.5
sg57
F203.0
sa(dp497
g52
VRaptors
p498
sg54
VHeat
p499
sg56
F7.0
sg57
F202.5
sa(dp500
g52
VPelicans
p501
sg54
VSuns
p502
sg56
F2.5
sg57
F210.5
sa(dp503
g52
VBulls
p504
sg54
VKnicks
p505
sg56
F7.5
sg57
F209.5
sa(dp506
g52
VGrizzlies
p507
sg54
VClippers
p508
sg56
F-5.5
sg57
F197.5
sa(dp509
g52
VMavericks
p510
sg54
VTrail Blaze
p511
sg56
F-2.5
sg57
F208.5
sa(dp512
g52
VJazz
p513
sg54
VSpurs
p514
sg56
F-3.5
sg57
F183.5
sa(dp515
g52
VLakers
p516
sg54
VWarriors
p517
sg56
F-11.5
sg57
F229.0
sasS'2016-12-28'
p518
(lp519
(dp520
g52
VCeltics
p521
sg54
VGrizzlies
p522
sg56
F7.5
sg57
F198.5
sa(dp523
g52
VHeat
p524
sg54
VThunder
p525
sg56
F-4.5
sg57
F202.5
sa(dp526
g52
VMavericks
p527
sg54
VRockets
p528
sg56
F-5.5
sg57
F208.5
sa(dp529
g52
VLakers
p530
sg54
VJazz
p531
sg56
F-6.5
sg57
F205.5
sasS'2016-12-29'
p532
(lp533
(dp534
g52
VMagic
p535
sg54
VHornets
p536
sg56
F-4.5
sg57
F205.5
sa(dp537
g52
VWizards
p538
sg54
VPacers
p539
sg56
F4.5
sg57
F214.5
sa(dp540
g52
VPistons
p541
sg54
VMilwaukee
p542
sg56
F3.5
sg57
F204.5
sa(dp543
g52
VHawks
p544
sg54
VKnicks
p545
sg56
F5.5
sg57
F211.5
sa(dp546
g52
VPelicans
p547
sg54
VClippers
p548
sg56
F-1.5
sg57
F208.5
sa(dp549
g52
VBulls
p550
sg54
VNets
p551
sg56
F9.5
sg57
F214.5
sa(dp552
g52
VSpurs
p553
sg54
VSuns
p554
sg56
F10.5
sg57
F214.5
sa(dp555
g52
VNuggets
p556
sg54
VTimberwolves
p557
sg56
F3.5
sg57
F217.5
sa(dp558
g52
VTrail Blaze
p559
sg54
Vsac
p560
sg56
F2.5
sg57
F206.5
sa(dp561
g52
VWarriors
p562
sg54
VRaptors
p563
sg56
F10.5
sg57
F228.5
sasS'2016-12-19'
p564
(lp565
(dp566
g52
VWizards
p567
sg54
VClippers
p568
sg56
F-5.5
sg57
F210.5
sa(dp569
g52
VMavericks
p570
sg54
Vsac
p571
sg56
F-1.5
sg57
F194.5
sa(dp572
g52
VHeat
p573
sg54
VCeltics
p574
sg56
F-4.5
sg57
F203.0
sa(dp575
g52
VMagic
p576
sg54
VRaptors
p577
sg56
F-5.5
sg57
F212.5
sa(dp578
g52
V76ers
p579
sg54
VNets
p580
sg56
F1.5
sg57
F215.5
sa(dp581
g52
VGrizzlies
p582
sg54
VJazz
p583
sg56
F-1.5
sg57
F185.5
sa(dp584
g52
VSpurs
p585
sg54
VPelicans
p586
sg56
F11.5
sg57
F208.5
sasS'2016-11-04'
p587
(lp588
(dp589
g52
VMagic
p590
sg54
Vsac
p591
sg56
F-1.5
sg57
F198.5
sa(dp592
g52
VMilwaukee
p593
sg54
VPacers
p594
sg56
F-3.0
sg57
F211.0
sa(dp595
g52
VCavaliers
p596
sg54
VCeltics
p597
sg56
F11.0
sg57
F207.0
sa(dp598
g52
VTimberwolves
p599
sg54
VNuggets
p600
sg56
F3.5
sg57
F204.5
sa(dp601
g52
VWarriors
p602
sg54
VThunder
p603
sg56
F12.0
sg57
F223.0
sasS'2017-01-16'
p604
(lp605
(dp606
g52
VMavericks
p607
sg54
VTimberwolves
p608
sg56
F1.5
sg57
F196.5
sa(dp609
g52
VHawks
p610
sg54
VMilwaukee
p611
sg56
F4.5
sg57
F206.5
sa(dp612
g52
VRaptors
p613
sg54
VKnicks
p614
sg56
F9.5
sg57
F219.5
sa(dp615
g52
VNets
p616
sg54
VRockets
p617
sg56
F-14.5
sg57
F235.5
sa(dp618
g52
VGrizzlies
p619
sg54
VBulls
p620
sg56
F8.5
sg57
F192.5
sa(dp621
g52
Vsac
p622
sg54
VThunder
p623
sg56
F-1.5
sg57
F213.5
sa(dp624
g52
VLakers
p625
sg54
VPistons
p626
sg56
F-2.5
sg57
F212.5
sasS'2017-01-17'
p627
(lp628
(dp629
g52
VKnicks
p630
sg54
VHawks
p631
sg56
F-2.5
sg57
F209.5
sa(dp632
g52
VWizards
p633
sg54
VTrail Blaze
p634
sg56
F3.5
sg57
F219.5
sa(dp635
g52
VMilwaukee
p636
sg54
V76ers
p637
sg56
F8.5
sg57
F207.5
sa(dp638
g52
VPacers
p639
sg54
VPelicans
p640
sg56
F4.5
sg57
F214.5
sa(dp641
g52
VNuggets
p642
sg54
VMagic
p643
sg56
F5.5
sg57
F223.5
sa(dp644
g52
VCeltics
p645
sg54
VHornets
p646
sg56
F5.5
sg57
F217.5
sa(dp647
g52
VWarriors
p648
sg54
VCavaliers
p649
sg56
F8.5
sg57
F228.5
sa(dp650
g52
VSuns
p651
sg54
VJazz
p652
sg56
F-6.5
sg57
F204.5
sa(dp653
g52
VClippers
p654
sg54
VThunder
p655
sg56
F8.5
sg57
F218.5
sasS'2016-11-18'
p656
(lp657
(dp658
g52
VWizards
p659
sg54
VKnicks
p660
sg56
F5.5
sg57
F207.5
sa(dp661
g52
VHeat
p662
sg54
VMilwaukee
p663
sg56
F4.5
sg57
F202.5
sa(dp664
g52
VTimberwolves
p665
sg54
V76ers
p666
sg56
F11.5
sg57
F211.5
sa(dp667
g52
VRockets
p668
sg54
VTrail Blaze
p669
sg56
F4.5
sg57
F220.5
sa(dp670
g52
VJazz
p671
sg54
VBulls
p672
sg56
F3.0
sg57
F192.5
sasS'2017-03-08'
p673
(lp674
(dp675
g52
VThunder
p676
sg54
VTrail Blaze
p677
sg56
F6.5
sg57
F220.5
sa(dp678
g52
VMavericks
p679
sg54
VLakers
p680
sg56
F8.5
sg57
F207.5
sa(dp681
g52
VSuns
p682
sg54
VWizards
p683
sg56
F-5.5
sg57
F227.5
sasS'2017-01-12'
p684
(lp685
(dp686
g52
V76ers
p687
sg54
VKnicks
p688
sg56
F-2.0
sg57
F210.0
sa(dp689
g52
VCeltics
p690
sg54
VWizards
p691
sg56
F5.5
sg57
F217.5
sa(dp692
g52
VTimberwolves
p693
sg54
VRockets
p694
sg56
F-2.5
sg57
F218.5
sa(dp695
g52
VThunder
p696
sg54
VGrizzlies
p697
sg56
F4.5
sg57
F204.5
sa(dp698
g52
VTrail Blaze
p699
sg54
VCavaliers
p700
sg56
F-5.5
sg57
F219.5
sa(dp701
g52
VClippers
p702
sg54
VMagic
p703
sg56
F9.5
sg57
F206.5
sasS'2017-01-13'
p704
(lp705
(dp706
g52
VNuggets
p707
sg54
VPacers
p708
sg56
F-4.5
sg57
F226.5
sa(dp709
g52
VNets
p710
sg54
VPelicans
p711
sg56
F2.5
sg57
F213.5
sa(dp712
g52
VKnicks
p713
sg54
VBulls
p714
sg56
F3.0
sg57
F208.0
sa(dp715
g52
VSpurs
p716
sg54
VLakers
p717
sg56
F14.5
sg57
F212.5
sa(dp718
g52
VSuns
p719
sg54
VMavericks
p720
sg56
F-2.5
sg57
F207.5
sa(dp721
g52
VWarriors
p722
sg54
VPistons
p723
sg56
F12.5
sg57
F215.5
sasS'2017-01-10'
p724
(lp725
(dp726
g52
VKnicks
p727
sg54
VPelicans
p728
sg56
F2.5
sg57
F213.5
sa(dp729
g52
VBulls
p730
sg54
VThunder
p731
sg56
F1.5
sg57
F211.5
sa(dp732
g52
VTimberwolves
p733
sg54
VMavericks
p734
sg56
F4.5
sg57
F197.5
sasS'2017-01-11'
p735
(lp736
(dp737
g52
VWizards
p738
sg54
VBulls
p739
sg56
F11.5
sg57
F203.5
sa(dp740
g52
VNets
p741
sg54
VHawks
p742
sg56
F-8.5
sg57
F216.5
sa(dp743
g52
VRaptors
p744
sg54
VCeltics
p745
sg56
F4.5
sg57
F216.5
sa(dp746
g52
VRockets
p747
sg54
VHornets
p748
sg56
F9.0
sg57
F226.0
sa(dp749
g52
VSpurs
p750
sg54
VMilwaukee
p751
sg56
F9.5
sg57
F201.5
sa(dp752
g52
VJazz
p753
sg54
VCavaliers
p754
sg56
F-1.0
sg57
F203.5
sa(dp755
g52
VLakers
p756
sg54
VTrail Blaze
p757
sg56
F-2.5
sg57
F228.5
sa(dp758
g52
Vsac
p759
sg54
VPistons
p760
sg56
F2.5
sg57
F205.5
sa(dp761
g52
VWarriors
p762
sg54
VHeat
p763
sg56
F14.5
sg57
F218.5
sasS'2016-11-12'
p764
(lp765
(dp766
g52
VMagic
p767
sg54
VJazz
p768
sg56
F-5.5
sg57
F191.5
sa(dp769
g52
V76ers
p770
sg54
VPacers
p771
sg56
F-4.5
sg57
F213.5
sa(dp772
g52
VWizards
p773
sg54
VCavaliers
p774
sg56
F-7.5
sg57
F208.5
sa(dp775
g52
VHornets
p776
sg54
VRaptors
p777
sg56
F-1.5
sg57
F204.5
sa(dp778
g52
VCeltics
p779
sg54
VKnicks
p780
sg56
F4.5
sg57
F215.0
sa(dp781
g52
VThunder
p782
sg54
VClippers
p783
sg56
F-5.0
sg57
F206.0
sa(dp784
g52
VSpurs
p785
sg54
VPistons
p786
sg56
F9.0
sg57
F194.5
sa(dp787
g52
VTrail Blaze
p788
sg54
Vsac
p789
sg56
F7.0
sg57
F208.0
sasS'2016-11-13'
p790
(lp791
(dp792
g52
VPacers
p793
sg54
VCeltics
p794
sg56
F-1.5
sg57
F211.5
sa(dp795
g52
VPelicans
p796
sg54
VLakers
p797
sg56
F1.5
sg57
F217.5
sa(dp798
g52
VHawks
p799
sg54
V76ers
p800
sg56
F14.5
sg57
F204.5
sa(dp801
g52
VRaptors
p802
sg54
VKnicks
p803
sg56
F7.5
sg57
F208.5
sa(dp804
g52
VHeat
p805
sg54
VJazz
p806
sg56
F-1.5
sg57
F187.5
sa(dp807
g52
VBulls
p808
sg54
VWizards
p809
sg56
F9.5
sg57
F200.5
sa(dp810
g52
VTimberwolves
p811
sg54
VClippers
p812
sg56
F-5.5
sg57
F207.5
sa(dp813
g52
VRockets
p814
sg54
VSpurs
p815
sg56
F-1.5
sg57
F208.0
sa(dp816
g52
VMilwaukee
p817
sg54
VGrizzlies
p818
sg56
F3.5
sg57
F201.5
sa(dp819
g52
VNuggets
p820
sg54
VPistons
p821
sg56
F4.5
sg57
F202.5
sa(dp822
g52
VSuns
p823
sg54
VNets
p824
sg56
F4.5
sg57
F218.5
sasS'2016-11-10'
p825
(lp826
(dp827
g52
VKnicks
p828
sg54
VNets
p829
sg56
F8.0
sg57
F215.0
sa(dp830
g52
VMagic
p831
sg54
VTimberwolves
p832
sg56
F2.5
sg57
F201.5
sa(dp833
g52
VWizards
p834
sg54
VCeltics
p835
sg56
F1.5
sg57
F212.0
sa(dp836
g52
VPacers
p837
sg54
V76ers
p838
sg56
F11.5
sg57
F212.5
sa(dp839
g52
VHornets
p840
sg54
VJazz
p841
sg56
F3.0
sg57
F192.5
sa(dp842
g52
VHawks
p843
sg54
VBulls
p844
sg56
F3.5
sg57
F201.5
sa(dp845
g52
VThunder
p846
sg54
VRaptors
p847
sg56
F4.5
sg57
F203.5
sa(dp848
g52
VSuns
p849
sg54
VPistons
p850
sg56
F-4.5
sg57
F205.5
sa(dp851
g52
VSpurs
p852
sg54
VRockets
p853
sg56
F8.5
sg57
F212.5
sa(dp854
g52
VWarriors
p855
sg54
VMavericks
p856
sg56
F18.0
sg57
F206.0
sa(dp857
g52
VClippers
p858
sg54
VTrail Blaze
p859
sg56
F11.0
sg57
F211.0
sasS'2016-11-11'
p860
(lp861
(dp862
g52
VHeat
p863
sg54
VBulls
p864
sg56
F1.5
sg57
F201.5
sa(dp865
g52
VMilwaukee
p866
sg54
VPelicans
p867
sg56
F5.5
sg57
F208.5
sa(dp868
g52
VNuggets
p869
sg54
VWarriors
p870
sg56
F-6.5
sg57
F222.5
sa(dp871
g52
Vsac
p872
sg54
VLakers
p873
sg56
F5.5
sg57
F211.0
sasS'2016-11-16'
p874
(lp875
(dp876
g52
VCavaliers
p877
sg54
VRaptors
p878
sg56
F6.0
sg57
F210.5
sa(dp879
g52
VHeat
p880
sg54
VHawks
p881
sg56
F-6.5
sg57
F199.0
sa(dp882
g52
VTimberwolves
p883
sg54
VHornets
p884
sg56
F-1.5
sg57
F205.5
sa(dp885
g52
VTrail Blaze
p886
sg54
VBulls
p887
sg56
F4.5
sg57
F210.5
sa(dp888
g52
VLakers
p889
sg54
VNets
p890
sg56
F7.5
sg57
F219.5
sasS'2016-11-17'
p891
(lp892
(dp893
g52
VMagic
p894
sg54
VPelicans
p895
sg56
F7.0
sg57
F199.0
sa(dp896
g52
V76ers
p897
sg54
VWizards
p898
sg56
F-6.5
sg57
F203.5
sa(dp899
g52
VPacers
p900
sg54
VCavaliers
p901
sg56
F3.0
sg57
F208.5
sa(dp902
g52
VCeltics
p903
sg54
VMavericks
p904
sg56
F5.5
sg57
F197.5
sa(dp905
g52
VKnicks
p906
sg54
VPistons
p907
sg56
F1.5
sg57
F201.0
sa(dp908
g52
VHawks
p909
sg54
VMilwaukee
p910
sg56
F5.0
sg57
F210.5
sa(dp911
g52
VRaptors
p912
sg54
VWarriors
p913
sg56
F-6.0
sg57
F222.5
sa(dp914
g52
VThunder
p915
sg54
VRockets
p916
sg56
F-5.5
sg57
F222.5
sa(dp917
g52
VNuggets
p918
sg54
VSuns
p919
sg56
F4.5
sg57
F219.5
sa(dp920
g52
Vsac
p921
sg54
VSpurs
p922
sg56
F-5.5
sg57
F197.5
sa(dp923
g52
VClippers
p924
sg54
VGrizzlies
p925
sg56
F12.5
sg57
F200.5
sasS'2017-01-18'
p926
(lp927
(dp928
g52
VHeat
p929
sg54
VRockets
p930
sg56
F-7.5
sg57
F221.5
sa(dp931
g52
VNets
p932
sg54
VRaptors
p933
sg56
F-8.5
sg57
F225.5
sa(dp934
g52
VBulls
p935
sg54
VMavericks
p936
sg56
F4.5
sg57
F198.5
sa(dp937
g52
VSpurs
p938
sg54
VTimberwolves
p939
sg56
F11.5
sg57
F202.5
sa(dp940
g52
VLakers
p941
sg54
VNuggets
p942
sg56
F-1.5
sg57
F229.5
sasS'2017-01-19'
p943
(lp944
(dp945
g52
V76ers
p946
sg54
VRaptors
p947
sg56
F-6.5
sg57
F215.5
sa(dp948
g52
VWizards
p949
sg54
VGrizzlies
p950
sg56
F2.5
sg57
F205.5
sa(dp951
g52
VHornets
p952
sg54
VTrail Blaze
p953
sg56
F5.5
sg57
F216.5
sa(dp954
g52
VCeltics
p955
sg54
VKnicks
p956
sg56
F10.0
sg57
F220.5
sa(dp957
g52
VPistons
p958
sg54
VHawks
p959
sg56
F-2.5
sg57
F199.5
sa(dp960
g52
VPelicans
p961
sg54
VMagic
p962
sg56
F6.5
sg57
F211.5
sa(dp963
g52
VRockets
p964
sg54
VMilwaukee
p965
sg56
F6.5
sg57
F225.5
sa(dp966
g52
Vsac
p967
sg54
VPacers
p968
sg56
F2.5
sg57
F213.5
sa(dp969
g52
VWarriors
p970
sg54
VThunder
p971
sg56
F15.0
sg57
F230.5
sasS'2017-03-03'
p972
(lp973
(dp974
g52
VBulls
p975
sg54
VWarriors
p976
sg56
F-7.5
sg57
F214.5
sa(dp977
g52
VSuns
p978
sg54
VHornets
p979
sg56
F-3.5
sg57
F218.5
sa(dp980
g52
VTrail Blaze
p981
sg54
VThunder
p982
sg56
F-1.5
sg57
F222.5
sasS'2016-12-12'
p983
(lp984
(dp985
g52
VPistons
p986
sg54
V76ers
p987
sg56
F12.5
sg57
F198.5
sa(dp988
g52
VTimberwolves
p989
sg54
VWarriors
p990
sg56
F-9.5
sg57
F225.5
sa(dp991
g52
VThunder
p992
sg54
VCeltics
p993
sg56
F3.5
sg57
F206.5
sa(dp994
g52
VSuns
p995
sg54
VPelicans
p996
sg56
F1.5
sg57
F214.5
sa(dp997
g52
VLakers
p998
sg54
VKnicks
p999
sg56
F-2.5
sg57
F217.5
sasS'2016-12-11'
p1000
(lp1001
(dp1002
g52
VMagic
p1003
sg54
VNuggets
p1004
sg56
F-1.5
sg57
F205.5
sa(dp1005
g52
VWizards
p1006
sg54
VMilwaukee
p1007
sg56
F4.5
sg57
F210.5
sa(dp1008
g52
VPacers
p1009
sg54
VTrail Blaze
p1010
sg56
F-1.5
sg57
F217.5
sa(dp1011
g52
VCavaliers
p1012
sg54
VHornets
p1013
sg56
F6.5
sg57
F213.5
sa(dp1014
g52
VBulls
p1015
sg54
VHeat
p1016
sg56
F9.5
sg57
F201.5
sa(dp1017
g52
VRockets
p1018
sg54
VMavericks
p1019
sg56
F12.5
sg57
F210.5
sa(dp1020
g52
VGrizzlies
p1021
sg54
VWarriors
p1022
sg56
F-12.5
sg57
F211.5
sa(dp1023
g52
VSpurs
p1024
sg54
VNets
p1025
sg56
F15.5
sg57
F211.5
sa(dp1026
g52
VJazz
p1027
sg54
Vsac
p1028
sg56
F5.5
sg57
F196.5
sa(dp1029
g52
VClippers
p1030
sg54
VPelicans
p1031
sg56
F15.5
sg57
F199.5
sasS'2016-12-03'
p1032
(lp1033
(dp1034
g52
V76ers
p1035
sg54
VMagic
p1036
sg56
F1.5
sg57
F198.5
sa(dp1037
g52
VCeltics
p1038
sg54
Vsac
p1039
sg56
F6.5
sg57
F209.5
sa(dp1040
g52
VKnicks
p1041
sg54
VTimberwolves
p1042
sg56
F-2.5
sg57
F210.5
sa(dp1043
g52
VRaptors
p1044
sg54
VLakers
p1045
sg56
F9.5
sg57
F214.5
sa(dp1046
g52
VPelicans
p1047
sg54
VClippers
p1048
sg56
F-4.5
sg57
F205.5
sa(dp1049
g52
VHawks
p1050
sg54
VPistons
p1051
sg56
F1.5
sg57
F197.5
sa(dp1052
g52
VBulls
p1053
sg54
VCavaliers
p1054
sg56
F-1.5
sg57
F209.5
sa(dp1055
g52
VSpurs
p1056
sg54
VWizards
p1057
sg56
F8.5
sg57
F204.5
sa(dp1058
g52
VNuggets
p1059
sg54
VRockets
p1060
sg56
F2.5
sg57
F221.5
sasS'2016-12-31'
p1061
(lp1062
(dp1063
g52
VPacers
p1064
sg54
VBulls
p1065
sg56
F4.5
sg57
F201.5
sa(dp1066
g52
VWizards
p1067
sg54
VNets
p1068
sg56
F7.5
sg57
F219.5
sa(dp1069
g52
VCeltics
p1070
sg54
VHeat
p1071
sg56
F9.5
sg57
F202.5
sa(dp1072
g52
VPelicans
p1073
sg54
VKnicks
p1074
sg56
F3.5
sg57
F215.5
sa(dp1075
g52
VHawks
p1076
sg54
VPistons
p1077
sg56
F2.5
sg57
F199.5
sa(dp1078
g52
VTimberwolves
p1079
sg54
VMilwaukee
p1080
sg56
F1.5
sg57
F208.5
sa(dp1081
g52
VRockets
p1082
sg54
VClippers
p1083
sg56
F10.5
sg57
F216.5
sa(dp1084
g52
VSpurs
p1085
sg54
VTrail Blaze
p1086
sg56
F9.5
sg57
F203.5
sa(dp1087
g52
VNuggets
p1088
sg54
V76ers
p1089
sg56
F10.5
sg57
F213.5
sa(dp1090
g52
VWarriors
p1091
sg54
VMavericks
p1092
sg56
F18.5
sg57
F214.5
sasS'2016-12-30'
p1093
(lp1094
(dp1095
g52
VHornets
p1096
sg54
VHeat
p1097
sg56
F5.5
sg57
F203.5
sa(dp1098
g52
VCavaliers
p1099
sg54
VCeltics
p1100
sg56
F6.5
sg57
F216.5
sa(dp1101
g52
VGrizzlies
p1102
sg54
VThunder
p1103
sg56
F1.5
sg57
F198.5
sa(dp1104
g52
VJazz
p1105
sg54
V76ers
p1106
sg56
F14.5
sg57
F197.5
sa(dp1107
g52
VSuns
p1108
sg54
VRaptors
p1109
sg56
F-8.5
sg57
F221.5
sa(dp1110
g52
VLakers
p1111
sg54
VMavericks
p1112
sg56
F3.5
sg57
F206.5
sasS'2017-04-04'
p1113
(lp1114
(dp1115
g52
VTimberwolves
p1116
sg54
VTrail Blaze
p1117
sg56
F2.5
sg57
F216.5
sasS'2017-03-22'
p1118
(lp1119
(dp1120
g52
VRaptors
p1121
sg54
VBulls
p1122
sg56
F7.5
sg57
F198.5
sa(dp1123
g52
VHeat
p1124
sg54
VSuns
p1125
sg56
F11.5
sg57
F213.5
sa(dp1126
g52
VNets
p1127
sg54
VPistons
p1128
sg56
F-5.5
sg57
F215.5
sa(dp1129
g52
VPelicans
p1130
sg54
VGrizzlies
p1131
sg56
F3.5
sg57
F206.5
sa(dp1132
g52
VMavericks
p1133
sg54
VWarriors
p1134
sg56
F-4.5
sg57
F204.5
sa(dp1135
g52
VTimberwolves
p1136
sg54
VSpurs
p1137
sg56
F-4.5
sg57
F206.5
sa(dp1138
g52
VTrail Blaze
p1139
sg54
VMilwaukee
p1140
sg56
F4.5
sg57
F208.5
sa(dp1141
g52
VLakers
p1142
sg54
VClippers
p1143
sg56
F-9.5
sg57
F222.5
sasS'2017-04-02'
p1144
(lp1145
(dp1146
g52
VClippers
p1147
sg54
VLakers
p1148
sg56
F14.5
sg57
F220.5
sa(dp1149
g52
VBulls
p1150
sg54
VHawks
p1151
sg56
F5.5
sg57
F202.5
sa(dp1152
g52
VNets
p1153
sg54
VMagic
p1154
sg56
F4.5
sg57
F222.5
sa(dp1155
g52
VTimberwolves
p1156
sg54
Vsac
p1157
sg56
F12.5
sg57
F206.5
sa(dp1158
g52
VTrail Blaze
p1159
sg54
VSuns
p1160
sg56
F11.5
sg57
F223.5
sasS'2017-03-24'
p1161
(lp1162
(dp1163
g52
VHeat
p1164
sg54
VRaptors
p1165
sg56
F4.0
sg57
F199.5
sa(dp1166
g52
VNets
p1167
sg54
VSuns
p1168
sg56
F5.5
sg57
F226.5
sa(dp1169
g52
VMavericks
p1170
sg54
VClippers
p1171
sg56
F-5.5
sg57
F204.5
sa(dp1172
g52
VSpurs
p1173
sg54
VGrizzlies
p1174
sg56
F8.0
sg57
F197.5
sa(dp1175
g52
VTrail Blaze
p1176
sg54
VKnicks
p1177
sg56
F12.5
sg57
F210.5
sasS'2017-03-27'
p1178
(lp1179
(dp1180
g52
VHawks
p1181
sg54
VNets
p1182
sg56
F6.5
sg57
F216.5
sa(dp1183
g52
VHornets
p1184
sg54
VSuns
p1185
sg56
F13.5
sg57
F214.5
sa(dp1186
g52
VMilwaukee
p1187
sg54
VBulls
p1188
sg56
F6.5
sg57
F201.5
sa(dp1189
g52
VRockets
p1190
sg54
VThunder
p1191
sg56
F5.5
sg57
F228.5
sa(dp1192
g52
VClippers
p1193
sg54
Vsac
p1194
sg56
F12.5
sg57
F211.5
sa(dp1195
g52
VCeltics
p1196
sg54
VHeat
p1197
sg56
F5.5
sg57
F210.5
sa(dp1198
g52
VPacers
p1199
sg54
V76ers
p1200
sg56
F8.5
sg57
F213.5
sa(dp1201
g52
VNuggets
p1202
sg54
VPelicans
p1203
sg56
F7.5
sg57
F225.5
sa(dp1204
g52
VWarriors
p1205
sg54
VGrizzlies
p1206
sg56
F10.5
sg57
F207.5
sa(dp1207
g52
VLakers
p1208
sg54
VTrail Blaze
p1209
sg56
F-6.5
sg57
F220.5
sasS'2017-04-01'
p1210
(lp1211
(dp1212
g52
VRaptors
p1213
sg54
VPacers
p1214
sg56
F5.5
sg57
F203.5
sa(dp1215
g52
VHornets
p1216
sg54
VNuggets
p1217
sg56
F2.5
sg57
F218.5
sa(dp1218
g52
VCeltics
p1219
sg54
VMagic
p1220
sg56
F10.0
sg57
F216.5
sa(dp1221
g52
VCavaliers
p1222
sg54
V76ers
p1223
sg56
F12.5
sg57
F216.5
sa(dp1224
g52
VHeat
p1225
sg54
VKnicks
p1226
sg56
F10.5
sg57
F203.5
sa(dp1227
g52
VPelicans
p1228
sg54
Vsac
p1229
sg56
F11.5
sg57
F208.0
sa(dp1230
g52
VMilwaukee
p1231
sg54
VPistons
p1232
sg56
F6.5
sg57
F197.5
sa(dp1233
g52
VGrizzlies
p1234
sg54
VMavericks
p1235
sg56
F3.0
sg57
F191.5
sa(dp1236
g52
VThunder
p1237
sg54
VSpurs
p1238
sg56
F-3.0
sg57
F208.0
sa(dp1239
g52
VJazz
p1240
sg54
VWizards
p1241
sg56
F3.5
sg57
F208.5
sa(dp1242
g52
VWarriors
p1243
sg54
VRockets
p1244
sg56
F9.5
sg57
F232.5
sasS'2017-03-29'
p1245
(lp1246
(dp1247
g52
VPacers
p1248
sg54
VTimberwolves
p1249
sg56
F4.5
sg57
F206.5
sa(dp1250
g52
VHornets
p1251
sg54
VMilwaukee
p1252
sg56
F4.5
sg57
F198.5
sa(dp1253
g52
VNets
p1254
sg54
V76ers
p1255
sg56
F4.5
sg57
F224.5
sa(dp1256
g52
VPistons
p1257
sg54
VHeat
p1258
sg56
F-3.5
sg57
F200.5
sa(dp1259
g52
VHawks
p1260
sg54
VSuns
p1261
sg56
F9.5
sg57
F217.5
sa(dp1262
g52
VRockets
p1263
sg54
VWarriors
p1264
sg56
F1.5
sg57
F236.5
sa(dp1265
g52
VTrail Blaze
p1266
sg54
VNuggets
p1267
sg56
F1.5
sg57
F222.5
sa(dp1268
g52
VLakers
p1269
sg54
VWizards
p1270
sg56
F-9.5
sg57
F225.5
sasS'2017-03-28'
p1271
(lp1272
(dp1273
g52
VKnicks
p1274
sg54
VPistons
p1275
sg56
F-1.5
sg57
F209.5
sa(dp1276
g52
VRaptors
p1277
sg54
VMagic
p1278
sg56
F7.5
sg57
F206.5
sa(dp1279
g52
VSpurs
p1280
sg54
VCavaliers
p1281
sg56
F5.5
sg57
F212.5
sa(dp1282
g52
VMavericks
p1283
sg54
VThunder
p1284
sg56
F-2.5
sg57
F203.5
sa(dp1285
g52
VJazz
p1286
sg54
VPelicans
p1287
sg56
F5.5
sg57
F195.5
sa(dp1288
g52
Vsac
p1289
sg54
VGrizzlies
p1290
sg56
F-7.5
sg57
F198.5
sasS'2017-01-14'
p1291
(lp1292
(dp1293
g52
V76ers
p1294
sg54
VHornets
p1295
sg56
F-5.0
sg57
F208.0
sa(dp1296
g52
VRaptors
p1297
sg54
VNets
p1298
sg56
F15.5
sg57
F225.5
sa(dp1299
g52
VMilwaukee
p1300
sg54
VHeat
p1301
sg56
F7.5
sg57
F205.5
sa(dp1302
g52
VHawks
p1303
sg54
VCeltics
p1304
sg56
F3.5
sg57
F212.5
sa(dp1305
g52
VTimberwolves
p1306
sg54
VThunder
p1307
sg56
F-2.0
sg57
F208.0
sa(dp1308
g52
VRockets
p1309
sg54
VGrizzlies
p1310
sg56
F6.5
sg57
F216.5
sa(dp1311
g52
VTrail Blaze
p1312
sg54
VMagic
p1313
sg56
F7.5
sg57
F214.5
sa(dp1314
g52
VJazz
p1315
sg54
VPistons
p1316
sg56
F10.5
sg57
F188.5
sa(dp1317
g52
Vsac
p1318
sg54
VCavaliers
p1319
sg56
F-6.0
sg57
F214.5
sasS'2017-04-08'
p1320
(lp1321
(dp1322
g52
VRaptors
p1323
sg54
VHeat
p1324
sg56
F4.5
sg57
F206.5
sa(dp1325
g52
VCavaliers
p1326
sg54
VHawks
p1327
sg56
F14.5
sg57
F212.5
sa(dp1328
g52
VRockets
p1329
sg54
VPistons
p1330
sg56
F11.5
sg57
F225.5
sa(dp1331
g52
VGrizzlies
p1332
sg54
VKnicks
p1333
sg56
F12.5
sg57
F194.5
sa(dp1334
g52
VMavericks
p1335
sg54
VSpurs
p1336
sg56
F4.5
sg57
F190.5
sa(dp1337
g52
VJazz
p1338
sg54
VTimberwolves
p1339
sg56
F10.5
sg57
F197.5
sa(dp1340
g52
VNuggets
p1341
sg54
VPelicans
p1342
sg56
F6.5
sg57
F228.5
sa(dp1343
g52
VSuns
p1344
sg54
VThunder
p1345
sg56
F-9.0
sg57
F229.0
sa(dp1346
g52
VLakers
p1347
sg54
Vsac
p1348
sg56
F2.5
sg57
F216.5
sasS'2017-04-09'
p1349
(lp1350
(dp1351
g52
VNets
p1352
sg54
VBulls
p1353
sg56
F-2.5
sg57
F214.5
sa(dp1354
g52
VMagic
p1355
sg54
VPacers
p1356
sg56
F-4.5
sg57
F212.5
sa(dp1357
g52
VHornets
p1358
sg54
VCeltics
p1359
sg56
F1.0
sg57
F213.5
sa(dp1360
g52
V76ers
p1361
sg54
VMilwaukee
p1362
sg56
F-7.5
sg57
F202.5
sa(dp1363
g52
VWizards
p1364
sg54
VHeat
p1365
sg56
F3.5
sg57
F216.5
sa(dp1366
g52
VSpurs
p1367
sg54
VClippers
p1368
sg56
F1.5
sg57
F207.5
sa(dp1369
g52
VTrail Blaze
p1370
sg54
VJazz
p1371
sg56
F2.5
sg57
F202.5
sa(dp1372
g52
VWarriors
p1373
sg54
VPelicans
p1374
sg56
F16.5
sg57
F215.5
sa(dp1375
g52
VKnicks
p1376
sg54
VRaptors
p1377
sg56
F-9.5
sg57
F196.5
sasS'2016-11-09'
p1378
(lp1379
(dp1380
g52
VCavaliers
p1381
sg54
VHawks
p1382
sg56
F7.5
sg57
F207.5
sa(dp1383
g52
VNets
p1384
sg54
VTimberwolves
p1385
sg56
F-4.5
sg57
F209.5
sa(dp1386
g52
VGrizzlies
p1387
sg54
VNuggets
p1388
sg56
F4.0
sg57
F202.0
sa(dp1389
g52
VTrail Blaze
p1390
sg54
VSuns
p1391
sg56
F8.5
sg57
F219.0
sa(dp1392
g52
VLakers
p1393
sg54
VMavericks
p1394
sg56
F4.0
sg57
F203.5
sa(dp1395
g52
Vsac
p1396
sg54
VPelicans
p1397
sg56
F6.5
sg57
F204.5
sasS'2016-11-08'
p1398
(lp1399
(dp1400
g52
V76ers
p1401
sg54
VJazz
p1402
sg56
F-4.5
sg57
F188.5
sa(dp1403
g52
VWizards
p1404
sg54
VRockets
p1405
sg56
F1.0
sg57
F217.5
sa(dp1406
g52
VHornets
p1407
sg54
VPacers
p1408
sg56
F3.0
sg57
F205.5
sa(dp1409
g52
VBulls
p1410
sg54
VMagic
p1411
sg56
F6.5
sg57
F199.0
sa(dp1412
g52
VThunder
p1413
sg54
VHeat
p1414
sg56
F5.5
sg57
F203.0
sa(dp1415
g52
VWarriors
p1416
sg54
VPelicans
p1417
sg56
F16.5
sg57
F220.5
sa(dp1418
g52
VClippers
p1419
sg54
VPistons
p1420
sg56
F8.5
sg57
F196.5
sasS'2017-01-07'
p1421
(lp1422
(dp1423
g52
VMagic
p1424
sg54
VRockets
p1425
sg56
F-4.5
sg57
F224.5
sa(dp1426
g52
VWizards
p1427
sg54
VTimberwolves
p1428
sg56
F4.5
sg57
F211.5
sa(dp1429
g52
VCeltics
p1430
sg54
V76ers
p1431
sg56
F11.5
sg57
F211.5
sa(dp1432
g52
VNets
p1433
sg54
VCavaliers
p1434
sg56
F-13.0
sg57
F221.0
sa(dp1435
g52
VMilwaukee
p1436
sg54
VKnicks
p1437
sg56
F4.5
sg57
F212.5
sa(dp1438
g52
VLakers
p1439
sg54
VHeat
p1440
sg56
F2.5
sg57
F214.5
sa(dp1441
g52
Vsac
p1442
sg54
VClippers
p1443
sg56
F-2.5
sg57
F212.5
sa(dp1444
g52
VWarriors
p1445
sg54
VGrizzlies
p1446
sg56
F14.5
sg57
F216.5
sasS'2017-01-06'
p1447
(lp1448
(dp1449
g52
VPacers
p1450
sg54
VNets
p1451
sg56
F10.5
sg57
F218.5
sa(dp1452
g52
VPistons
p1453
sg54
VHornets
p1454
sg56
F5.0
sg57
F208.0
sa(dp1455
g52
VRaptors
p1456
sg54
VJazz
p1457
sg56
F4.5
sg57
F196.5
sa(dp1458
g52
VPelicans
p1459
sg54
VHawks
p1460
sg56
F2.0
sg57
F208.5
sa(dp1461
g52
VRockets
p1462
sg54
VThunder
p1463
sg56
F7.5
sg57
F227.5
sa(dp1464
g52
VMavericks
p1465
sg54
VSuns
p1466
sg56
F5.5
sg57
F206.5
sa(dp1467
g52
VNuggets
p1468
sg54
VSpurs
p1469
sg56
F-7.0
sg57
F212.5
sa(dp1470
g52
VTrail Blaze
p1471
sg54
VLakers
p1472
sg56
F6.5
sg57
F219.5
sasS'2017-01-01'
p1473
(lp1474
(dp1475
g52
Vsac
p1476
sg54
VGrizzlies
p1477
sg56
F-1.5
sg57
F194.5
sa(dp1478
g52
VBulls
p1479
sg54
VMilwaukee
p1480
sg56
F3.5
sg57
F203.5
sa(dp1481
g52
VHornets
p1482
sg54
VCavaliers
p1483
sg56
F-1.0
sg57
F210.5
sa(dp1484
g52
VJazz
p1485
sg54
VSuns
p1486
sg56
F11.5
sg57
F206.5
sa(dp1487
g52
VRockets
p1488
sg54
VKnicks
p1489
sg56
F12.5
sg57
F224.5
sa(dp1490
g52
VThunder
p1491
sg54
VClippers
p1492
sg56
F9.5
sg57
F209.5
sasS'2016-12-15'
p1493
(lp1494
(dp1495
g52
VHeat
p1496
sg54
VPacers
p1497
sg56
F-1.5
sg57
F203.5
sa(dp1498
g52
VMagic
p1499
sg54
VClippers
p1500
sg56
F-8.5
sg57
F210.5
sa(dp1501
g52
V76ers
p1502
sg54
VRaptors
p1503
sg56
F-7.5
sg57
F203.5
sa(dp1504
g52
VWizards
p1505
sg54
VHornets
p1506
sg56
F-1.5
sg57
F209.5
sa(dp1507
g52
VNets
p1508
sg54
VLakers
p1509
sg56
F-1.5
sg57
F228.5
sa(dp1510
g52
VRockets
p1511
sg54
Vsac
p1512
sg56
F12.5
sg57
F213.5
sa(dp1513
g52
VGrizzlies
p1514
sg54
VCavaliers
p1515
sg56
F7.5
sg57
F189.5
sa(dp1516
g52
VMavericks
p1517
sg54
VPistons
p1518
sg56
F-5.5
sg57
F188.5
sa(dp1519
g52
VJazz
p1520
sg54
VThunder
p1521
sg56
F8.5
sg57
F200.5
sa(dp1522
g52
VSpurs
p1523
sg54
VCeltics
p1524
sg56
F5.5
sg57
F194.5
sasS'2017-01-03'
p1525
(lp1526
(dp1527
g52
VMilwaukee
p1528
sg54
VThunder
p1529
sg56
F1.5
sg57
F213.5
sa(dp1530
g52
VCavaliers
p1531
sg54
VPelicans
p1532
sg56
F9.5
sg57
F216.5
sa(dp1533
g52
VNets
p1534
sg54
VJazz
p1535
sg56
F-6.5
sg57
F205.5
sa(dp1536
g52
VKnicks
p1537
sg54
VMagic
p1538
sg56
F4.5
sg57
F210.5
sa(dp1539
g52
VBulls
p1540
sg54
VHornets
p1541
sg56
F-1.5
sg57
F199.5
sa(dp1542
g52
VRockets
p1543
sg54
VWizards
p1544
sg56
F7.5
sg57
F230.5
sa(dp1545
g52
VWarriors
p1546
sg54
VNuggets
p1547
sg56
F14.5
sg57
F230.5
sa(dp1548
g52
VClippers
p1549
sg54
VSuns
p1550
sg56
F4.5
sg57
F213.5
sasS'2017-01-02'
p1551
(lp1552
(dp1553
g52
VHeat
p1554
sg54
VPistons
p1555
sg56
F-6.5
sg57
F197.5
sa(dp1556
g52
VPacers
p1557
sg54
VMagic
p1558
sg56
F5.5
sg57
F209.5
sa(dp1559
g52
VHawks
p1560
sg54
VSpurs
p1561
sg56
F-4.5
sg57
F199.5
sa(dp1562
g52
VTimberwolves
p1563
sg54
VTrail Blaze
p1564
sg56
F6.0
sg57
F208.5
sa(dp1565
g52
VLakers
p1566
sg54
VRaptors
p1567
sg56
F-7.5
sg57
F217.5
sasS'2016-11-01'
p1568
(lp1569
(dp1570
g52
VNets
p1571
sg54
VBulls
p1572
sg56
F-5.5
sg57
F208.5
sa(dp1573
g52
VHawks
p1574
sg54
Vsac
p1575
sg56
F6.5
sg57
F198.5
sa(dp1576
g52
VRaptors
p1577
sg54
VNuggets
p1578
sg56
F6.5
sg57
F204.5
sa(dp1579
g52
VClippers
p1580
sg54
VSuns
p1581
sg56
F12.5
sg57
F204.5
sasS'2016-11-03'
p1582
(lp1583
(dp1584
g52
VWizards
p1585
sg54
VRaptors
p1586
sg56
F-1.5
sg57
F205.5
sa(dp1587
g52
VHornets
p1588
sg54
V76ers
p1589
sg56
F12.5
sg57
F196.5
sa(dp1590
g52
VNets
p1591
sg54
VPistons
p1592
sg56
F-4.0
sg57
F204.0
sa(dp1593
g52
VKnicks
p1594
sg54
VRockets
p1595
sg56
F1.0
sg57
F218.5
sa(dp1596
g52
VHawks
p1597
sg54
VLakers
p1598
sg56
F12.5
sg57
F205.5
sa(dp1599
g52
VCeltics
p1600
sg54
VBulls
p1601
sg56
F3.5
sg57
F207.5
sa(dp1602
g52
VGrizzlies
p1603
sg54
VPelicans
p1604
sg56
F5.5
sg57
F206.0
sa(dp1605
g52
VJazz
p1606
sg54
VMavericks
p1607
sg56
F3.5
sg57
F186.0
sa(dp1608
g52
VSuns
p1609
sg54
VTrail Blaze
p1610
sg56
F-2.5
sg57
F216.5
sa(dp1611
g52
VClippers
p1612
sg54
VThunder
p1613
sg56
F7.5
sg57
F207.5
sasS'2016-11-02'
p1614
(lp1615
(dp1616
g52
VCavaliers
p1617
sg54
VRockets
p1618
sg56
F9.5
sg57
F215.5
sa(dp1619
g52
V76ers
p1620
sg54
VMagic
p1621
sg56
F-5.0
sg57
F198.5
sa(dp1622
g52
VPacers
p1623
sg54
VLakers
p1624
sg56
F8.5
sg57
F213.5
sa(dp1625
g52
VHeat
p1626
sg54
Vsac
p1627
sg56
F3.5
sg57
F199.5
sa(dp1628
g52
VPistons
p1629
sg54
VKnicks
p1630
sg56
F3.5
sg57
F202.5
sa(dp1631
g52
VPelicans
p1632
sg54
VMilwaukee
p1633
sg56
F3.5
sg57
F204.5
sa(dp1634
g52
VTimberwolves
p1635
sg54
VGrizzlies
p1636
sg56
F7.5
sg57
F198.5
sa(dp1637
g52
VSpurs
p1638
sg54
VJazz
p1639
sg56
F9.5
sg57
F186.5
sa(dp1640
g52
VTrail Blaze
p1641
sg54
VWarriors
p1642
sg56
F-5.5
sg57
F225.5
sasS'2017-01-09'
p1643
(lp1644
(dp1645
g52
VNets
p1646
sg54
V76ers
p1647
sg56
F1.5
sg57
F215.5
sa(dp1648
g52
VMilwaukee
p1649
sg54
VWizards
p1650
sg56
F-1.5
sg57
F212.5
sa(dp1651
g52
VClippers
p1652
sg54
VHeat
p1653
sg56
F9.5
sg57
F205.5
sa(dp1654
g52
VRaptors
p1655
sg54
VRockets
p1656
sg56
F-1.5
sg57
F227.5
sa(dp1657
g52
VGrizzlies
p1658
sg54
VJazz
p1659
sg56
F2.5
sg57
F188.5
sa(dp1660
g52
VSuns
p1661
sg54
VCavaliers
p1662
sg56
F-8.5
sg57
F221.5
sa(dp1663
g52
Vsac
p1664
sg54
VWarriors
p1665
sg56
F-11.5
sg57
F225.5
sa(dp1666
g52
VTrail Blaze
p1667
sg54
VPistons
p1668
sg56
F3.5
sg57
F211.5
sa(dp1669
g52
VLakers
p1670
sg54
VMagic
p1671
sg56
F2.5
sg57
F217.5
sasS'2017-01-08'
p1672
(lp1673
(dp1674
g52
VPacers
p1675
sg54
VKnicks
p1676
sg56
F6.5
sg57
F217.5
sa(dp1677
g52
VCeltics
p1678
sg54
VPelicans
p1679
sg56
F6.5
sg57
F209.5
sa(dp1680
g52
VBulls
p1681
sg54
VRaptors
p1682
sg56
F-1.5
sg57
F207.5
sa(dp1683
g52
VTimberwolves
p1684
sg54
VJazz
p1685
sg56
F-4.5
sg57
F192.5
sa(dp1686
g52
VThunder
p1687
sg54
VNuggets
p1688
sg56
F7.5
sg57
F220.5
sa(dp1689
g52
VMavericks
p1690
sg54
VHawks
p1691
sg56
F-1.5
sg57
F196.5
sa(dp1692
g52
VSpurs
p1693
sg54
VHornets
p1694
sg56
F10.5
sg57
F208.5
sasS'2016-11-07'
p1695
(lp1696
(dp1697
g52
VKnicks
p1698
sg54
VJazz
p1699
sg56
F-2.5
sg57
F193.0
sa(dp1700
g52
VGrizzlies
p1701
sg54
VTrail Blaze
p1702
sg56
F1.0
sg57
F204.0
sa(dp1703
g52
VRaptors
p1704
sg54
Vsac
p1705
sg56
F7.0
sg57
F198.0
sa(dp1706
g52
VMavericks
p1707
sg54
VMilwaukee
p1708
sg56
F2.5
sg57
F199.0
sa(dp1709
g52
VCeltics
p1710
sg54
VNuggets
p1711
sg56
F6.5
sg57
F211.5
sa(dp1712
g52
VLakers
p1713
sg54
VSuns
p1714
sg56
F4.0
sg57
F216.0
sasS'2016-11-06'
p1715
(lp1716
(dp1717
g52
VThunder
p1718
sg54
VTimberwolves
p1719
sg56
F4.5
sg57
F209.0
sa(dp1720
g52
VMagic
p1721
sg54
VWizards
p1722
sg56
F6.5
sg57
F201.5
sa(dp1723
g52
V76ers
p1724
sg54
VCavaliers
p1725
sg56
F-12.5
sg57
F207.5
sa(dp1726
g52
VPistons
p1727
sg54
VNuggets
p1728
sg56
F4.5
sg57
F200.5
sa(dp1729
g52
VPacers
p1730
sg54
VBulls
p1731
sg56
F3.5
sg57
F211.0
sa(dp1732
g52
VHawks
p1733
sg54
VRockets
p1734
sg56
F3.0
sg57
F218.0
sa(dp1735
g52
VMilwaukee
p1736
sg54
Vsac
p1737
sg56
F3.5
sg57
F202.5
sa(dp1738
g52
VSpurs
p1739
sg54
VClippers
p1740
sg56
F5.0
sg57
F196.5
sasS'2017-02-01'
p1741
(lp1742
(dp1743
g52
VWizards
p1744
sg54
VKnicks
p1745
sg56
F7.5
sg57
F215.5
sa(dp1746
g52
VRaptors
p1747
sg54
VPelicans
p1748
sg56
F8.5
sg57
F209.5
sa(dp1749
g52
VRockets
p1750
sg54
Vsac
p1751
sg56
F11.5
sg57
F225.5
sa(dp1752
g52
VSpurs
p1753
sg54
VThunder
p1754
sg56
F9.5
sg57
F208.5
sa(dp1755
g52
VTrail Blaze
p1756
sg54
VHornets
p1757
sg56
F3.5
sg57
F214.5
sa(dp1758
g52
VLakers
p1759
sg54
VNuggets
p1760
sg56
F-1.5
sg57
F226.5
sasS'2017-02-02'
p1761
(lp1762
(dp1763
g52
VMagic
p1764
sg54
VPacers
p1765
sg56
F-2.5
sg57
F213.5
sa(dp1766
g52
VCavaliers
p1767
sg54
VTimberwolves
p1768
sg56
F6.5
sg57
F216.5
sa(dp1769
g52
VCeltics
p1770
sg54
VRaptors
p1771
sg56
F5.5
sg57
F215.5
sa(dp1772
g52
VHeat
p1773
sg54
VHawks
p1774
sg56
F1.5
sg57
F202.5
sa(dp1775
g52
VNets
p1776
sg54
VKnicks
p1777
sg56
F-2.5
sg57
F224.5
sa(dp1778
g52
VPistons
p1779
sg54
VPelicans
p1780
sg56
F7.5
sg57
F211.5
sa(dp1781
g52
VMavericks
p1782
sg54
V76ers
p1783
sg56
F7.5
sg57
F205.0
sa(dp1784
g52
VJazz
p1785
sg54
VMilwaukee
p1786
sg56
F7.5
sg57
F198.5
sa(dp1787
g52
VNuggets
p1788
sg54
VGrizzlies
p1789
sg56
F-3.5
sg57
F212.5
sa(dp1790
g52
VSuns
p1791
sg54
VClippers
p1792
sg56
F-3.5
sg57
F221.5
sa(dp1793
g52
VThunder
p1794
sg54
VBulls
p1795
sg56
F2.5
sg57
F206.5
sa(dp1796
g52
VWarriors
p1797
sg54
VHornets
p1798
sg56
F16.5
sg57
F227.5
sasS'2017-02-03'
p1799
(lp1800
(dp1801
g52
VWizards
p1802
sg54
VLakers
p1803
sg56
F10.5
sg57
F219.5
sa(dp1804
g52
VRockets
p1805
sg54
VHawks
p1806
sg56
F9.5
sg57
F225.5
sa(dp1807
g52
VSpurs
p1808
sg54
V76ers
p1809
sg56
F17.5
sg57
F214.5
sa(dp1810
g52
VClippers
p1811
sg54
VWarriors
p1812
sg56
F-8.5
sg57
F229.5
sasS'2017-02-04'
p1813
(lp1814
(dp1815
g52
VMagic
p1816
sg54
VRaptors
p1817
sg56
F-5.5
sg57
F207.5
sa(dp1818
g52
VNets
p1819
sg54
VPacers
p1820
sg56
F-6.5
sg57
F218.5
sa(dp1821
g52
VPistons
p1822
sg54
VTimberwolves
p1823
sg56
F4.5
sg57
F209.5
sa(dp1824
g52
VCeltics
p1825
sg54
VLakers
p1826
sg56
F11.0
sg57
F222.5
sa(dp1827
g52
VRockets
p1828
sg54
VBulls
p1829
sg56
F9.5
sg57
F222.5
sa(dp1830
g52
VThunder
p1831
sg54
VGrizzlies
p1832
sg56
F-1.5
sg57
F204.5
sa(dp1833
g52
VNuggets
p1834
sg54
VMilwaukee
p1835
sg56
F3.0
sg57
F224.0
sa(dp1836
g52
Vsac
p1837
sg54
VSuns
p1838
sg56
F3.5
sg57
F218.5
sa(dp1839
g52
VTrail Blaze
p1840
sg54
VMavericks
p1841
sg56
F5.5
sg57
F204.5
sasS'2017-02-05'
p1842
(lp1843
(dp1844
g52
VWizards
p1845
sg54
VPelicans
p1846
sg56
F6.5
sg57
F216.5
sa(dp1847
g52
VPacers
p1848
sg54
VPistons
p1849
sg56
F3.5
sg57
F208.5
sa(dp1850
g52
VHawks
p1851
sg54
VMagic
p1852
sg56
F7.5
sg57
F210.5
sa(dp1853
g52
VHeat
p1854
sg54
V76ers
p1855
sg56
F9.5
sg57
F208.5
sa(dp1856
g52
VKnicks
p1857
sg54
VCavaliers
p1858
sg56
F-3.5
sg57
F213.5
sa(dp1859
g52
VSpurs
p1860
sg54
VNuggets
p1861
sg56
F13.5
sg57
F224.5
sa(dp1862
g52
VTimberwolves
p1863
sg54
VGrizzlies
p1864
sg56
F4.5
sg57
F203.5
sa(dp1865
g52
VJazz
p1866
sg54
VHornets
p1867
sg56
F8.5
sg57
F198.5
sa(dp1868
g52
VSuns
p1869
sg54
VMilwaukee
p1870
sg56
F-1.5
sg57
F219.5
sa(dp1871
g52
Vsac
p1872
sg54
VWarriors
p1873
sg56
F-14.5
sg57
F224.5
sasS'2017-02-06'
p1874
(lp1875
(dp1876
g52
VNets
p1877
sg54
VRaptors
p1878
sg56
F-6.5
sg57
F215.5
sa(dp1879
g52
VCeltics
p1880
sg54
VClippers
p1881
sg56
F4.5
sg57
F220.5
sa(dp1882
g52
VThunder
p1883
sg54
VTrail Blaze
p1884
sg56
F4.5
sg57
F218.5
sasS'2017-02-07'
p1885
(lp1886
(dp1887
g52
VKnicks
p1888
sg54
VLakers
p1889
sg56
F4.5
sg57
F222.5
sa(dp1890
g52
VWizards
p1891
sg54
VCavaliers
p1892
sg56
F-1.5
sg57
F219.5
sa(dp1893
g52
VPacers
p1894
sg54
VThunder
p1895
sg56
F5.5
sg57
F211.5
sa(dp1896
g52
VPistons
p1897
sg54
V76ers
p1898
sg56
F9.0
sg57
F211.5
sa(dp1899
g52
VHawks
p1900
sg54
VJazz
p1901
sg56
F1.5
sg57
F197.5
sa(dp1902
g52
VRaptors
p1903
sg54
VClippers
p1904
sg56
F6.5
sg57
F217.5
sa(dp1905
g52
VPelicans
p1906
sg54
VSuns
p1907
sg56
F5.5
sg57
F222.5
sa(dp1908
g52
VTimberwolves
p1909
sg54
VHeat
p1910
sg56
F1.5
sg57
F204.5
sa(dp1911
g52
VNuggets
p1912
sg54
VMavericks
p1913
sg56
F2.5
sg57
F214.5
sa(dp1914
g52
VGrizzlies
p1915
sg54
VSpurs
p1916
sg56
F1.5
sg57
F198.5
sa(dp1917
g52
Vsac
p1918
sg54
VBulls
p1919
sg56
F4.5
sg57
F205.5
sasS'2017-02-08'
p1920
(lp1921
(dp1922
g52
VHornets
p1923
sg54
VNets
p1924
sg56
F9.5
sg57
F219.5
sa(dp1925
g52
VRockets
p1926
sg54
VMagic
p1927
sg56
F12.0
sg57
F223.5
sa(dp1928
g52
VMavericks
p1929
sg54
VTrail Blaze
p1930
sg56
F-2.5
sg57
F206.5
sasS'2017-02-09'
p1931
(lp1932
(dp1933
g52
V76ers
p1934
sg54
VSpurs
p1935
sg56
F-11.5
sg57
F208.5
sa(dp1936
g52
VPacers
p1937
sg54
VCavaliers
p1938
sg56
F-3.5
sg57
F216.5
sa(dp1939
g52
VNets
p1940
sg54
VWizards
p1941
sg56
F-10.5
sg57
F222.5
sa(dp1942
g52
VPistons
p1943
sg54
VLakers
p1944
sg56
F6.5
sg57
F218.5
sa(dp1945
g52
VHawks
p1946
sg54
VNuggets
p1947
sg56
F3.5
sg57
F225.5
sa(dp1948
g52
VKnicks
p1949
sg54
VClippers
p1950
sg56
F-1.5
sg57
F221.5
sa(dp1951
g52
VPelicans
p1952
sg54
VJazz
p1953
sg56
F-3.5
sg57
F200.5
sa(dp1954
g52
VMilwaukee
p1955
sg54
VHeat
p1956
sg56
F4.5
sg57
F208.5
sa(dp1957
g52
VTimberwolves
p1958
sg54
VRaptors
p1959
sg56
F-2.5
sg57
F210.5
sa(dp1960
g52
VGrizzlies
p1961
sg54
VSuns
p1962
sg56
F7.5
sg57
F209.5
sa(dp1963
g52
Vsac
p1964
sg54
VCeltics
p1965
sg56
F-8.5
sg57
F212.0
sa(dp1966
g52
VWarriors
p1967
sg54
VBulls
p1968
sg56
F18.5
sg57
F222.5
sasS'2017-03-14'
p1969
(lp1970
(dp1971
g52
VHornets
p1972
sg54
VBulls
p1973
sg56
F7.5
sg57
F199.5
sa(dp1974
g52
VRaptors
p1975
sg54
VMavericks
p1976
sg56
F4.5
sg57
F194.5
sa(dp1977
g52
VSpurs
p1978
sg54
VHawks
p1979
sg56
F6.5
sg57
F203.5
sa(dp1980
g52
VTimberwolves
p1981
sg54
VWizards
p1982
sg56
F2.5
sg57
F215.5
sa(dp1983
g52
VGrizzlies
p1984
sg54
VMilwaukee
p1985
sg56
F4.5
sg57
F199.5
sa(dp1986
g52
VJazz
p1987
sg54
VClippers
p1988
sg56
F1.5
sg57
F200.5
sa(dp1989
g52
VNuggets
p1990
sg54
VLakers
p1991
sg56
F13.5
sg57
F227.5
sa(dp1992
g52
Vsac
p1993
sg54
VMagic
p1994
sg56
F-1.5
sg57
F205.5
sasS'2016-12-05'
p1995
(lp1996
(dp1997
g52
VPistons
p1998
sg54
VMagic
p1999
sg56
F6.5
sg57
F195.5
sa(dp2000
g52
VThunder
p2001
sg54
VPelicans
p2002
sg56
F5.5
sg57
F215.5
sa(dp2003
g52
VKnicks
p2004
sg54
Vsac
p2005
sg56
F1.5
sg57
F209.5
sa(dp2006
g52
VClippers
p2007
sg54
VPacers
p2008
sg56
F11.5
sg57
F206.5
sasS'2016-12-06'
p2009
(lp2010
(dp2011
g52
V76ers
p2012
sg54
VNuggets
p2013
sg56
F-4.5
sg57
F209.5
sa(dp2014
g52
VNets
p2015
sg54
VWizards
p2016
sg56
F-6.5
sg57
F217.5
sa(dp2017
g52
VHawks
p2018
sg54
VThunder
p2019
sg56
F3.5
sg57
F211.5
sa(dp2020
g52
VRaptors
p2021
sg54
VCavaliers
p2022
sg56
F2.5
sg57
F214.5
sa(dp2023
g52
VPelicans
p2024
sg54
VGrizzlies
p2025
sg56
F4.5
sg57
F196.5
sa(dp2026
g52
VMilwaukee
p2027
sg54
VSpurs
p2028
sg56
F-5.5
sg57
F202.5
sa(dp2029
g52
VBulls
p2030
sg54
VTrail Blaze
p2031
sg56
F4.0
sg57
F212.0
sa(dp2032
g52
VRockets
p2033
sg54
VCeltics
p2034
sg56
F5.5
sg57
F217.5
sa(dp2035
g52
VMavericks
p2036
sg54
VHornets
p2037
sg56
F-3.5
sg57
F193.5
sa(dp2038
g52
VLakers
p2039
sg54
VJazz
p2040
sg56
F-4.5
sg57
F197.5
sa(dp2041
g52
VWarriors
p2042
sg54
VPacers
p2043
sg56
F15.5
sg57
F222.5
sasS'2016-12-07'
p2044
(lp2045
(dp2046
g52
VWizards
p2047
sg54
VMagic
p2048
sg56
F1.5
sg57
F199.5
sa(dp2049
g52
VHeat
p2050
sg54
VKnicks
p2051
sg56
F1.0
sg57
F206.0
sa(dp2052
g52
VPistons
p2053
sg54
VBulls
p2054
sg56
F6.5
sg57
F202.5
sa(dp2055
g52
VTimberwolves
p2056
sg54
VSpurs
p2057
sg56
F-3.5
sg57
F204.5
sa(dp2058
g52
VGrizzlies
p2059
sg54
V76ers
p2060
sg56
F7.5
sg57
F194.5
sa(dp2061
g52
VJazz
p2062
sg54
VSuns
p2063
sg56
F6.5
sg57
F204.5
sasS'2017-03-10'
p2064
(lp2065
(dp2066
g52
VPistons
p2067
sg54
VCavaliers
p2068
sg56
F-4.5
sg57
F215.5
sa(dp2069
g52
VGrizzlies
p2070
sg54
VClippers
p2071
sg56
F2.5
sg57
F205.5
sa(dp2072
g52
VThunder
p2073
sg54
VSpurs
p2074
sg56
F-2.5
sg57
F208.5
sa(dp2075
g52
VTrail Blaze
p2076
sg54
V76ers
p2077
sg56
F9.5
sg57
F220.5
sa(dp2078
g52
VSuns
p2079
sg54
VLakers
p2080
sg56
F6.5
sg57
F229.5
sasS'2017-03-11'
p2081
(lp2082
(dp2083
g52
VHornets
p2084
sg54
VMagic
p2085
sg56
F8.5
sg57
F201.5
sa(dp2086
g52
VMilwaukee
p2087
sg54
VPacers
p2088
sg56
F1.5
sg57
F204.5
sa(dp2089
g52
VHawks
p2090
sg54
VRaptors
p2091
sg56
F3.5
sg57
F203.5
sa(dp2092
g52
VBulls
p2093
sg54
VRockets
p2094
sg56
F-5.5
sg57
F223.5
sa(dp2095
g52
VTimberwolves
p2096
sg54
VWarriors
p2097
sg56
F-5.5
sg57
F212.5
sa(dp2098
g52
VMavericks
p2099
sg54
VNets
p2100
sg56
F9.5
sg57
F214.5
sa(dp2101
g52
VNuggets
p2102
sg54
VCeltics
p2103
sg56
F-2.5
sg57
F221.5
sa(dp2104
g52
Vsac
p2105
sg54
VWizards
p2106
sg56
F-8.5
sg57
F214.5
sasS'2016-12-02'
p2107
(lp2108
(dp2109
g52
VHornets
p2110
sg54
VMavericks
p2111
sg56
F12.5
sg57
F194.5
sa(dp2112
g52
VNets
p2113
sg54
VMilwaukee
p2114
sg56
F-5.5
sg57
F213.5
sa(dp2115
g52
VCavaliers
p2116
sg54
VClippers
p2117
sg56
F3.5
sg57
F215.5
sa(dp2118
g52
VGrizzlies
p2119
sg54
VMagic
p2120
sg56
F-4.0
sg57
F190.5
sa(dp2121
g52
VJazz
p2122
sg54
VHeat
p2123
sg56
F7.5
sg57
F186.5
sa(dp2124
g52
VWarriors
p2125
sg54
VRockets
p2126
sg56
F11.5
sg57
F232.5
sasS'2017-04-12'
p2127
(lp2128
(dp2129
g52
VHawks
p2130
sg54
VHornets
p2131
sg56
F8.5
sg57
F203.5
sa(dp2132
g52
VTimberwolves
p2133
sg54
VThunder
p2134
sg56
F7.5
sg57
F208.5
sa(dp2135
g52
VMavericks
p2136
sg54
VNuggets
p2137
sg56
F2.5
sg57
F213.5
sa(dp2138
g52
VLakers
p2139
sg54
VPelicans
p2140
sg56
F2.5
sg57
F218.5
sa(dp2141
g52
Vsac
p2142
sg54
VSuns
p2143
sg56
F4.5
sg57
F219.0
sasS'2017-01-30'
p2144
(lp2145
(dp2146
g52
VHawks
p2147
sg54
VKnicks
p2148
sg56
F5.5
sg57
F209.5
sa(dp2149
g52
VCavaliers
p2150
sg54
VThunder
p2151
sg56
F7.5
sg57
F216.5
sa(dp2152
g52
VPacers
p2153
sg54
VRockets
p2154
sg56
F-3.5
sg57
F229.5
sa(dp2155
g52
VPelicans
p2156
sg54
VWizards
p2157
sg56
F-1.5
sg57
F221.5
sa(dp2158
g52
VRaptors
p2159
sg54
VMagic
p2160
sg56
F10.5
sg57
F211.5
sa(dp2161
g52
VBulls
p2162
sg54
V76ers
p2163
sg56
F6.5
sg57
F205.5
sa(dp2164
g52
VSpurs
p2165
sg54
VMavericks
p2166
sg56
F12.5
sg57
F195.5
sa(dp2167
g52
VTrail Blaze
p2168
sg54
VWarriors
p2169
sg56
F-5.5
sg57
F224.5
sasS'2017-01-31'
p2170
(lp2171
(dp2172
g52
V76ers
p2173
sg54
Vsac
p2174
sg56
F-2.5
sg57
F207.5
sa(dp2175
g52
VHeat
p2176
sg54
VNets
p2177
sg56
F7.5
sg57
F218.5
sa(dp2178
g52
VCeltics
p2179
sg54
VPistons
p2180
sg56
F5.5
sg57
F217.5
sa(dp2181
g52
VTimberwolves
p2182
sg54
VMagic
p2183
sg56
F8.0
sg57
F213.0
sa(dp2184
g52
VMavericks
p2185
sg54
VCavaliers
p2186
sg56
F-3.5
sg57
F207.5
sa(dp2187
g52
VSuns
p2188
sg54
VGrizzlies
p2189
sg56
F-4.5
sg57
F206.5
sasS'2017-03-18'
p2190
(lp2191
(dp2192
g52
V76ers
p2193
sg54
VMavericks
p2194
sg56
F-5.5
sg57
F205.0
sa(dp2195
g52
VWizards
p2196
sg54
VBulls
p2197
sg56
F7.5
sg57
F211.5
sa(dp2198
g52
VNets
p2199
sg54
VCeltics
p2200
sg56
F-8.5
sg57
F215.5
sa(dp2201
g52
VPistons
p2202
sg54
VRaptors
p2203
sg56
F3.5
sg57
F201.5
sa(dp2204
g52
VHeat
p2205
sg54
VTimberwolves
p2206
sg56
F4.5
sg57
F205.5
sa(dp2207
g52
VPelicans
p2208
sg54
VRockets
p2209
sg56
F-6.5
sg57
F226.5
sa(dp2210
g52
VSuns
p2211
sg54
VMagic
p2212
sg56
F1.5
sg57
F220.5
sa(dp2213
g52
VLakers
p2214
sg54
VMilwaukee
p2215
sg56
F-7.5
sg57
F214.5
sasS'2017-03-19'
p2216
(lp2217
(dp2218
g52
VThunder
p2219
sg54
Vsac
p2220
sg56
F12.5
sg57
F211.5
sa(dp2221
g52
VHawks
p2222
sg54
VTrail Blaze
p2223
sg56
F1.5
sg57
F215.5
sa(dp2224
g52
VHornets
p2225
sg54
VWizards
p2226
sg56
F3.5
sg57
F214.5
sa(dp2227
g52
VClippers
p2228
sg54
VCavaliers
p2229
sg56
F13.5
sg57
F213.5
sa(dp2230
g52
VBulls
p2231
sg54
VJazz
p2232
sg56
F-5.5
sg57
F191.5
sa(dp2233
g52
VGrizzlies
p2234
sg54
VSpurs
p2235
sg56
F-4.5
sg57
F195.5
sa(dp2236
g52
VNuggets
p2237
sg54
VRockets
p2238
sg56
F-1.5
sg57
F240.5
sa(dp2239
g52
VWarriors
p2240
sg54
VMilwaukee
p2241
sg56
F10.5
sg57
F214.5
sa(dp2242
g52
VNets
p2243
sg54
VMavericks
p2244
sg56
F-4.5
sg57
F207.5
sasS'2016-11-19'
p2245
(lp2246
(dp2247
g52
VPacers
p2248
sg54
VSuns
p2249
sg56
F3.5
sg57
F216.5
sa(dp2250
g52
VHornets
p2251
sg54
VHawks
p2252
sg56
F2.5
sg57
F206.5
sa(dp2253
g52
VCavaliers
p2254
sg54
VPistons
p2255
sg56
F8.5
sg57
F202.5
sa(dp2256
g52
VCeltics
p2257
sg54
VWarriors
p2258
sg56
F-8.5
sg57
F224.5
sa(dp2259
g52
VPelicans
p2260
sg54
VTrail Blaze
p2261
sg56
F1.5
sg57
F214.5
sa(dp2262
g52
VThunder
p2263
sg54
VNets
p2264
sg56
F9.5
sg57
F216.5
sa(dp2265
g52
VMavericks
p2266
sg54
VGrizzlies
p2267
sg56
F-3.5
sg57
F185.5
sa(dp2268
g52
VNuggets
p2269
sg54
VRaptors
p2270
sg56
F-3.5
sg57
F213.5
sa(dp2271
g52
VLakers
p2272
sg54
VSpurs
p2273
sg56
F-7.5
sg57
F209.5
sa(dp2274
g52
Vsac
p2275
sg54
VClippers
p2276
sg56
F-8.5
sg57
F202.5
sasS'2016-11-14'
p2277
(lp2278
(dp2279
g52
VCavaliers
p2280
sg54
VHornets
p2281
sg56
F7.0
sg57
F208.0
sa(dp2282
g52
VTimberwolves
p2283
sg54
VLakers
p2284
sg56
F1.0
sg57
F213.5
sa(dp2285
g52
VThunder
p2286
sg54
VMagic
p2287
sg56
F9.5
sg57
F204.0
sa(dp2288
g52
VWarriors
p2289
sg54
VSuns
p2290
sg56
F16.5
sg57
F226.5
sa(dp2291
g52
VTrail Blaze
p2292
sg54
VNuggets
p2293
sg56
F7.5
sg57
F216.5
sasS'2016-11-15'
p2294
(lp2295
(dp2296
g52
VPacers
p2297
sg54
VMagic
p2298
sg56
F8.0
sg57
F206.5
sa(dp2299
g52
VKnicks
p2300
sg54
VMavericks
p2301
sg56
F4.0
sg57
F202.0
sa(dp2302
g52
VPistons
p2303
sg54
VThunder
p2304
sg56
F-1.0
sg57
F202.5
sa(dp2305
g52
VPelicans
p2306
sg54
VCeltics
p2307
sg56
F-3.5
sg57
F212.0
sa(dp2308
g52
VRockets
p2309
sg54
V76ers
p2310
sg56
F11.5
sg57
F215.5
sa(dp2311
g52
VSpurs
p2312
sg54
VHeat
p2313
sg56
F10.5
sg57
F194.5
sa(dp2314
g52
VJazz
p2315
sg54
VGrizzlies
p2316
sg56
F6.5
sg57
F189.5
sa(dp2317
g52
VClippers
p2318
sg54
VNets
p2319
sg56
F16.5
sg57
F212.0
sasS'2016-11-30'
p2320
(lp2321
(dp2322
g52
VHornets
p2323
sg54
VPistons
p2324
sg56
F3.5
sg57
F200.5
sa(dp2325
g52
VNets
p2326
sg54
VClippers
p2327
sg56
F-10.5
sg57
F212.5
sa(dp2328
g52
VPelicans
p2329
sg54
VLakers
p2330
sg56
F5.5
sg57
F217.5
sa(dp2331
g52
VMilwaukee
p2332
sg54
VCavaliers
p2333
sg56
F-7.5
sg57
F214.5
sa(dp2334
g52
VSpurs
p2335
sg54
VMagic
p2336
sg56
F12.5
sg57
F194.5
sa(dp2337
g52
VJazz
p2338
sg54
VRockets
p2339
sg56
F-1.5
sg57
F204.5
sasS'2017-02-17'
p2340
(lp2341
(dp2342
g52
VPacers
p2343
sg54
VWizards
p2344
sg56
F-2.5
sg57
F215.5
sa(dp2345
g52
VBulls
p2346
sg54
VCeltics
p2347
sg56
F-1.5
sg57
F212.5
sasS'2017-02-16'
p2348
(lp2349
(dp2350
g52
VMagic
p2351
sg54
VSpurs
p2352
sg56
F-9.5
sg57
F206.5
sa(dp2353
g52
VCavaliers
p2354
sg54
VPacers
p2355
sg56
F5.5
sg57
F218.5
sa(dp2356
g52
VCeltics
p2357
sg54
V76ers
p2358
sg56
F9.5
sg57
F216.5
sa(dp2359
g52
VNets
p2360
sg54
VMilwaukee
p2361
sg56
F-4.5
sg57
F217.5
sa(dp2362
g52
VPistons
p2363
sg54
VMavericks
p2364
sg56
F4.5
sg57
F201.5
sa(dp2365
g52
VRaptors
p2366
sg54
VHornets
p2367
sg56
F6.5
sg57
F214.5
sa(dp2368
g52
VRockets
p2369
sg54
VHeat
p2370
sg56
F9.5
sg57
F222.5
sa(dp2371
g52
VGrizzlies
p2372
sg54
VPelicans
p2373
sg56
F7.5
sg57
F205.5
sa(dp2374
g52
VJazz
p2375
sg54
VTrail Blaze
p2376
sg56
F8.5
sg57
F205.5
sa(dp2377
g52
VNuggets
p2378
sg54
VTimberwolves
p2379
sg56
F6.5
sg57
F225.5
sa(dp2380
g52
VSuns
p2381
sg54
VLakers
p2382
sg56
F3.5
sg57
F226.5
sa(dp2383
g52
VThunder
p2384
sg54
VKnicks
p2385
sg56
F7.5
sg57
F218.0
sa(dp2386
g52
VWarriors
p2387
sg54
Vsac
p2388
sg56
F18.5
sg57
F226.5
sa(dp2389
g52
VClippers
p2390
sg54
VHawks
p2391
sg56
F3.5
sg57
F212.5
sasS'2017-03-09'
p2392
(lp2393
(dp2394
g52
VMagic
p2395
sg54
VBulls
p2396
sg56
F1.5
sg57
F204.5
sa(dp2397
g52
VHeat
p2398
sg54
VHornets
p2399
sg56
F3.5
sg57
F204.5
sa(dp2400
g52
VHawks
p2401
sg54
VNets
p2402
sg56
F9.5
sg57
F220.5
sa(dp2403
g52
VPacers
p2404
sg54
VPistons
p2405
sg56
F3.5
sg57
F206.5
sa(dp2406
g52
VPelicans
p2407
sg54
VRaptors
p2408
sg56
F3.5
sg57
F204.0
sa(dp2409
g52
VMilwaukee
p2410
sg54
VKnicks
p2411
sg56
F6.5
sg57
F208.5
sa(dp2412
g52
VTimberwolves
p2413
sg54
VClippers
p2414
sg56
F-3.5
sg57
F211.5
sa(dp2415
g52
VRockets
p2416
sg54
VJazz
p2417
sg56
F8.5
sg57
F216.5
sa(dp2418
g52
VSpurs
p2419
sg54
Vsac
p2420
sg56
F12.5
sg57
F196.5
sa(dp2421
g52
VNuggets
p2422
sg54
VWizards
p2423
sg56
F-2.0
sg57
F223.5
sa(dp2424
g52
VWarriors
p2425
sg54
VCeltics
p2426
sg56
F7.5
sg57
F222.5
sasS'2017-02-14'
p2427
(lp2428
(dp2429
g52
VPacers
p2430
sg54
VSpurs
p2431
sg56
F-5.5
sg57
F208.5
sa(dp2432
g52
VHornets
p2433
sg54
V76ers
p2434
sg56
F7.5
sg57
F213.5
sa(dp2435
g52
VHeat
p2436
sg54
VMagic
p2437
sg56
F7.5
sg57
F207.5
sa(dp2438
g52
VNets
p2439
sg54
VGrizzlies
p2440
sg56
F-8.5
sg57
F210.5
sa(dp2441
g52
VWizards
p2442
sg54
VThunder
p2443
sg56
F6.5
sg57
F218.5
sa(dp2444
g52
VMilwaukee
p2445
sg54
VPistons
p2446
sg56
F2.5
sg57
F209.5
sa(dp2447
g52
VMavericks
p2448
sg54
VCeltics
p2449
sg56
F-2.5
sg57
F212.5
sa(dp2450
g52
VJazz
p2451
sg54
VClippers
p2452
sg56
F8.5
sg57
F204.5
sa(dp2453
g52
VNuggets
p2454
sg54
VWarriors
p2455
sg56
F-11.5
sg57
F236.5
sa(dp2456
g52
VSuns
p2457
sg54
VPelicans
p2458
sg56
F2.5
sg57
F221.5
sa(dp2459
g52
VTrail Blaze
p2460
sg54
VHawks
p2461
sg56
F2.5
sg57
F216.5
sasS'2017-02-13'
p2462
(lp2463
(dp2464
g52
VKnicks
p2465
sg54
VSpurs
p2466
sg56
F-9.5
sg57
F211.5
sa(dp2467
g52
VTimberwolves
p2468
sg54
VBulls
p2469
sg56
F7.0
sg57
F204.5
sa(dp2470
g52
VRaptors
p2471
sg54
VPistons
p2472
sg56
F6.5
sg57
F213.0
sa(dp2473
g52
Vsac
p2474
sg54
VPelicans
p2475
sg56
F3.5
sg57
F213.5
sasS'2017-02-12'
p2476
(lp2477
(dp2478
g52
VHornets
p2479
sg54
VClippers
p2480
sg56
F2.5
sg57
F215.5
sa(dp2481
g52
VPacers
p2482
sg54
VMilwaukee
p2483
sg56
F5.5
sg57
F211.5
sa(dp2484
g52
V76ers
p2485
sg54
VHeat
p2486
sg56
F-3.5
sg57
F208.5
sa(dp2487
g52
VCavaliers
p2488
sg54
VNuggets
p2489
sg56
F11.5
sg57
F230.5
sa(dp2490
g52
VThunder
p2491
sg54
VWarriors
p2492
sg56
F-8.0
sg57
F227.0
sa(dp2493
g52
VMavericks
p2494
sg54
VMagic
p2495
sg56
F6.5
sg57
F202.5
sa(dp2496
g52
VRockets
p2497
sg54
VSuns
p2498
sg56
F16.5
sg57
F234.5
sa(dp2499
g52
VJazz
p2500
sg54
VCeltics
p2501
sg56
F6.5
sg57
F204.5
sasS'2017-02-11'
p2502
(lp2503
(dp2504
g52
VNets
p2505
sg54
VHeat
p2506
sg56
F-5.5
sg57
F213.5
sa(dp2507
g52
VKnicks
p2508
sg54
VNuggets
p2509
sg56
F2.0
sg57
F228.5
sa(dp2510
g52
VPistons
p2511
sg54
VSpurs
p2512
sg56
F-4.5
sg57
F208.5
sa(dp2513
g52
VWizards
p2514
sg54
VPacers
p2515
sg56
F6.5
sg57
F215.5
sa(dp2516
g52
VMilwaukee
p2517
sg54
VLakers
p2518
sg56
F5.5
sg57
F218.5
sa(dp2519
g52
VTimberwolves
p2520
sg54
VPelicans
p2521
sg56
F5.5
sg57
F209.5
sa(dp2522
g52
VGrizzlies
p2523
sg54
VWarriors
p2524
sg56
F-7.5
sg57
F216.0
sa(dp2525
g52
Vsac
p2526
sg54
VHawks
p2527
sg56
F-1.5
sg57
F209.5
sa(dp2528
g52
VSuns
p2529
sg54
VBulls
p2530
sg56
F-2.5
sg57
F219.5
sasS'2017-02-10'
p2531
(lp2532
(dp2533
g52
VMagic
p2534
sg54
V76ers
p2535
sg56
F6.5
sg57
F208.5
sa(dp2536
g52
VHornets
p2537
sg54
VRockets
p2538
sg56
F-1.5
sg57
F223.5
sa(dp2539
g52
VThunder
p2540
sg54
VCavaliers
p2541
sg56
F1.5
sg57
F218.5
sa(dp2542
g52
VMavericks
p2543
sg54
VJazz
p2544
sg56
F-2.5
sg57
F193.5
sa(dp2545
g52
VTrail Blaze
p2546
sg54
VCeltics
p2547
sg56
F2.5
sg57
F221.5
sasS'2016-12-13'
p2548
(lp2549
(dp2550
g52
VPacers
p2551
sg54
VHornets
p2552
sg56
F-2.5
sg57
F209.5
sa(dp2553
g52
VHeat
p2554
sg54
VWizards
p2555
sg56
F-1.5
sg57
F207.5
sa(dp2556
g52
VRaptors
p2557
sg54
VMilwaukee
p2558
sg56
F8.0
sg57
F212.5
sa(dp2559
g52
VRockets
p2560
sg54
VNets
p2561
sg56
F12.5
sg57
F228.5
sa(dp2562
g52
VMavericks
p2563
sg54
VNuggets
p2564
sg56
F-2.5
sg57
F204.0
sa(dp2565
g52
Vsac
p2566
sg54
VLakers
p2567
sg56
F9.0
sg57
F217.5
sa(dp2568
g52
VClippers
p2569
sg54
VTrail Blaze
p2570
sg56
F10.5
sg57
F219.5
sasS'2017-03-02'
p2571
(lp2572
(dp2573
g52
VMagic
p2574
sg54
VKnicks
p2575
sg56
F2.5
sg57
F215.5
sa(dp2576
g52
VHeat
p2577
sg54
V76ers
p2578
sg56
F10.5
sg57
F214.5
sa(dp2579
g52
VHawks
p2580
sg54
VMavericks
p2581
sg56
F5.5
sg57
F194.5
sa(dp2582
g52
VRaptors
p2583
sg54
VWizards
p2584
sg56
F4.5
sg57
F208.5
sa(dp2585
g52
VCeltics
p2586
sg54
VCavaliers
p2587
sg56
F2.0
sg57
F224.5
sa(dp2588
g52
VPelicans
p2589
sg54
VPistons
p2590
sg56
F2.5
sg57
F208.5
sa(dp2591
g52
VMilwaukee
p2592
sg54
VNuggets
p2593
sg56
F4.5
sg57
F223.5
sa(dp2594
g52
VSpurs
p2595
sg54
VPacers
p2596
sg56
F9.5
sg57
F206.5
sa(dp2597
g52
VJazz
p2598
sg54
VTimberwolves
p2599
sg56
F6.5
sg57
F200.5
sa(dp2600
g52
Vsac
p2601
sg54
VNets
p2602
sg56
F2.5
sg57
F216.0
sa(dp2603
g52
VClippers
p2604
sg54
VRockets
p2605
sg56
F3.5
sg57
F237.5
sasS'2017-03-01'
p2606
(lp2607
(dp2608
g52
VWizards
p2609
sg54
VWarriors
p2610
sg56
F-6.5
sg57
F230.5
sa(dp2611
g52
VPistons
p2612
sg54
VTrail Blaze
p2613
sg56
F4.5
sg57
F210.5
sa(dp2614
g52
VBulls
p2615
sg54
VNuggets
p2616
sg56
F3.5
sg57
F223.5
sa(dp2617
g52
VGrizzlies
p2618
sg54
VSuns
p2619
sg56
F8.5
sg57
F211.5
sa(dp2620
g52
VThunder
p2621
sg54
VJazz
p2622
sg56
F-1.5
sg57
F202.5
sa(dp2623
g52
VLakers
p2624
sg54
VHornets
p2625
sg56
F-4.5
sg57
F216.5
sasS'2016-12-10'
p2626
(lp2627
(dp2628
g52
VHornets
p2629
sg54
VMagic
p2630
sg56
F6.5
sg57
F201.5
sa(dp2631
g52
VCeltics
p2632
sg54
VRaptors
p2633
sg56
F2.5
sg57
F206.5
sa(dp2634
g52
VCavaliers
p2635
sg54
VHeat
p2636
sg56
F11.5
sg57
F207.5
sa(dp2637
g52
VMilwaukee
p2638
sg54
VHawks
p2639
sg56
F3.5
sg57
F205.5
sa(dp2640
g52
VTimberwolves
p2641
sg54
VPistons
p2642
sg56
F-3.5
sg57
F203.0
sa(dp2643
g52
VThunder
p2644
sg54
VRockets
p2645
sg56
F-1.5
sg57
F223.5
sa(dp2646
g52
VMavericks
p2647
sg54
VPacers
p2648
sg56
F-3.0
sg57
F199.5
sa(dp2649
g52
VLakers
p2650
sg54
VSuns
p2651
sg56
F1.5
sg57
F219.5
sa(dp2652
g52
Vsac
p2653
sg54
VKnicks
p2654
sg56
F5.5
sg57
F210.5
sasS'2017-03-07'
p2655
(lp2656
(dp2657
g52
VMagic
p2658
sg54
VKnicks
p2659
sg56
F5.5
sg57
F205.5
sa(dp2660
g52
V76ers
p2661
sg54
VMilwaukee
p2662
sg56
F-6.5
sg57
F210.5
sa(dp2663
g52
VCavaliers
p2664
sg54
VHeat
p2665
sg56
F10.5
sg57
F211.5
sa(dp2666
g52
VPistons
p2667
sg54
VBulls
p2668
sg56
F6.5
sg57
F204.5
sa(dp2669
g52
VHawks
p2670
sg54
VWarriors
p2671
sg56
F-5.5
sg57
F215.5
sa(dp2672
g52
VTimberwolves
p2673
sg54
VTrail Blaze
p2674
sg56
F4.5
sg57
F214.5
sa(dp2675
g52
VGrizzlies
p2676
sg54
VNets
p2677
sg56
F10.5
sg57
F213.0
sa(dp2678
g52
VHornets
p2679
sg54
VPacers
p2680
sg56
F4.5
sg57
F204.5
sa(dp2681
g52
VSpurs
p2682
sg54
VRockets
p2683
sg56
F3.5
sg57
F222.5
sa(dp2684
g52
VJazz
p2685
sg54
VPelicans
p2686
sg56
F5.5
sg57
F196.5
sa(dp2687
g52
VNuggets
p2688
sg54
Vsac
p2689
sg56
F10.5
sg57
F215.5
sa(dp2690
g52
VClippers
p2691
sg54
VCeltics
p2692
sg56
F7.5
sg57
F219.5
sasS'2016-12-16'
p2693
(lp2694
(dp2695
g52
VPelicans
p2696
sg54
VPacers
p2697
sg56
F2.5
sg57
F208.5
sa(dp2698
g52
VMilwaukee
p2699
sg54
VBulls
p2700
sg56
F-1.5
sg57
F206.5
sa(dp2701
g52
VNuggets
p2702
sg54
VTrail Blaze
p2703
sg56
F2.5
sg57
F221.5
sa(dp2704
g52
VSuns
p2705
sg54
VSpurs
p2706
sg56
F-8.5
sg57
F211.5
sa(dp2707
g52
VWarriors
p2708
sg54
VKnicks
p2709
sg56
F17.5
sg57
F222.5
sasS'2017-03-05'
p2710
(lp2711
(dp2712
g52
V76ers
p2713
sg54
VPistons
p2714
sg56
F-5.5
sg57
F210.5
sa(dp2715
g52
VHeat
p2716
sg54
VCavaliers
p2717
sg56
F7.5
sg57
F208.5
sa(dp2718
g52
VMilwaukee
p2719
sg54
VRaptors
p2720
sg56
F1.5
sg57
F202.5
sa(dp2721
g52
VBulls
p2722
sg54
VClippers
p2723
sg56
F-3.5
sg57
F209.5
sa(dp2724
g52
VSpurs
p2725
sg54
VTimberwolves
p2726
sg56
F7.5
sg57
F204.5
sa(dp2727
g52
VRockets
p2728
sg54
VGrizzlies
p2729
sg56
F8.5
sg57
F220.5
sa(dp2730
g52
VNuggets
p2731
sg54
VHornets
p2732
sg56
F5.5
sg57
F221.5
sa(dp2733
g52
VTrail Blaze
p2734
sg54
VNets
p2735
sg56
F10.5
sg57
F222.5
sasS'2017-03-04'
p2736
(lp2737
(dp2738
g52
VMagic
p2739
sg54
VHeat
p2740
sg56
F-5.5
sg57
F210.5
sa(dp2741
g52
V76ers
p2742
sg54
VKnicks
p2743
sg56
F-2.5
sg57
F217.5
sa(dp2744
g52
VWizards
p2745
sg54
VRaptors
p2746
sg56
F5.5
sg57
F207.5
sa(dp2747
g52
VHawks
p2748
sg54
VCavaliers
p2749
sg56
F-2.5
sg57
F213.5
sa(dp2750
g52
VMilwaukee
p2751
sg54
VClippers
p2752
sg56
F-5.5
sg57
F210.5
sa(dp2753
g52
VMavericks
p2754
sg54
VGrizzlies
p2755
sg56
F-2.5
sg57
F189.5
sa(dp2756
g52
VJazz
p2757
sg54
VNets
p2758
sg56
F12.5
sg57
F205.5
sa(dp2759
g52
VSuns
p2760
sg54
VThunder
p2761
sg56
F-5.5
sg57
F226.5
sa(dp2762
g52
VPelicans
p2763
sg54
VSpurs
p2764
sg56
F-5.5
sg57
F207.5
sa(dp2765
g52
VLakers
p2766
sg54
VCeltics
p2767
sg56
F-7.5
sg57
F219.5
sasS'2017-01-29'
p2768
(lp2769
(dp2770
g52
VHornets
p2771
sg54
Vsac
p2772
sg56
F7.5
sg57
F202.5
sa(dp2773
g52
VHeat
p2774
sg54
VPistons
p2775
sg56
F-3.0
sg57
F202.0
sa(dp2776
g52
VMilwaukee
p2777
sg54
VCeltics
p2778
sg56
F2.5
sg57
F217.5
sa(dp2779
g52
VWarriors
p2780
sg54
VClippers
p2781
sg56
F12.5
sg57
F224.5
sa(dp2782
g52
VTimberwolves
p2783
sg54
VNets
p2784
sg56
F11.5
sg57
F220.5
sa(dp2785
g52
VJazz
p2786
sg54
VGrizzlies
p2787
sg56
F7.5
sg57
F188.5
sa(dp2788
g52
VSuns
p2789
sg54
VNuggets
p2790
sg56
F3.5
sg57
F227.5
sasS'2017-01-28'
p2791
(lp2792
(dp2793
g52
VPacers
p2794
sg54
Vsac
p2795
sg56
F3.5
sg57
F212.5
sa(dp2796
g52
VCeltics
p2797
sg54
VMagic
p2798
sg56
F6.5
sg57
F212.5
sa(dp2799
g52
VKnicks
p2800
sg54
VHornets
p2801
sg56
F-1.5
sg57
F211.5
sa(dp2802
g52
VRaptors
p2803
sg54
VMilwaukee
p2804
sg56
F5.5
sg57
F212.5
sa(dp2805
g52
VCavaliers
p2806
sg54
VNets
p2807
sg56
F17.0
sg57
F226.0
sa(dp2808
g52
V76ers
p2809
sg54
VRockets
p2810
sg56
F-6.5
sg57
F221.5
sa(dp2811
g52
VPelicans
p2812
sg54
VSpurs
p2813
sg56
F-6.5
sg57
F212.0
sa(dp2814
g52
VHawks
p2815
sg54
VWizards
p2816
sg56
F3.5
sg57
F214.5
sa(dp2817
g52
VBulls
p2818
sg54
VHeat
p2819
sg56
F6.5
sg57
F204.5
sa(dp2820
g52
VTrail Blaze
p2821
sg54
VGrizzlies
p2822
sg56
F1.5
sg57
F206.5
sasS'2017-01-27'
p2823
(lp2824
(dp2825
g52
VTimberwolves
p2826
sg54
VPacers
p2827
sg56
F2.5
sg57
F213.5
sa(dp2828
g52
VThunder
p2829
sg54
VMavericks
p2830
sg56
F9.5
sg57
F196.5
sa(dp2831
g52
VNuggets
p2832
sg54
VSuns
p2833
sg56
F6.5
sg57
F232.5
sa(dp2834
g52
VJazz
p2835
sg54
VLakers
p2836
sg56
F13.5
sg57
F198.5
sasS'2017-01-26'
p2837
(lp2838
(dp2839
g52
VCavaliers
p2840
sg54
Vsac
p2841
sg56
F10.5
sg57
F215.5
sa(dp2842
g52
VCeltics
p2843
sg54
VRockets
p2844
sg56
F-4.5
sg57
F229.5
sa(dp2845
g52
VNets
p2846
sg54
VHeat
p2847
sg56
F-2.5
sg57
F217.5
sa(dp2848
g52
VPelicans
p2849
sg54
VThunder
p2850
sg56
F-1.5
sg57
F217.5
sa(dp2851
g52
VMilwaukee
p2852
sg54
V76ers
p2853
sg56
F11.0
sg57
F207.0
sa(dp2854
g52
VBulls
p2855
sg54
VHawks
p2856
sg56
F-1.5
sg57
F203.5
sa(dp2857
g52
VGrizzlies
p2858
sg54
VRaptors
p2859
sg56
F4.5
sg57
F201.5
sa(dp2860
g52
VHornets
p2861
sg54
VWarriors
p2862
sg56
F-9.5
sg57
F223.5
sa(dp2863
g52
VMavericks
p2864
sg54
VKnicks
p2865
sg56
F3.5
sg57
F200.5
sa(dp2866
g52
VTrail Blaze
p2867
sg54
VLakers
p2868
sg56
F7.5
sg57
F221.5
sasS'2017-01-25'
p2869
(lp2870
(dp2871
g52
VMagic
p2872
sg54
VBulls
p2873
sg56
F-3.5
sg57
F203.5
sa(dp2874
g52
V76ers
p2875
sg54
VClippers
p2876
sg56
F-1.5
sg57
F203.5
sa(dp2877
g52
VWizards
p2878
sg54
VCeltics
p2879
sg56
F1.5
sg57
F216.5
sa(dp2880
g52
VRaptors
p2881
sg54
VSpurs
p2882
sg56
F2.5
sg57
F201.5
sa(dp2883
g52
VNuggets
p2884
sg54
VJazz
p2885
sg56
F2.0
sg57
F211.0
sa(dp2886
g52
VSuns
p2887
sg54
VTimberwolves
p2888
sg56
F-1.5
sg57
F215.5
sasS'2017-01-24'
p2889
(lp2890
(dp2891
g52
VHornets
p2892
sg54
VWizards
p2893
sg56
F6.5
sg57
F212.5
sa(dp2894
g52
VHeat
p2895
sg54
VWarriors
p2896
sg56
F-11.5
sg57
F217.5
sa(dp2897
g52
VNets
p2898
sg54
VSpurs
p2899
sg56
F-8.0
sg57
F214.5
sa(dp2900
g52
VPistons
p2901
sg54
Vsac
p2902
sg56
F6.5
sg57
F205.5
sa(dp2903
g52
VHawks
p2904
sg54
VClippers
p2905
sg56
F7.5
sg57
F206.5
sa(dp2906
g52
VPacers
p2907
sg54
VKnicks
p2908
sg56
F5.5
sg57
F218.5
sa(dp2909
g52
VPelicans
p2910
sg54
VCavaliers
p2911
sg56
F-9.5
sg57
F215.5
sa(dp2912
g52
VMilwaukee
p2913
sg54
VRockets
p2914
sg56
F-4.5
sg57
F225.5
sa(dp2915
g52
VJazz
p2916
sg54
VThunder
p2917
sg56
F4.5
sg57
F201.5
sasS'2017-01-23'
p2918
(lp2919
(dp2920
g52
VMagic
p2921
sg54
VWarriors
p2922
sg56
F-13.5
sg57
F224.5
sa(dp2923
g52
VMavericks
p2924
sg54
VLakers
p2925
sg56
F5.5
sg57
F207.5
sa(dp2926
g52
VRaptors
p2927
sg54
VSuns
p2928
sg56
F11.5
sg57
F221.5
sa(dp2929
g52
VTimberwolves
p2930
sg54
VNuggets
p2931
sg56
F3.5
sg57
F221.0
sasS'2017-01-22'
p2932
(lp2933
(dp2934
g52
VCeltics
p2935
sg54
VTrail Blaze
p2936
sg56
F8.5
sg57
F217.5
sa(dp2937
g52
VPistons
p2938
sg54
VWizards
p2939
sg56
F1.5
sg57
F206.5
sa(dp2940
g52
VHawks
p2941
sg54
V76ers
p2942
sg56
F10.5
sg57
F197.5
sa(dp2943
g52
VHornets
p2944
sg54
VNets
p2945
sg56
F11.5
sg57
F221.5
sa(dp2946
g52
VHeat
p2947
sg54
VMilwaukee
p2948
sg56
F-1.5
sg57
F203.5
sa(dp2949
g52
VKnicks
p2950
sg54
VSuns
p2951
sg56
F5.5
sg57
F223.5
sa(dp2952
g52
VGrizzlies
p2953
sg54
VRockets
p2954
sg56
F-1.5
sg57
F215.5
sa(dp2955
g52
VCavaliers
p2956
sg54
VSpurs
p2957
sg56
F3.5
sg57
F212.5
sa(dp2958
g52
VBulls
p2959
sg54
Vsac
p2960
sg56
F6.5
sg57
F203.5
sa(dp2961
g52
VJazz
p2962
sg54
VPacers
p2963
sg56
F7.5
sg57
F199.5
sa(dp2964
g52
VNuggets
p2965
sg54
VClippers
p2966
sg56
F5.0
sg57
F222.5
sasS'2017-01-21'
p2967
(lp2968
(dp2969
g52
VMagic
p2970
sg54
VMilwaukee
p2971
sg56
F-2.5
sg57
F211.5
sa(dp2972
g52
V76ers
p2973
sg54
VTrail Blaze
p2974
sg56
F-2.5
sg57
F208.5
sa(dp2975
g52
VHornets
p2976
sg54
VRaptors
p2977
sg56
F1.5
sg57
F216.0
sa(dp2978
g52
VPelicans
p2979
sg54
VNets
p2980
sg56
F9.5
sg57
F221.5
sa(dp2981
g52
VHawks
p2982
sg54
VBulls
p2983
sg56
F3.5
sg57
F203.5
sa(dp2984
g52
VRockets
p2985
sg54
VWarriors
p2986
sg56
F-4.5
sg57
F240.5
sa(dp2987
g52
VGrizzlies
p2988
sg54
Vsac
p2989
sg56
F7.5
sg57
F199.5
sa(dp2990
g52
VMavericks
p2991
sg54
VJazz
p2992
sg56
F-4.5
sg57
F190.5
sa(dp2993
g52
VLakers
p2994
sg54
VPacers
p2995
sg56
F-3.5
sg57
F219.5
sasS'2017-01-20'
p2996
(lp2997
(dp2998
g52
VCavaliers
p2999
sg54
VSuns
p3000
sg56
F10.5
sg57
F219.5
sa(dp3001
g52
VHeat
p3002
sg54
VMavericks
p3003
sg56
F2.5
sg57
F201.5
sa(dp3004
g52
VKnicks
p3005
sg54
VWizards
p3006
sg56
F-1.5
sg57
F220.5
sa(dp3007
g52
VSpurs
p3008
sg54
VNuggets
p3009
sg56
F12.5
sg57
F216.5
sa(dp3010
g52
VClippers
p3011
sg54
VTimberwolves
p3012
sg56
F-1.5
sg57
F208.5
sasS'2016-11-23'
p3013
(lp3014
(dp3015
g52
VKnicks
p3016
sg54
VTrail Blaze
p3017
sg56
F1.5
sg57
F217.5
sa(dp3018
g52
VHawks
p3019
sg54
VPelicans
p3020
sg56
F7.5
sg57
F209.5
sa(dp3021
g52
VNuggets
p3022
sg54
VBulls
p3023
sg56
F-1.5
sg57
F207.5
sa(dp3024
g52
VLakers
p3025
sg54
VThunder
p3026
sg56
F-2.5
sg57
F220.5
sasS'2016-11-22'
p3027
(lp3028
(dp3029
g52
V76ers
p3030
sg54
VHeat
p3031
sg56
F-4.5
sg57
F201.5
sa(dp3032
g52
VWizards
p3033
sg54
VSuns
p3034
sg56
F7.5
sg57
F218.5
sa(dp3035
g52
VPacers
p3036
sg54
VWarriors
p3037
sg56
F-14.5
sg57
F218.5
sa(dp3038
g52
VHornets
p3039
sg54
VGrizzlies
p3040
sg56
F5.5
sg57
F197.5
sa(dp3041
g52
VPistons
p3042
sg54
VRockets
p3043
sg56
F-2.5
sg57
F209.5
sa(dp3044
g52
VMilwaukee
p3045
sg54
VMagic
p3046
sg56
F6.5
sg57
F200.0
sa(dp3047
g52
VTimberwolves
p3048
sg54
VCeltics
p3049
sg56
F-1.5
sg57
F206.5
sa(dp3050
g52
VSpurs
p3051
sg54
VMavericks
p3052
sg56
F13.5
sg57
F186.5
sa(dp3053
g52
VClippers
p3054
sg54
VRaptors
p3055
sg56
F8.5
sg57
F207.5
sasS'2016-11-21'
p3056
(lp3057
(dp3058
g52
VKnicks
p3059
sg54
VHawks
p3060
sg56
F-4.5
sg57
F209.0
sa(dp3061
g52
VNets
p3062
sg54
VTrail Blaze
p3063
sg56
F-4.5
sg57
F218.5
sa(dp3064
g52
VThunder
p3065
sg54
VPacers
p3066
sg56
F9.5
sg57
F209.5
sa(dp3067
g52
VNuggets
p3068
sg54
VJazz
p3069
sg56
F3.5
sg57
F197.5
sa(dp3070
g52
Vsac
p3071
sg54
VRaptors
p3072
sg56
F-3.5
sg57
F211.5
sa(dp3073
g52
VLakers
p3074
sg54
VBulls
p3075
sg56
F2.5
sg57
F209.5
sasS'2016-11-20'
p3076
(lp3077
(dp3078
g52
VRockets
p3079
sg54
VJazz
p3080
sg56
F6.5
sg57
F200.5
sa(dp3081
g52
VMagic
p3082
sg54
VMavericks
p3083
sg56
F7.5
sg57
F179.5
sa(dp3084
g52
VWizards
p3085
sg54
VHeat
p3086
sg56
F4.5
sg57
F199.5
sa(dp3087
g52
VPistons
p3088
sg54
VCeltics
p3089
sg56
F1.5
sg57
F198.5
sa(dp3090
g52
VPelicans
p3091
sg54
VHornets
p3092
sg56
F-2.0
sg57
F206.0
sa(dp3093
g52
V76ers
p3094
sg54
VSuns
p3095
sg56
F-1.5
sg57
F209.5
sa(dp3096
g52
VGrizzlies
p3097
sg54
VTimberwolves
p3098
sg56
F-1.5
sg57
F200.5
sa(dp3099
g52
VMilwaukee
p3100
sg54
VWarriors
p3101
sg56
F-9.5
sg57
F218.5
sa(dp3102
g52
VClippers
p3103
sg54
VBulls
p3104
sg56
F7.5
sg57
F202.5
sasS'2016-11-27'
p3105
(lp3106
(dp3107
g52
VWizards
p3108
sg54
VSpurs
p3109
sg56
F-5.5
sg57
F205.5
sa(dp3110
g52
VHornets
p3111
sg54
VKnicks
p3112
sg56
F5.5
sg57
F206.5
sa(dp3113
g52
VHeat
p3114
sg54
VGrizzlies
p3115
sg56
F-1.5
sg57
F185.5
sa(dp3116
g52
VThunder
p3117
sg54
VPistons
p3118
sg56
F4.5
sg57
F201.5
sa(dp3119
g52
VWarriors
p3120
sg54
VTimberwolves
p3121
sg56
F12.5
sg57
F223.5
sasS'2016-11-26'
p3122
(lp3123
(dp3124
g52
VCeltics
p3125
sg54
VSpurs
p3126
sg56
F-3.0
sg57
F200.0
sa(dp3127
g52
VMagic
p3128
sg54
VWizards
p3129
sg56
F-1.5
sg57
F198.5
sa(dp3130
g52
VKnicks
p3131
sg54
VHornets
p3132
sg56
F-1.5
sg57
F209.5
sa(dp3133
g52
V76ers
p3134
sg54
VBulls
p3135
sg56
F-9.5
sg57
F205.5
sa(dp3136
g52
VPistons
p3137
sg54
VClippers
p3138
sg56
F-6.5
sg57
F199.5
sa(dp3139
g52
VCavaliers
p3140
sg54
VMavericks
p3141
sg56
F12.5
sg57
F201.5
sa(dp3142
g52
VPacers
p3143
sg54
VNets
p3144
sg56
F5.5
sg57
F214.5
sa(dp3145
g52
VMilwaukee
p3146
sg54
VRaptors
p3147
sg56
F-3.5
sg57
F208.5
sa(dp3148
g52
VJazz
p3149
sg54
VHawks
p3150
sg56
F3.5
sg57
F195.5
sa(dp3151
g52
VGrizzlies
p3152
sg54
VHeat
p3153
sg56
F5.0
sg57
F185.0
sa(dp3154
g52
VNuggets
p3155
sg54
VThunder
p3156
sg56
F-2.5
sg57
F215.5
sa(dp3157
g52
VSuns
p3158
sg54
VTimberwolves
p3159
sg56
F-2.5
sg57
F214.0
sa(dp3160
g52
VTrail Blaze
p3161
sg54
VPelicans
p3162
sg56
F3.5
sg57
F217.5
sa(dp3163
g52
VLakers
p3164
sg54
VWarriors
p3165
sg56
F-14.5
sg57
F228.5
sa(dp3166
g52
Vsac
p3167
sg54
VRockets
p3168
sg56
F-3.5
sg57
F216.5
sasS'2016-11-24'
p3169
(lp3170
(dp3171
g52
VMagic
p3172
sg54
VSuns
p3173
sg56
F4.5
sg57
F208.5
sa(dp3174
g52
V76ers
p3175
sg54
VGrizzlies
p3176
sg56
F-6.5
sg57
F195.5
sa(dp3177
g52
VPacers
p3178
sg54
VHawks
p3179
sg56
F-1.5
sg57
F204.5
sa(dp3180
g52
VCavaliers
p3181
sg54
VTrail Blaze
p3182
sg56
F11.5
sg57
F218.5
sa(dp3183
g52
VHornets
p3184
sg54
VSpurs
p3185
sg56
F-5.5
sg57
F200.5
sa(dp3186
g52
VNets
p3187
sg54
VCeltics
p3188
sg56
F-7.5
sg57
F214.5
sa(dp3189
g52
VPistons
p3190
sg54
VHeat
p3191
sg56
F5.5
sg57
F188.5
sa(dp3192
g52
VRockets
p3193
sg54
VRaptors
p3194
sg56
F4.5
sg57
F216.5
sa(dp3195
g52
VMavericks
p3196
sg54
VClippers
p3197
sg56
F-10.5
sg57
F193.5
sa(dp3198
g52
VJazz
p3199
sg54
VNuggets
p3200
sg56
F8.5
sg57
F200.5
sa(dp3201
g52
VPelicans
p3202
sg54
VTimberwolves
p3203
sg56
F-2.5
sg57
F210.5
sa(dp3204
g52
Vsac
p3205
sg54
VThunder
p3206
sg56
F2.5
sg57
F213.5
sa(dp3207
g52
VWarriors
p3208
sg54
VLakers
p3209
sg56
F18.5
sg57
F230.5
sasS'2016-11-29'
p3210
(lp3211
(dp3212
g52
VWizards
p3213
sg54
Vsac
p3214
sg56
F5.5
sg57
F210.5
sa(dp3215
g52
VHeat
p3216
sg54
VCeltics
p3217
sg56
F-3.5
sg57
F199.5
sa(dp3218
g52
VKnicks
p3219
sg54
VThunder
p3220
sg56
F-1.5
sg57
F215.5
sa(dp3221
g52
VRaptors
p3222
sg54
V76ers
p3223
sg56
F14.5
sg57
F206.5
sa(dp3224
g52
VTimberwolves
p3225
sg54
VJazz
p3226
sg56
F-2.5
sg57
F193.5
sa(dp3227
g52
VGrizzlies
p3228
sg54
VHornets
p3229
sg56
F-1.5
sg57
F197.5
sa(dp3230
g52
VWarriors
p3231
sg54
VHawks
p3232
sg56
F14.5
sg57
F216.5
sasS'2016-11-28'
p3233
(lp3234
(dp3235
g52
V76ers
p3236
sg54
VCavaliers
p3237
sg56
F-11.0
sg57
F210.0
sa(dp3238
g52
VSuns
p3239
sg54
VNuggets
p3240
sg56
F2.5
sg57
F214.5
sa(dp3241
g52
VNets
p3242
sg54
Vsac
p3243
sg56
F-4.5
sg57
F220.5
sa(dp3244
g52
VMagic
p3245
sg54
VMilwaukee
p3246
sg56
F1.5
sg57
F197.5
sa(dp3247
g52
VPacers
p3248
sg54
VClippers
p3249
sg56
F-11.5
sg57
F205.5
sa(dp3250
g52
VMavericks
p3251
sg54
VPelicans
p3252
sg56
F-5.5
sg57
F196.5
sa(dp3253
g52
VTrail Blaze
p3254
sg54
VRockets
p3255
sg56
F-1.5
sg57
F226.5
sa(dp3256
g52
VLakers
p3257
sg54
VHawks
p3258
sg56
F-5.5
sg57
F209.5
sasS'2016-12-14'
p3259
(lp3260
(dp3261
g52
VCavaliers
p3262
sg54
VGrizzlies
p3263
sg56
F14.5
sg57
F201.0
sa(dp3264
g52
VHawks
p3265
sg54
VMagic
p3266
sg56
F8.5
sg57
F201.5
sa(dp3267
g52
VPelicans
p3268
sg54
VWarriors
p3269
sg56
F-10.5
sg57
F225.5
sa(dp3270
g52
VBulls
p3271
sg54
VTimberwolves
p3272
sg56
F6.5
sg57
F208.5
sa(dp3273
g52
VSuns
p3274
sg54
VKnicks
p3275
sg56
F-2.0
sg57
F218.0
sa(dp3276
g52
VTrail Blaze
p3277
sg54
VThunder
p3278
sg56
F2.5
sg57
F219.5
sasS'2016-12-04'
p3279
(lp3280
(dp3281
g52
VMilwaukee
p3282
sg54
VNets
p3283
sg56
F9.5
sg57
F214.5
sa(dp3284
g52
VHornets
p3285
sg54
VTimberwolves
p3286
sg56
F5.5
sg57
F211.5
sa(dp3287
g52
V76ers
p3288
sg54
VCeltics
p3289
sg56
F-9.5
sg57
F205.5
sa(dp3290
g52
VRaptors
p3291
sg54
VHawks
p3292
sg56
F8.5
sg57
F207.5
sa(dp3293
g52
VGrizzlies
p3294
sg54
VLakers
p3295
sg56
F2.5
sg57
F197.5
sa(dp3296
g52
VMavericks
p3297
sg54
VBulls
p3298
sg56
F-3.5
sg57
F190.5
sa(dp3299
g52
VJazz
p3300
sg54
VNuggets
p3301
sg56
F7.5
sg57
F200.5
sa(dp3302
g52
VTrail Blaze
p3303
sg54
VHeat
p3304
sg56
F6.5
sg57
F215.5
sa(dp3305
g52
VWarriors
p3306
sg54
VSuns
p3307
sg56
F16.5
sg57
F228.5
sasS'2017-03-15'
p3308
(lp3309
(dp3310
g52
VCavaliers
p3311
sg54
VPistons
p3312
sg56
F7.5
sg57
F214.5
sa(dp3313
g52
VNets
p3314
sg54
VThunder
p3315
sg56
F-6.5
sg57
F225.5
sa(dp3316
g52
VKnicks
p3317
sg54
VPacers
p3318
sg56
F-3.5
sg57
F209.5
sa(dp3319
g52
VPelicans
p3320
sg54
VTrail Blaze
p3321
sg56
F3.5
sg57
F214.5
sa(dp3322
g52
VWarriors
p3323
sg54
V76ers
p3324
sg56
F16.5
sg57
F220.5
sasS'2017-03-16'
p3325
(lp3326
(dp3327
g52
VWizards
p3328
sg54
VMavericks
p3329
sg56
F7.5
sg57
F207.5
sa(dp3330
g52
VPacers
p3331
sg54
VHornets
p3332
sg56
F2.5
sg57
F201.5
sa(dp3333
g52
VCeltics
p3334
sg54
VTimberwolves
p3335
sg56
F5.5
sg57
F210.5
sa(dp3336
g52
VHeat
p3337
sg54
VPelicans
p3338
sg56
F6.5
sg57
F204.5
sa(dp3339
g52
VPistons
p3340
sg54
VJazz
p3341
sg56
F-2.5
sg57
F198.5
sa(dp3342
g52
VBulls
p3343
sg54
VGrizzlies
p3344
sg56
F-2.5
sg57
F202.5
sa(dp3345
g52
VSpurs
p3346
sg54
VTrail Blaze
p3347
sg56
F11.5
sg57
F209.5
sa(dp3348
g52
VRockets
p3349
sg54
VLakers
p3350
sg56
F17.5
sg57
F234.5
sa(dp3351
g52
VSuns
p3352
sg54
Vsac
p3353
sg56
F5.5
sg57
F219.5
sa(dp3354
g52
VClippers
p3355
sg54
VMilwaukee
p3356
sg56
F7.5
sg57
F204.5
sasS'2017-03-17'
p3357
(lp3358
(dp3359
g52
VRaptors
p3360
sg54
VThunder
p3361
sg56
F1.5
sg57
F207.5
sa(dp3362
g52
VCavaliers
p3363
sg54
VJazz
p3364
sg56
F8.5
sg57
F209.5
sa(dp3365
g52
VKnicks
p3366
sg54
VNets
p3367
sg56
F4.5
sg57
F220.5
sa(dp3368
g52
VHawks
p3369
sg54
VGrizzlies
p3370
sg56
F3.5
sg57
F201.5
sa(dp3371
g52
VNuggets
p3372
sg54
VClippers
p3373
sg56
F5.5
sg57
F221.5
sa(dp3374
g52
VWarriors
p3375
sg54
VMagic
p3376
sg56
F13.5
sg57
F219.5
sasS'2017-04-11'
p3377
(lp3378
(dp3379
g52
V76ers
p3380
sg54
VPacers
p3381
sg56
F-8.5
sg57
F211.5
sa(dp3382
g52
VCeltics
p3383
sg54
VNets
p3384
sg56
F10.5
sg57
F222.5
sa(dp3385
g52
VHeat
p3386
sg54
VCavaliers
p3387
sg56
F10.5
sg57
F204.5
sa(dp3388
g52
VPistons
p3389
sg54
VWizards
p3390
sg56
F5.5
sg57
F206.5
sa(dp3391
g52
VMilwaukee
p3392
sg54
VHornets
p3393
sg56
F6.5
sg57
F197.5
sa(dp3394
g52
VBulls
p3395
sg54
VMagic
p3396
sg56
F8.0
sg57
F214.5
sa(dp3397
g52
VTrail Blaze
p3398
sg54
VSpurs
p3399
sg56
F-9.5
sg57
F193.5
sa(dp3400
g52
VWarriors
p3401
sg54
VJazz
p3402
sg56
F9.5
sg57
F206.5
sa(dp3403
g52
VClippers
p3404
sg54
VRockets
p3405
sg56
F9.5
sg57
F230.5
sasS'2017-03-06'
p3406
(lp3407
(dp3408
g52
VHawks
p3409
sg54
VPacers
p3410
sg56
F3.5
sg57
F209.5
sa(dp3411
g52
VKnicks
p3412
sg54
VWarriors
p3413
sg56
F-10.5
sg57
F219.5
sa(dp3414
g52
VWizards
p3415
sg54
VMagic
p3416
sg56
F12.5
sg57
F217.5
sa(dp3417
g52
VSuns
p3418
sg54
VCeltics
p3419
sg56
F-4.5
sg57
F228.5
sa(dp3420
g52
Vsac
p3421
sg54
VJazz
p3422
sg56
F-9.5
sg57
F190.5
sa(dp3423
g52
VMavericks
p3424
sg54
VThunder
p3425
sg56
F1.5
sg57
F207.5
sa(dp3426
g52
VLakers
p3427
sg54
VPelicans
p3428
sg56
F-6.5
sg57
F215.5
sasS'2017-04-10'
p3429
(lp3430
(dp3431
g52
VHawks
p3432
sg54
VCavaliers
p3433
sg56
F-5.5
sg57
F214.5
sa(dp3434
g52
VNuggets
p3435
sg54
VThunder
p3436
sg56
F4.5
sg57
F228.5
sa(dp3437
g52
VGrizzlies
p3438
sg54
VPistons
p3439
sg56
F4.5
sg57
F194.5
sa(dp3440
g52
Vsac
p3441
sg54
VRockets
p3442
sg56
F-9.5
sg57
F227.5
sa(dp3443
g52
VSuns
p3444
sg54
VMavericks
p3445
sg56
F1.5
sg57
F209.5
sa(dp3446
g52
VLakers
p3447
sg54
VTimberwolves
p3448
sg56
F-6.5
sg57
F221.5
sasS'2017-03-12'
p3449
(lp3450
(dp3451
g52
VThunder
p3452
sg54
VJazz
p3453
sg56
F4.5
sg57
F206.5
sa(dp3454
g52
VClippers
p3455
sg54
V76ers
p3456
sg56
F14.5
sg57
F215.0
sa(dp3457
g52
VPistons
p3458
sg54
VKnicks
p3459
sg56
F5.5
sg57
F212.5
sa(dp3460
g52
VMagic
p3461
sg54
VCavaliers
p3462
sg56
F-8.5
sg57
F214.5
sa(dp3463
g52
VHornets
p3464
sg54
VPelicans
p3465
sg56
F3.5
sg57
F204.5
sa(dp3466
g52
VHeat
p3467
sg54
VRaptors
p3468
sg56
F5.5
sg57
F202.5
sa(dp3469
g52
VMilwaukee
p3470
sg54
VTimberwolves
p3471
sg56
F3.5
sg57
F202.5
sa(dp3472
g52
VSpurs
p3473
sg54
VWarriors
p3474
sg56
F10.5
sg57
F197.5
sa(dp3475
g52
VMavericks
p3476
sg54
VSuns
p3477
sg56
F5.5
sg57
F216.5
sa(dp3478
g52
VGrizzlies
p3479
sg54
VHawks
p3480
sg56
F6.5
sg57
F207.5
sa(dp3481
g52
VTrail Blaze
p3482
sg54
VWizards
p3483
sg56
F3.5
sg57
F222.5
sa(dp3484
g52
Vsac
p3485
sg54
VNuggets
p3486
sg56
F-5.0
sg57
F217.0
sasS'2016-12-01'
p3487
(lp3488
(dp3489
g52
VCeltics
p3490
sg54
VPistons
p3491
sg56
F6.5
sg57
F197.5
sa(dp3492
g52
VRaptors
p3493
sg54
VGrizzlies
p3494
sg56
F12.5
sg57
F193.5
sa(dp3495
g52
VBulls
p3496
sg54
VLakers
p3497
sg56
F10.5
sg57
F209.5
sa(dp3498
g52
VTimberwolves
p3499
sg54
VKnicks
p3500
sg56
F3.5
sg57
F212.5
sa(dp3501
g52
VThunder
p3502
sg54
VWizards
p3503
sg56
F5.5
sg57
F215.5
sa(dp3504
g52
VMavericks
p3505
sg54
VSpurs
p3506
sg56
F-8.5
sg57
F186.5
sa(dp3507
g52
VNuggets
p3508
sg54
VHeat
p3509
sg56
F6.5
sg57
F208.5
sa(dp3510
g52
VSuns
p3511
sg54
VHawks
p3512
sg56
F-3.5
sg57
F211.5
sa(dp3513
g52
VTrail Blaze
p3514
sg54
VPacers
p3515
sg56
F7.5
sg57
F208.5
sasS'2017-03-13'
p3516
(lp3517
(dp3518
g52
VCeltics
p3519
sg54
VBulls
p3520
sg56
F7.5
sg57
F207.5
sa(dp3521
g52
VNets
p3522
sg54
VKnicks
p3523
sg56
F1.5
sg57
F221.5
sa(dp3524
g52
VPacers
p3525
sg54
VHeat
p3526
sg56
F5.5
sg57
F199.5
sa(dp3527
g52
VRockets
p3528
sg54
VCavaliers
p3529
sg56
F7.5
sg57
F236.5
sa(dp3530
g52
VSuns
p3531
sg54
VTrail Blaze
p3532
sg56
F-2.5
sg57
F227.5
sa(dp3533
g52
VLakers
p3534
sg54
V76ers
p3535
sg56
F5.5
sg57
F223.5
sasS'2016-10-26'
p3536
(lp3537
(dp3538
g52
VCavaliers
p3539
sg54
VKnicks
p3540
sg56
F9.5
sg57
F206.5
sa(dp3541
g52
VTrail Blaze
p3542
sg54
VJazz
p3543
sg56
F6.0
sg57
F192.0
sa(dp3544
g52
VWarriors
p3545
sg54
VSpurs
p3546
sg56
F8.0
sg57
F211.5
sasS'2016-10-27'
p3547
(lp3548
(dp3549
g52
VMagic
p3550
sg54
VHeat
p3551
sg56
F3.0
sg57
F199.0
sa(dp3552
g52
VPacers
p3553
sg54
VMavericks
p3554
sg56
F5.5
sg57
F204.5
sa(dp3555
g52
VCeltics
p3556
sg54
VNets
p3557
sg56
F11.5
sg57
F211.5
sa(dp3558
g52
VRaptors
p3559
sg54
VPistons
p3560
sg56
F6.5
sg57
F197.0
sa(dp3561
g52
V76ers
p3562
sg54
VThunder
p3563
sg56
F-9.0
sg57
F209.0
sa(dp3564
g52
VPelicans
p3565
sg54
VNuggets
p3566
sg56
F1.5
sg57
F205.5
sa(dp3567
g52
VMilwaukee
p3568
sg54
VHornets
p3569
sg56
F-1.5
sg57
F195.0
sa(dp3570
g52
VGrizzlies
p3571
sg54
VTimberwolves
p3572
sg56
F-1.5
sg57
F199.5
sa(dp3573
g52
VSuns
p3574
sg54
Vsac
p3575
sg56
F2.5
sg57
F211.5
sa(dp3576
g52
VLakers
p3577
sg54
VRockets
p3578
sg56
F-6.0
sg57
F224.5
sasS'2016-10-28'
p3579
(lp3580
(dp3581
g52
VHawks
p3582
sg54
VWizards
p3583
sg56
F4.0
sg57
F202.0
sa(dp3584
g52
VBulls
p3585
sg54
VCeltics
p3586
sg56
F1.5
sg57
F208.5
sa(dp3587
g52
Vsac
p3588
sg54
VSpurs
p3589
sg56
F-7.5
sg57
F203.5
sa(dp3590
g52
VTrail Blaze
p3591
sg54
VClippers
p3592
sg56
F-2.5
sg57
F210.0
sasS'2016-10-29'
p3593
(lp3594
(dp3595
g52
VRaptors
p3596
sg54
VCavaliers
p3597
sg56
F-2.5
sg57
F206.0
sa(dp3598
g52
VNets
p3599
sg54
VPacers
p3600
sg56
F-6.0
sg57
F219.0
sa(dp3601
g52
VPistons
p3602
sg54
VMagic
p3603
sg56
F4.0
sg57
F195.0
sa(dp3604
g52
VHeat
p3605
sg54
VHornets
p3606
sg56
F-1.5
sg57
F197.5
sa(dp3607
g52
VThunder
p3608
sg54
VSuns
p3609
sg56
F7.5
sg57
F209.0
sa(dp3610
g52
VMavericks
p3611
sg54
VRockets
p3612
sg56
F-2.0
sg57
F218.5
sa(dp3613
g52
VJazz
p3614
sg54
VLakers
p3615
sg56
F9.0
sg57
F201.5
sa(dp3616
g52
VPelicans
p3617
sg54
VWarriors
p3618
sg56
F-12.0
sg57
F223.5
sasS'2016-12-17'
p3619
(lp3620
(dp3621
g52
VMagic
p3622
sg54
VNets
p3623
sg56
F7.0
sg57
F217.5
sa(dp3624
g52
VWizards
p3625
sg54
VPistons
p3626
sg56
F-1.5
sg57
F205.5
sa(dp3627
g52
VCeltics
p3628
sg54
VHornets
p3629
sg56
F6.5
sg57
F207.5
sa(dp3630
g52
VRaptors
p3631
sg54
VHawks
p3632
sg56
F6.5
sg57
F215.5
sa(dp3633
g52
VHeat
p3634
sg54
VClippers
p3635
sg56
F-7.5
sg57
F205.5
sa(dp3636
g52
V76ers
p3637
sg54
VLakers
p3638
sg56
F1.5
sg57
F210.5
sa(dp3639
g52
VBulls
p3640
sg54
VMilwaukee
p3641
sg56
F5.5
sg57
F203.5
sa(dp3642
g52
VRockets
p3643
sg54
VPelicans
p3644
sg56
F12.5
sg57
F223.5
sa(dp3645
g52
VGrizzlies
p3646
sg54
Vsac
p3647
sg56
F5.5
sg57
F193.5
sa(dp3648
g52
VJazz
p3649
sg54
VMavericks
p3650
sg56
F11.5
sg57
F183.5
sasS'2016-12-08'
p3651
(lp3652
(dp3653
g52
VMagic
p3654
sg54
VCeltics
p3655
sg56
F-1.5
sg57
F194.5
sa(dp3656
g52
VHornets
p3657
sg54
VPistons
p3658
sg56
F5.5
sg57
F201.5
sa(dp3659
g52
VNets
p3660
sg54
VNuggets
p3661
sg56
F-4.5
sg57
F221.5
sa(dp3662
g52
VHawks
p3663
sg54
VHeat
p3664
sg56
F8.5
sg57
F203.5
sa(dp3665
g52
VKnicks
p3666
sg54
VCavaliers
p3667
sg56
F-7.5
sg57
F213.5
sa(dp3668
g52
VMilwaukee
p3669
sg54
VTrail Blaze
p3670
sg56
F1.5
sg57
F213.5
sa(dp3671
g52
VRockets
p3672
sg54
VLakers
p3673
sg56
F13.5
sg57
F222.5
sa(dp3674
g52
VMavericks
p3675
sg54
Vsac
p3676
sg56
F-3.5
sg57
F196.5
sa(dp3677
g52
VSuns
p3678
sg54
VPacers
p3679
sg56
F-4.5
sg57
F216.5
sa(dp3680
g52
VClippers
p3681
sg54
VWarriors
p3682
sg56
F-4.5
sg57
F222.5
sasS'2016-12-09'
p3683
(lp3684
(dp3685
g52
VWizards
p3686
sg54
VNuggets
p3687
sg56
F5.5
sg57
F216.5
sa(dp3688
g52
VRaptors
p3689
sg54
VTimberwolves
p3690
sg56
F9.5
sg57
F211.5
sa(dp3691
g52
VPelicans
p3692
sg54
V76ers
p3693
sg56
F5.5
sg57
F203.5
sa(dp3694
g52
VGrizzlies
p3695
sg54
VTrail Blaze
p3696
sg56
F-2.5
sg57
F205.5
sa(dp3697
g52
VJazz
p3698
sg54
VWarriors
p3699
sg56
F-11.5
sg57
F209.5
sa(dp3700
g52
VBulls
p3701
sg54
VSpurs
p3702
sg56
F-2.5
sg57
F199.5
sasS'2017-03-21'
p3703
(lp3704
(dp3705
g52
VMagic
p3706
sg54
V76ers
p3707
sg56
F6.5
sg57
F218.5
sa(dp3708
g52
VPacers
p3709
sg54
VJazz
p3710
sg56
F-1.5
sg57
F193.5
sa(dp3711
g52
VHornets
p3712
sg54
VHawks
p3713
sg56
F5.5
sg57
F205.5
sa(dp3714
g52
VCeltics
p3715
sg54
VWizards
p3716
sg56
F3.5
sg57
F214.5
sa(dp3717
g52
VRockets
p3718
sg54
VNuggets
p3719
sg56
F7.5
sg57
F237.5
sa(dp3720
g52
VThunder
p3721
sg54
VWarriors
p3722
sg56
F-2.5
sg57
F221.5
sa(dp3723
g52
VClippers
p3724
sg54
VKnicks
p3725
sg56
F11.5
sg57
F214.5
sasS'2016-10-31'
p3726
(lp3727
(dp3728
g52
VClippers
p3729
sg54
VJazz
p3730
sg56
F7.0
sg57
F189.5
sa(dp3731
g52
VHeat
p3732
sg54
VSpurs
p3733
sg56
F-6.5
sg57
F193.5
sa(dp3734
g52
VPistons
p3735
sg54
VMilwaukee
p3736
sg56
F7.5
sg57
F197.5
sa(dp3737
g52
VSuns
p3738
sg54
VWarriors
p3739
sg56
F-11.5
sg57
F225.5
sa(dp3740
g52
VThunder
p3741
sg54
VLakers
p3742
sg56
F8.5
sg57
F216.0
sa(dp3743
g52
VRockets
p3744
sg54
VMavericks
p3745
sg56
F4.5
sg57
F215.5
sa(dp3746
g52
VGrizzlies
p3747
sg54
VWizards
p3748
sg56
F-3.5
sg57
F204.5
sasS'2016-10-30'
p3749
(lp3750
(dp3751
g52
V76ers
p3752
sg54
VHawks
p3753
sg56
F-8.0
sg57
F201.5
sa(dp3754
g52
VHornets
p3755
sg54
VCeltics
p3756
sg56
F-2.5
sg57
F203.5
sa(dp3757
g52
VKnicks
p3758
sg54
VGrizzlies
p3759
sg56
F2.5
sg57
F199.5
sa(dp3760
g52
VCavaliers
p3761
sg54
VMagic
p3762
sg56
F10.5
sg57
F202.5
sa(dp3763
g52
VMilwaukee
p3764
sg54
VNets
p3765
sg56
F7.5
sg57
F205.5
sa(dp3766
g52
VBulls
p3767
sg54
VPacers
p3768
sg56
F3.5
sg57
F209.5
sa(dp3769
g52
VSpurs
p3770
sg54
VPelicans
p3771
sg56
F13.5
sg57
F203.5
sa(dp3772
g52
VNuggets
p3773
sg54
VTrail Blaze
p3774
sg56
F-1.5
sg57
F212.5
sa(dp3775
g52
Vsac
p3776
sg54
VTimberwolves
p3777
sg56
F-1.5
sg57
F202.5
sasS'2017-04-06'
p3778
(lp3779
(dp3780
g52
VHornets
p3781
sg54
VHeat
p3782
sg56
F2.5
sg57
F203.5
sa(dp3783
g52
VPistons
p3784
sg54
VRaptors
p3785
sg56
F-1.5
sg57
F201.5
sa(dp3786
g52
VCeltics
p3787
sg54
VCavaliers
p3788
sg56
F3.5
sg57
F222.5
sa(dp3789
g52
VRockets
p3790
sg54
VNuggets
p3791
sg56
F7.5
sg57
F241.5
sa(dp3792
g52
VGrizzlies
p3793
sg54
VThunder
p3794
sg56
F-2.5
sg57
F198.5
sa(dp3795
g52
VSpurs
p3796
sg54
VLakers
p3797
sg56
F13.5
sg57
F208.5
sa(dp3798
g52
VSuns
p3799
sg54
VWarriors
p3800
sg56
F-8.5
sg57
F229.5
sa(dp3801
g52
VClippers
p3802
sg54
VMavericks
p3803
sg56
F11.5
sg57
F203.5
sasS'2017-03-20'
p3804
(lp3805
(dp3806
g52
V76ers
p3807
sg54
VCeltics
p3808
sg56
F-5.0
sg57
F202.5
sa(dp3809
g52
VPistons
p3810
sg54
VSuns
p3811
sg56
F11.5
sg57
F209.5
sa(dp3812
g52
VHeat
p3813
sg54
VTrail Blaze
p3814
sg56
F5.5
sg57
F214.5
sa(dp3815
g52
VPelicans
p3816
sg54
VTimberwolves
p3817
sg56
F3.5
sg57
F209.5
sa(dp3818
g52
VRaptors
p3819
sg54
VPacers
p3820
sg56
F2.5
sg57
F197.5
sa(dp3821
g52
VSpurs
p3822
sg54
Vsac
p3823
sg56
F14.5
sg57
F202.5
sa(dp3824
g52
VLakers
p3825
sg54
VCavaliers
p3826
sg56
F-12.5
sg57
F223.5
sasS'2017-02-15'
p3827
(lp3828
(dp3829
g52
VBulls
p3830
sg54
VRaptors
p3831
sg56
F-4.5
sg57
F210.5
sa(dp3832
g52
VTimberwolves
p3833
sg54
VCavaliers
p3834
sg56
F-3.5
sg57
F219.0
sa(dp3835
g52
VLakers
p3836
sg54
Vsac
p3837
sg56
F2.5
sg57
F219.5
sasS'2017-03-23'
p3838
(lp3839
(dp3840
g52
VMagic
p3841
sg54
VHornets
p3842
sg56
F-4.5
sg57
F207.0
sa(dp3843
g52
VCeltics
p3844
sg54
VPacers
p3845
sg56
F6.5
sg57
F206.5
sa(dp3846
g52
VWizards
p3847
sg54
VHawks
p3848
sg56
F7.5
sg57
F214.5
sa(dp3849
g52
VBulls
p3850
sg54
VPistons
p3851
sg56
F-2.5
sg57
F198.5
sa(dp3852
g52
VThunder
p3853
sg54
V76ers
p3854
sg56
F11.5
sg57
F219.5
sa(dp3855
g52
VNuggets
p3856
sg54
VCavaliers
p3857
sg56
F-2.0
sg57
F228.0
sa(dp3858
g52
VJazz
p3859
sg54
VKnicks
p3860
sg56
F11.5
sg57
F201.5
sa(dp3861
g52
Vsac
p3862
sg54
VMilwaukee
p3863
sg56
F-5.5
sg57
F202.5
sasS'2017-04-05'
p3864
(lp3865
(dp3866
g52
V76ers
p3867
sg54
VNets
p3868
sg56
F-1.5
sg57
F222.5
sa(dp3869
g52
VWizards
p3870
sg54
VHornets
p3871
sg56
F2.5
sg57
F217.5
sa(dp3872
g52
VPacers
p3873
sg54
VRaptors
p3874
sg56
F3.5
sg57
F202.5
sa(dp3875
g52
VCavaliers
p3876
sg54
VMagic
p3877
sg56
F11.5
sg57
F220.5
sa(dp3878
g52
VKnicks
p3879
sg54
VBulls
p3880
sg56
F-4.5
sg57
F204.5
sa(dp3881
g52
VPelicans
p3882
sg54
VNuggets
p3883
sg56
F3.5
sg57
F226.5
sa(dp3884
g52
VThunder
p3885
sg54
VMilwaukee
p3886
sg56
F5.5
sg57
F209.5
sa(dp3887
g52
VSpurs
p3888
sg54
VGrizzlies
p3889
sg56
F8.5
sg57
F195.5
sa(dp3890
g52
VJazz
p3891
sg54
VTrail Blaze
p3892
sg56
F5.5
sg57
F200.5
sa(dp3893
g52
Vsac
p3894
sg54
VMavericks
p3895
sg56
F-2.5
sg57
F197.0
sa(dp3896
g52
VWarriors
p3897
sg54
VTimberwolves
p3898
sg56
F14.5
sg57
F216.5
sasS'2016-12-18'
p3899
(lp3900
(dp3901
g52
VThunder
p3902
sg54
VSuns
p3903
sg56
F6.5
sg57
F215.5
sa(dp3904
g52
VPistons
p3905
sg54
VPacers
p3906
sg56
F4.5
sg57
F200.5
sa(dp3907
g52
VHawks
p3908
sg54
VHornets
p3909
sg56
F2.5
sg57
F208.5
sa(dp3910
g52
VCavaliers
p3911
sg54
VLakers
p3912
sg56
F14.5
sg57
F219.5
sa(dp3913
g52
VTimberwolves
p3914
sg54
VRockets
p3915
sg56
F-2.5
sg57
F220.5
sa(dp3916
g52
VNuggets
p3917
sg54
VKnicks
p3918
sg56
F3.5
sg57
F215.5
sa(dp3919
g52
VWarriors
p3920
sg54
VTrail Blaze
p3921
sg56
F14.5
sg57
F234.5
sasS'2017-03-25'
p3922
(lp3923
(dp3924
g52
VMagic
p3925
sg54
VPistons
p3926
sg56
F-2.5
sg57
F207.5
sa(dp3927
g52
VWizards
p3928
sg54
VNets
p3929
sg56
F10.5
sg57
F221.5
sa(dp3930
g52
VPacers
p3931
sg54
VNuggets
p3932
sg56
F1.5
sg57
F217.5
sa(dp3933
g52
VHornets
p3934
sg54
VCavaliers
p3935
sg56
F-3.5
sg57
F209.5
sa(dp3936
g52
VCeltics
p3937
sg54
VSuns
p3938
sg56
F16.5
sg57
F218.5
sa(dp3939
g52
VMilwaukee
p3940
sg54
VHawks
p3941
sg56
F6.5
sg57
F202.5
sa(dp3942
g52
VBulls
p3943
sg54
V76ers
p3944
sg56
F6.5
sg57
F211.5
sa(dp3945
g52
VRockets
p3946
sg54
VPelicans
p3947
sg56
F8.0
sg57
F232.0
sa(dp3948
g52
VLakers
p3949
sg54
VTimberwolves
p3950
sg56
F-6.5
sg57
F218.5
sa(dp3951
g52
VWarriors
p3952
sg54
Vsac
p3953
sg56
F18.5
sg57
F214.5
sasS'2017-04-03'
p3954
(lp3955
(dp3956
g52
VKnicks
p3957
sg54
VCeltics
p3958
sg56
F-7.5
sg57
F206.5
sa(dp3959
g52
VThunder
p3960
sg54
VHornets
p3961
sg56
F5.5
sg57
F211.5
sa(dp3962
g52
VLakers
p3963
sg54
VGrizzlies
p3964
sg56
F-7.5
sg57
F205.5
sa(dp3965
g52
VMilwaukee
p3966
sg54
VMavericks
p3967
sg56
F6.5
sg57
F194.5
sa(dp3968
g52
VSpurs
p3969
sg54
VJazz
p3970
sg56
F5.5
sg57
F188.5
sa(dp3971
g52
VHeat
p3972
sg54
VNuggets
p3973
sg56
F3.5
sg57
F218.5
sa(dp3974
g52
VNets
p3975
sg54
VHawks
p3976
sg56
F-3.5
sg57
F215.5
sa(dp3977
g52
VPelicans
p3978
sg54
VBulls
p3979
sg56
F8.5
sg57
F209.5
sa(dp3980
g52
VRaptors
p3981
sg54
V76ers
p3982
sg56
F11.5
sg57
F211.5
sa(dp3983
g52
VCavaliers
p3984
sg54
VPacers
p3985
sg56
F7.5
sg57
F214.5
sa(dp3986
g52
VWarriors
p3987
sg54
VWizards
p3988
sg56
F9.5
sg57
F223.5
sa(dp3989
g52
VSuns
p3990
sg54
VRockets
p3991
sg56
F-7.5
sg57
F225.5
sasS'2017-01-15'
p3992
(lp3993
(dp3994
g52
VClippers
p3995
sg54
VLakers
p3996
sg56
F11.5
sg57
F219.5
sa(dp3997
g52
VBulls
p3998
sg54
VPelicans
p3999
sg56
F3.5
sg57
F206.5
sa(dp4000
g52
VSuns
p4001
sg54
VSpurs
p4002
sg56
F-12.5
sg57
F213.5
sa(dp4003
g52
VWizards
p4004
sg54
V76ers
p4005
sg56
F9.5
sg57
F210.5
sa(dp4006
g52
VJazz
p4007
sg54
VMagic
p4008
sg56
F11.5
sg57
F194.5
sasS'2017-03-26'
p4009
(lp4010
(dp4011
g52
VClippers
p4012
sg54
VJazz
p4013
sg56
F4.5
sg57
F200.5
sa(dp4014
g52
VCavaliers
p4015
sg54
VWizards
p4016
sg56
F5.5
sg57
F222.5
sa(dp4017
g52
VMavericks
p4018
sg54
VRaptors
p4019
sg56
F1.5
sg57
F195.5
sa(dp4020
g52
VSpurs
p4021
sg54
VKnicks
p4022
sg56
F14.5
sg57
F202.5
sa(dp4023
g52
VTrail Blaze
p4024
sg54
VTimberwolves
p4025
sg56
F5.5
sg57
F212.5
sas.