(dp0
S'2015-11-19'
p1
(lp2
(dp3
S'home'
p4
VMagic
p5
sS'away'
p6
VTimberwolves
p7
sS'line'
p8
F5.0
sS'overunder'
p9
F204.5
sa(dp10
g4
V76ers
p11
sg6
VPacers
p12
sg8
F-6.0
sg9
F190.5
sa(dp13
g4
VHornets
p14
sg6
VNets
p15
sg8
F6.5
sg9
F194.0
sa(dp16
g4
VCeltics
p17
sg6
VMavericks
p18
sg8
F5.0
sg9
F207.5
sa(dp19
g4
VHawks
p20
sg6
Vsac
p21
sg8
F2.5
sg9
F209.0
sa(dp22
g4
VRockets
p23
sg6
VTrail Blaze
p24
sg8
F7.0
sg9
F211.0
sa(dp25
g4
VThunder
p26
sg6
VPelicans
p27
sg8
F12.0
sg9
F212.5
sa(dp28
g4
VSpurs
p29
sg6
VNuggets
p30
sg8
F13.0
sg9
F197.5
sa(dp31
g4
VJazz
p32
sg6
VRaptors
p33
sg8
F4.5
sg9
F191.0
sa(dp34
g4
VSuns
p35
sg6
VBulls
p36
sg8
F3.0
sg9
F203.0
sasS'2015-11-18'
p37
(lp38
(dp39
g4
VWizards
p40
sg6
VMilwaukee
p41
sg8
F3.5
sg9
F197.5
sa(dp42
g4
VHeat
p43
sg6
VTimberwolves
p44
sg8
F8.5
sg9
F199.5
sa(dp45
g4
VNets
p46
sg6
VHawks
p47
sg8
F-4.5
sg9
F198.0
sa(dp48
g4
VKnicks
p49
sg6
VHornets
p50
sg8
F1.0
sg9
F196.0
sa(dp51
g4
VPistons
p52
sg6
VCavaliers
p53
sg8
F-4.5
sg9
F196.0
sa(dp54
g4
VPelicans
p55
sg6
VNuggets
p56
sg8
F6.0
sg9
F206.5
sa(dp57
g4
VWarriors
p58
sg6
VRaptors
p59
sg8
F9.5
sg9
F208.5
sasS'2015-11-11'
p60
(lp61
(dp62
g4
VWizards
p63
sg6
VThunder
p64
sg8
F-6.5
sg9
F215.5
sa(dp65
g4
VCavaliers
p66
sg6
VJazz
p67
sg8
F5.5
sg9
F187.5
sa(dp68
g4
VHeat
p69
sg6
VLakers
p70
sg8
F11.0
sg9
F200.0
sa(dp71
g4
VRaptors
p72
sg6
VKnicks
p73
sg8
F7.5
sg9
F196.5
sa(dp74
g4
VPelicans
p75
sg6
VMavericks
p76
sg8
F3.0
sg9
F210.0
sa(dp77
g4
VMilwaukee
p78
sg6
VCeltics
p79
sg8
F-2.5
sg9
F202.5
sa(dp80
g4
VTimberwolves
p81
sg6
VHornets
p82
sg8
F-3.5
sg9
F202.0
sasS'2015-11-10'
p83
(lp84
(dp85
g4
V76ers
p86
sg6
VBulls
p87
sg8
F-11.0
sg9
F198.0
sa(dp88
g4
VPacers
p89
sg6
VMagic
p90
sg8
F4.5
sg9
F195.0
sa(dp91
g4
VHawks
p92
sg6
VTimberwolves
p93
sg8
F8.5
sg9
F204.0
sa(dp94
g4
VNuggets
p95
sg6
VTrail Blaze
p96
sg8
F-1.0
sg9
F206.5
sa(dp97
g4
Vsac
p98
sg6
VSpurs
p99
sg8
F-7.5
sg9
F203.0
sa(dp100
g4
VWarriors
p101
sg6
VPistons
p102
sg8
F12.5
sg9
F208.5
sa(dp103
g4
VClippers
p104
sg6
VGrizzlies
p105
sg8
F7.5
sg9
F200.0
sasS'2015-11-13'
p106
(lp107
(dp108
g4
VHeat
p109
sg6
VJazz
p110
sg8
F4.0
sg9
F184.5
sa(dp111
g4
VTimberwolves
p112
sg6
VWarriors
p113
sg8
F-10.5
sg9
F211.0
sa(dp114
g4
VSuns
p115
sg6
VClippers
p116
sg8
F2.0
sg9
F205.0
sasS'2015-11-12'
p117
(lp118
(dp119
g4
VMagic
p120
sg6
VLakers
p121
sg8
F8.0
sg9
F201.5
sa(dp122
g4
V76ers
p123
sg6
VRaptors
p124
sg8
F-9.5
sg9
F196.0
sa(dp125
g4
VHornets
p126
sg6
VKnicks
p127
sg8
F6.5
sg9
F201.0
sa(dp128
g4
VCeltics
p129
sg6
VPacers
p130
sg8
F3.5
sg9
F202.5
sa(dp131
g4
VHawks
p132
sg6
VPelicans
p133
sg8
F12.5
sg9
F208.5
sa(dp134
g4
VMavericks
p135
sg6
VClippers
p136
sg8
F-7.0
sg9
F211.0
sa(dp137
g4
VRockets
p138
sg6
VNets
p139
sg8
F12.0
sg9
F208.0
sa(dp140
g4
VGrizzlies
p141
sg6
VWarriors
p142
sg8
F-7.0
sg9
F200.0
sa(dp143
g4
VNuggets
p144
sg6
VMilwaukee
p145
sg8
F3.5
sg9
F194.0
sa(dp146
g4
Vsac
p147
sg6
VPistons
p148
sg8
F-2.0
sg9
F205.5
sa(dp149
g4
VTrail Blaze
p150
sg6
VSpurs
p151
sg8
F-6.0
sg9
F205.0
sasS'2015-11-15'
p152
(lp153
(dp154
g4
VClippers
p155
sg6
VPistons
p156
sg8
F2.5
sg9
F196.0
sa(dp157
g4
VWizards
p158
sg6
VMagic
p159
sg8
F5.5
sg9
F203.0
sa(dp160
g4
VRockets
p161
sg6
VMavericks
p162
sg8
F7.5
sg9
F207.5
sa(dp163
g4
VMilwaukee
p164
sg6
VCavaliers
p165
sg8
F-5.0
sg9
F195.0
sa(dp166
g4
VSpurs
p167
sg6
V76ers
p168
sg8
F16.0
sg9
F193.5
sa(dp169
g4
VSuns
p170
sg6
VNuggets
p171
sg8
F7.5
sg9
F205.0
sa(dp172
g4
VWarriors
p173
sg6
VNets
p174
sg8
F16.0
sg9
F207.0
sasS'2015-11-14'
p175
(lp176
(dp177
g4
VMagic
p178
sg6
VJazz
p179
sg8
F-1.5
sg9
F189.0
sa(dp180
g4
VPacers
p181
sg6
VTimberwolves
p182
sg8
F8.0
sg9
F200.5
sa(dp183
g4
VCeltics
p184
sg6
VHawks
p185
sg8
F-1.5
sg9
F206.5
sa(dp186
g4
VKnicks
p187
sg6
VCavaliers
p188
sg8
F-7.0
sg9
F203.5
sa(dp189
g4
VRaptors
p190
sg6
VPelicans
p191
sg8
F10.5
sg9
F205.0
sa(dp192
g4
VBulls
p193
sg6
VHornets
p194
sg8
F6.5
sg9
F200.0
sa(dp195
g4
VGrizzlies
p196
sg6
VTrail Blaze
p197
sg8
F6.5
sg9
F193.5
sa(dp198
g4
VThunder
p199
sg6
V76ers
p200
sg8
F13.0
sg9
F207.0
sa(dp201
g4
VMavericks
p202
sg6
VLakers
p203
sg8
F8.0
sg9
F211.0
sa(dp204
g4
VNuggets
p205
sg6
VRockets
p206
sg8
F-6.5
sg9
F210.5
sa(dp207
g4
Vsac
p208
sg6
VNets
p209
sg8
F6.5
sg9
F204.5
sasS'2015-11-17'
p210
(lp211
(dp212
g4
V76ers
p213
sg6
VMavericks
p214
sg8
F-8.0
sg9
F203.0
sa(dp215
g4
VBulls
p216
sg6
VPacers
p217
sg8
F6.5
sg9
F197.5
sa(dp218
g4
VRockets
p219
sg6
VCeltics
p220
sg8
F4.5
sg9
F207.0
sa(dp221
g4
VGrizzlies
p222
sg6
VThunder
p223
sg8
F2.5
sg9
F197.5
sa(dp224
g4
VSpurs
p225
sg6
VTrail Blaze
p226
sg8
F12.5
sg9
F201.0
sa(dp227
g4
VSuns
p228
sg6
VLakers
p229
sg8
F11.5
sg9
F205.0
sasS'2015-11-16'
p230
(lp231
(dp232
g4
VKnicks
p233
sg6
VPelicans
p234
sg8
F1.5
sg9
F203.5
sa(dp235
g4
VTimberwolves
p236
sg6
VGrizzlies
p237
sg8
F-4.5
sg9
F192.5
sa(dp238
g4
VHornets
p239
sg6
VTrail Blaze
p240
sg8
F4.5
sg9
F205.0
sa(dp241
g4
VHawks
p242
sg6
VJazz
p243
sg8
F3.0
sg9
F191.5
sa(dp244
g4
VThunder
p245
sg6
VCeltics
p246
sg8
F5.0
sg9
F210.5
sa(dp247
g4
Vsac
p248
sg6
VRaptors
p249
sg8
F-2.0
sg9
F208.5
sa(dp250
g4
VLakers
p251
sg6
VPistons
p252
sg8
F-4.5
sg9
F200.5
sasS'2015-12-14'
p253
(lp254
(dp255
g4
VSuns
p256
sg6
VTimberwolves
p257
sg8
F5.5
sg9
F209.5
sa(dp258
g4
VHeat
p259
sg6
VGrizzlies
p260
sg8
F2.5
sg9
F188.5
sa(dp261
g4
VRaptors
p262
sg6
V76ers
p263
sg8
F11.5
sg9
F192.5
sa(dp264
g4
VThunder
p265
sg6
VJazz
p266
sg8
F9.5
sg9
F204.5
sasS'2015-12-15'
p267
(lp268
(dp269
g4
VPacers
p270
sg6
VRaptors
p271
sg8
F4.5
sg9
F199.5
sa(dp272
g4
VNets
p273
sg6
VMagic
p274
sg8
F-4.5
sg9
F197.5
sa(dp275
g4
VPistons
p276
sg6
VClippers
p277
sg8
F-1.5
sg9
F204.5
sa(dp278
g4
VHawks
p279
sg6
VHeat
p280
sg8
F6.5
sg9
F191.5
sa(dp281
g4
VBulls
p282
sg6
V76ers
p283
sg8
F13.5
sg9
F195.5
sa(dp284
g4
VGrizzlies
p285
sg6
VWizards
p286
sg8
F3.5
sg9
F200.5
sa(dp287
g4
VMavericks
p288
sg6
VSuns
p289
sg8
F3.5
sg9
F208.5
sa(dp290
g4
VSpurs
p291
sg6
VJazz
p292
sg8
F12.5
sg9
F186.5
sa(dp293
g4
VNuggets
p294
sg6
VRockets
p295
sg8
F-4.5
sg9
F209.5
sa(dp296
g4
VTrail Blaze
p297
sg6
VPelicans
p298
sg8
F2.5
sg9
F211.5
sasS'2015-12-16'
p299
(lp300
(dp301
g4
VCeltics
p302
sg6
VCavaliers
p303
sg8
F-1.0
sg9
F203.0
sa(dp304
g4
VTimberwolves
p305
sg6
VNuggets
p306
sg8
F6.0
sg9
F203.0
sa(dp307
g4
Vsac
p308
sg6
VRockets
p309
sg8
F2.5
sg9
F222.5
sa(dp310
g4
VLakers
p311
sg6
VMilwaukee
p312
sg8
F-3.5
sg9
F198.5
sasS'2015-12-17'
p313
(lp314
(dp315
g4
VMagic
p316
sg6
VHornets
p317
sg8
F-1.5
sg9
F198.5
sa(dp318
g4
VPacers
p319
sg6
VMavericks
p320
sg8
F3.5
sg9
F207.5
sa(dp321
g4
VNets
p322
sg6
VHeat
p323
sg8
F-5.5
sg9
F191.5
sa(dp324
g4
VKnicks
p325
sg6
VTimberwolves
p326
sg8
F4.5
sg9
F198.5
sa(dp327
g4
VPistons
p328
sg6
VCeltics
p329
sg8
F2.5
sg9
F199.5
sa(dp330
g4
VHawks
p331
sg6
V76ers
p332
sg8
F13.5
sg9
F200.5
sa(dp333
g4
VBulls
p334
sg6
VGrizzlies
p335
sg8
F4.5
sg9
F193.5
sa(dp336
g4
VThunder
p337
sg6
VTrail Blaze
p338
sg8
F10.5
sg9
F206.5
sa(dp339
g4
VSpurs
p340
sg6
VWizards
p341
sg8
F12.5
sg9
F197.5
sa(dp342
g4
VJazz
p343
sg6
VPelicans
p344
sg8
F3.5
sg9
F200.5
sa(dp345
g4
VWarriors
p346
sg6
VSuns
p347
sg8
F12.5
sg9
F219.5
sa(dp348
g4
VClippers
p349
sg6
VMilwaukee
p350
sg8
F10.5
sg9
F197.5
sasS'2016-03-19'
p351
(lp352
(dp353
g4
VMagic
p354
sg6
VCavaliers
p355
sg8
F-10.0
sg9
F212.0
sa(dp356
g4
V76ers
p357
sg6
VThunder
p358
sg8
F-15.5
sg9
F219.5
sa(dp359
g4
VPistons
p360
sg6
Vsac
p361
sg8
F7.0
sg9
F217.5
sa(dp362
g4
VRaptors
p363
sg6
VCeltics
p364
sg8
F1.5
sg9
F208.0
sa(dp365
g4
VPelicans
p366
sg6
VTrail Blaze
p367
sg8
F-2.5
sg9
F220.5
sa(dp368
g4
VRockets
p369
sg6
VTimberwolves
p370
sg8
F9.0
sg9
F224.0
sa(dp371
g4
VMavericks
p372
sg6
VWarriors
p373
sg8
F-9.0
sg9
F227.0
sa(dp374
g4
VLakers
p375
sg6
VSuns
p376
sg8
F4.0
sg9
F213.5
sasS'2016-03-18'
p377
(lp378
(dp379
g4
V76ers
p380
sg6
VWizards
p381
sg8
F-9.0
sg9
F214.5
sa(dp382
g4
VPacers
p383
sg6
VRaptors
p384
sg8
F1.5
sg9
F203.5
sa(dp385
g4
VHeat
p386
sg6
VHornets
p387
sg8
F4.5
sg9
F207.5
sa(dp388
g4
VMilwaukee
p389
sg6
VGrizzlies
p390
sg8
F11.0
sg9
F201.0
sa(dp391
g4
VHawks
p392
sg6
VNuggets
p393
sg8
F7.5
sg9
F210.0
sa(dp394
g4
VBulls
p395
sg6
VNets
p396
sg8
F7.0
sg9
F213.0
sa(dp397
g4
VSpurs
p398
sg6
VTrail Blaze
p399
sg8
F11.5
sg9
F204.5
sa(dp400
g4
VJazz
p401
sg6
VSuns
p402
sg8
F8.5
sg9
F198.5
sasS'2015-12-12'
p403
(lp404
(dp405
g4
VMagic
p406
sg6
VCavaliers
p407
sg8
F-2.5
sg9
F197.5
sa(dp408
g4
V76ers
p409
sg6
VPistons
p410
sg8
F-8.5
sg9
F193.5
sa(dp411
g4
VPacers
p412
sg6
VHeat
p413
sg8
F4.5
sg9
F197.5
sa(dp414
g4
VCeltics
p415
sg6
VWarriors
p416
sg8
F-5.5
sg9
F214.5
sa(dp417
g4
VRaptors
p418
sg6
VMilwaukee
p419
sg8
F7.5
sg9
F191.5
sa(dp420
g4
VPelicans
p421
sg6
VWizards
p422
sg8
F3.5
sg9
F210.5
sa(dp423
g4
VGrizzlies
p424
sg6
VHornets
p425
sg8
F2.5
sg9
F192.5
sa(dp426
g4
VJazz
p427
sg6
VThunder
p428
sg8
F-3.5
sg9
F204.5
sa(dp429
g4
VNuggets
p430
sg6
VTimberwolves
p431
sg8
F1.5
sg9
F203.5
sa(dp432
g4
VSpurs
p433
sg6
VLakers
p434
sg8
F15.5
sg9
F193.5
sa(dp435
g4
VSuns
p436
sg6
VTrail Blaze
p437
sg8
F4.5
sg9
F210.5
sasS'2015-12-13'
p438
(lp439
(dp440
g4
VNets
p441
sg6
VClippers
p442
sg8
F-6.5
sg9
F206.5
sa(dp443
g4
VHornets
p444
sg6
VCeltics
p445
sg8
F3.5
sg9
F203.5
sa(dp446
g4
VPistons
p447
sg6
VPacers
p448
sg8
F1.5
sg9
F203.5
sa(dp449
g4
VHawks
p450
sg6
VSpurs
p451
sg8
F-2.5
sg9
F191.5
sa(dp452
g4
VBulls
p453
sg6
VPelicans
p454
sg8
F7.5
sg9
F202.5
sa(dp455
g4
VRockets
p456
sg6
VLakers
p457
sg8
F11.5
sg9
F211.5
sa(dp458
g4
VMilwaukee
p459
sg6
VWarriors
p460
sg8
F-9.5
sg9
F205.5
sa(dp461
g4
VMavericks
p462
sg6
VWizards
p463
sg8
F6.5
sg9
F205.5
sa(dp464
g4
VTrail Blaze
p465
sg6
VKnicks
p466
sg8
F3.5
sg9
F197.5
sasS'2016-03-15'
p467
(lp468
(dp469
g4
VHornets
p470
sg6
VMavericks
p471
sg8
F5.5
sg9
F208.5
sa(dp472
g4
VHeat
p473
sg6
VNuggets
p474
sg8
F7.5
sg9
F209.0
sa(dp475
g4
VRaptors
p476
sg6
VBulls
p477
sg8
F9.5
sg9
F205.5
sa(dp478
g4
VWizards
p479
sg6
VPistons
p480
sg8
F2.0
sg9
F210.5
sa(dp481
g4
VRockets
p482
sg6
VGrizzlies
p483
sg8
F12.0
sg9
F207.5
sa(dp484
g4
VThunder
p485
sg6
VTrail Blaze
p486
sg8
F7.5
sg9
F217.0
sa(dp487
g4
VSuns
p488
sg6
VTimberwolves
p489
sg8
F-1.0
sg9
F223.0
sa(dp490
g4
VJazz
p491
sg6
VCavaliers
p492
sg8
F-7.0
sg9
F193.0
sa(dp493
g4
VWarriors
p494
sg6
VPelicans
p495
sg8
F16.0
sg9
F231.5
sasS'2016-03-14'
p496
(lp497
(dp498
g4
VClippers
p499
sg6
VCavaliers
p500
sg8
F-2.5
sg9
F207.5
sa(dp501
g4
VHawks
p502
sg6
VPacers
p503
sg8
F5.5
sg9
F198.5
sa(dp504
g4
Vsac
p505
sg6
VJazz
p506
sg8
F-1.0
sg9
F208.0
sa(dp507
g4
VNets
p508
sg6
VMilwaukee
p509
sg8
F-1.5
sg9
F209.0
sa(dp510
g4
VLakers
p511
sg6
VKnicks
p512
sg8
F-1.5
sg9
F210.0
sasS'2016-03-17'
p513
(lp514
(dp515
g4
VCeltics
p516
sg6
VThunder
p517
sg8
F-5.0
sg9
F219.5
sa(dp518
g4
VWizards
p519
sg6
VBulls
p520
sg8
F5.0
sg9
F213.0
sa(dp521
g4
VCavaliers
p522
sg6
VMavericks
p523
sg8
F5.5
sg9
F206.5
sa(dp524
g4
VHornets
p525
sg6
VMagic
p526
sg8
F10.0
sg9
F211.0
sa(dp527
g4
VPistons
p528
sg6
VHawks
p529
sg8
F-1.0
sg9
F200.0
sa(dp530
g4
VGrizzlies
p531
sg6
VTimberwolves
p532
sg8
F-3.5
sg9
F208.0
sa(dp533
g4
VRockets
p534
sg6
VClippers
p535
sg8
F3.5
sg9
F217.0
sa(dp536
g4
Vsac
p537
sg6
VPelicans
p538
sg8
F3.5
sg9
F223.5
sa(dp539
g4
VWarriors
p540
sg6
VKnicks
p541
sg8
F15.0
sg9
F219.0
sasS'2016-03-16'
p542
(lp543
(dp544
g4
VMagic
p545
sg6
VNuggets
p546
sg8
F3.5
sg9
F215.5
sa(dp547
g4
VPacers
p548
sg6
VCeltics
p549
sg8
F2.5
sg9
F209.5
sa(dp550
g4
VNets
p551
sg6
V76ers
p552
sg8
F7.0
sg9
F213.0
sa(dp553
g4
VMilwaukee
p554
sg6
VRaptors
p555
sg8
F1.5
sg9
F204.0
sa(dp556
g4
VSpurs
p557
sg6
VClippers
p558
sg8
F9.5
sg9
F201.5
sa(dp559
g4
VLakers
p560
sg6
Vsac
p561
sg8
F-5.0
sg9
F220.0
sasS'2016-03-11'
p562
(lp563
(dp564
g4
VRaptors
p565
sg6
VHawks
p566
sg8
F3.0
sg9
F202.5
sa(dp567
g4
VSpurs
p568
sg6
VBulls
p569
sg8
F14.5
sg9
F201.0
sa(dp570
g4
VNuggets
p571
sg6
VSuns
p572
sg8
F9.5
sg9
F215.0
sa(dp573
g4
VLakers
p574
sg6
VCavaliers
p575
sg8
F-9.5
sg9
F212.5
sasS'2015-12-19'
p576
(lp577
(dp578
g4
VMagic
p579
sg6
VTrail Blaze
p580
sg8
F4.5
sg9
F200.5
sa(dp581
g4
V76ers
p582
sg6
VKnicks
p583
sg8
F-6.5
sg9
F195.5
sa(dp584
g4
VPacers
p585
sg6
VNets
p586
sg8
F9.5
sg9
F207.5
sa(dp587
g4
VCeltics
p588
sg6
VHawks
p589
sg8
F3.5
sg9
F206.5
sa(dp590
g4
VHeat
p591
sg6
VRaptors
p592
sg8
F3.5
sg9
F187.5
sa(dp593
g4
VBulls
p594
sg6
VPistons
p595
sg8
F5.5
sg9
F197.5
sa(dp596
g4
VSpurs
p597
sg6
VClippers
p598
sg8
F7.5
sg9
F195.5
sa(dp599
g4
VTimberwolves
p600
sg6
Vsac
p601
sg8
F-2.5
sg9
F212.5
sa(dp602
g4
VMavericks
p603
sg6
VGrizzlies
p604
sg8
F2.5
sg9
F197.5
sa(dp605
g4
VJazz
p606
sg6
VNuggets
p607
sg8
F5.5
sg9
F193.5
sa(dp608
g4
VSuns
p609
sg6
VPelicans
p610
sg8
F2.5
sg9
F214.5
sa(dp611
g4
VWarriors
p612
sg6
VMilwaukee
p613
sg8
F18.5
sg9
F209.5
sasS'2016-03-13'
p614
(lp615
(dp616
g4
VMavericks
p617
sg6
VPacers
p618
sg8
F1.0
sg9
F203.0
sa(dp619
g4
V76ers
p620
sg6
VPistons
p621
sg8
F-11.5
sg9
F206.0
sa(dp622
g4
VRaptors
p623
sg6
VHeat
p624
sg8
F6.5
sg9
F202.5
sa(dp625
g4
VHornets
p626
sg6
VRockets
p627
sg8
F5.5
sg9
F215.0
sa(dp628
g4
VMilwaukee
p629
sg6
VPelicans
p630
sg8
F6.5
sg9
F210.5
sa(dp631
g4
VHawks
p632
sg6
VGrizzlies
p633
sg8
F14.0
sg9
F192.5
sa(dp634
g4
VSpurs
p635
sg6
VThunder
p636
sg8
F8.5
sg9
F211.0
sa(dp637
g4
VNuggets
p638
sg6
VWizards
p639
sg8
F1.0
sg9
F212.0
sa(dp640
g4
VTrail Blaze
p641
sg6
VMagic
p642
sg8
F8.5
sg9
F215.5
sa(dp643
g4
VWarriors
p644
sg6
VSuns
p645
sg8
F18.5
sg9
F227.5
sasS'2016-03-12'
p646
(lp647
(dp648
g4
V76ers
p649
sg6
VNets
p650
sg8
F-2.0
sg9
F208.5
sa(dp651
g4
VHornets
p652
sg6
VPistons
p653
sg8
F3.5
sg9
F202.5
sa(dp654
g4
VCeltics
p655
sg6
VRockets
p656
sg8
F4.0
sg9
F225.0
sa(dp657
g4
VBulls
p658
sg6
VHeat
p659
sg8
F-4.0
sg9
F200.5
sa(dp660
g4
VGrizzlies
p661
sg6
VPelicans
p662
sg8
F-2.5
sg9
F205.0
sa(dp663
g4
VThunder
p664
sg6
VTimberwolves
p665
sg8
F12.0
sg9
F223.5
sa(dp666
g4
VJazz
p667
sg6
VWizards
p668
sg8
F4.0
sg9
F195.5
sa(dp669
g4
Vsac
p670
sg6
VMagic
p671
sg8
F1.0
sg9
F217.5
sa(dp672
g4
VWarriors
p673
sg6
VTrail Blaze
p674
sg8
F14.0
sg9
F228.0
sa(dp675
g4
VClippers
p676
sg6
VKnicks
p677
sg8
F10.5
sg9
F205.5
sasS'2015-02-11'
p678
(lp679
(dp680
g4
VHornets
p681
sg6
VPistons
p682
sg8
F2.0
sg9
F193.0
sa(dp683
g4
VBulls
p684
sg6
Vsac
p685
sg8
F11.0
sg9
F197.5
sa(dp686
g4
VGrizzlies
p687
sg6
VNets
p688
sg8
F13.0
sg9
F190.0
sa(dp689
g4
VSuns
p690
sg6
VRockets
p691
sg8
F2.5
sg9
F217.0
sa(dp692
g4
VLakers
p693
sg6
VNuggets
p694
sg8
F1.5
sg9
F202.0
sasS'2015-02-10'
p695
(lp696
(dp697
g4
V76ers
p698
sg6
VWarriors
p699
sg8
F-16.0
sg9
F205.5
sa(dp700
g4
VWizards
p701
sg6
VMagic
p702
sg8
F10.5
sg9
F194.5
sa(dp703
g4
VPacers
p704
sg6
VSpurs
p705
sg8
F-5.0
sg9
F190.0
sa(dp706
g4
VHeat
p707
sg6
VKnicks
p708
sg8
F4.5
sg9
F181.5
sa(dp709
g4
VPelicans
p710
sg6
VJazz
p711
sg8
F2.5
sg9
F185.0
sa(dp712
g4
VMilwaukee
p713
sg6
VNets
p714
sg8
F5.0
sg9
F193.5
sa(dp715
g4
VTimberwolves
p716
sg6
VHawks
p717
sg8
F-6.5
sg9
F206.5
sa(dp718
g4
VMavericks
p719
sg6
VClippers
p720
sg8
F8.5
sg9
F209.5
sa(dp721
g4
VNuggets
p722
sg6
VThunder
p723
sg8
F-6.5
sg9
F214.0
sasS'2015-02-13'
p724
(lp725
(dp726
g4
VBulls
p727
sg6
VCavaliers
p728
sg8
F-2.0
sg9
F197.5
sasS'2015-02-12'
p729
(lp730
(dp731
g4
VMagic
p732
sg6
VKnicks
p733
sg8
F6.0
sg9
F187.5
sa(dp734
g4
VCeltics
p735
sg6
VHawks
p736
sg8
F-6.5
sg9
F201.0
sa(dp737
g4
VPistons
p738
sg6
VSpurs
p739
sg8
F-6.5
sg9
F194.5
sa(dp740
g4
VRaptors
p741
sg6
VWizards
p742
sg8
F5.0
sg9
F196.0
sa(dp743
g4
VPelicans
p744
sg6
VPacers
p745
sg8
F-1.0
sg9
F189.0
sa(dp746
g4
VMilwaukee
p747
sg6
Vsac
p748
sg8
F10.0
sg9
F198.5
sa(dp749
g4
VCavaliers
p750
sg6
VHeat
p751
sg8
F12.0
sg9
F192.5
sa(dp752
g4
VTimberwolves
p753
sg6
VWarriors
p754
sg8
F-9.0
sg9
F218.0
sa(dp755
g4
VThunder
p756
sg6
VGrizzlies
p757
sg8
F4.5
sg9
F201.5
sa(dp758
g4
VMavericks
p759
sg6
VJazz
p760
sg8
F5.0
sg9
F200.0
sa(dp761
g4
VTrail Blaze
p762
sg6
VLakers
p763
sg8
F13.5
sg9
F196.5
sa(dp764
g4
VClippers
p765
sg6
VRockets
p766
sg8
F3.0
sg9
F213.5
sasS'2016-01-08'
p767
(lp768
(dp769
g4
V76ers
p770
sg6
VHawks
p771
sg8
F-9.5
sg9
F207.5
sa(dp772
g4
VBulls
p773
sg6
VCeltics
p774
sg8
F6.0
sg9
F205.0
sa(dp775
g4
VRockets
p776
sg6
VJazz
p777
sg8
F6.5
sg9
F196.0
sa(dp778
g4
Vsac
p779
sg6
VLakers
p780
sg8
F8.0
sg9
F214.5
sasS'2015-03-31'
p781
(lp782
(dp783
g4
V76ers
p784
sg6
VLakers
p785
sg8
F5.0
sg9
F192.0
sa(dp786
g4
VHornets
p787
sg6
VCeltics
p788
sg8
F3.0
sg9
F195.5
sa(dp789
g4
VHawks
p790
sg6
VMilwaukee
p791
sg8
F9.0
sg9
F194.5
sa(dp792
g4
VRaptors
p793
sg6
VRockets
p794
sg8
F2.0
sg9
F209.0
sa(dp795
g4
VTimberwolves
p796
sg6
VJazz
p797
sg8
F-8.0
sg9
F187.0
sa(dp798
g4
VGrizzlies
p799
sg6
Vsac
p800
sg8
F10.5
sg9
F199.0
sa(dp801
g4
VTrail Blaze
p802
sg6
VSuns
p803
sg8
F8.5
sg9
F199.5
sasS'2014-10-29'
p804
(lp805
(dp806
g4
VPelicans
p807
sg6
VMagic
p808
sg8
F9.0
sg9
F191.5
sa(dp809
g4
VSpurs
p810
sg6
VMavericks
p811
sg8
F3.5
sg9
F203.0
sa(dp812
g4
VLakers
p813
sg6
VRockets
p814
sg8
F-7.0
sg9
F207.0
sasS'2014-11-14'
p815
(lp816
(dp817
g4
VRaptors
p818
sg6
VBulls
p819
sg8
F2.5
sg9
F196.0
sa(dp820
g4
VGrizzlies
p821
sg6
Vsac
p822
sg8
F5.5
sg9
F188.5
sa(dp823
g4
VMavericks
p824
sg6
V76ers
p825
sg8
F13.5
sg9
F210.0
sa(dp826
g4
VWarriors
p827
sg6
VNets
p828
sg8
F10.0
sg9
F210.5
sasS'2014-11-15'
p829
(lp830
(dp831
g4
VMagic
p832
sg6
VMilwaukee
p833
sg8
F2.5
sg9
F194.0
sa(dp834
g4
VPacers
p835
sg6
VNuggets
p836
sg8
F2.5
sg9
F199.0
sa(dp837
g4
VCeltics
p838
sg6
VCavaliers
p839
sg8
F-6.0
sg9
F208.5
sa(dp840
g4
VKnicks
p841
sg6
VJazz
p842
sg8
F3.5
sg9
F191.0
sa(dp843
g4
VHawks
p844
sg6
VHeat
p845
sg8
F5.0
sg9
F193.0
sa(dp846
g4
VPelicans
p847
sg6
VTimberwolves
p848
sg8
F8.0
sg9
F206.0
sa(dp849
g4
VRockets
p850
sg6
V76ers
p851
sg8
F16.5
sg9
F205.0
sa(dp852
g4
VThunder
p853
sg6
VPistons
p854
sg8
F3.0
sg9
F188.5
sa(dp855
g4
VSuns
p856
sg6
VHornets
p857
sg8
F6.0
sg9
F200.0
sa(dp858
g4
VLakers
p859
sg6
VSpurs
p860
sg8
F-8.0
sg9
F204.5
sasS'2014-11-16'
p861
(lp862
(dp863
g4
VWizards
p864
sg6
VMagic
p865
sg8
F9.0
sg9
F194.0
sa(dp866
g4
VRaptors
p867
sg6
VJazz
p868
sg8
F11.5
sg9
F201.5
sa(dp869
g4
VCavaliers
p870
sg6
VHawks
p871
sg8
F6.5
sg9
F208.5
sa(dp872
g4
VBulls
p873
sg6
VPacers
p874
sg8
F9.0
sg9
F180.5
sa(dp875
g4
VGrizzlies
p876
sg6
VPistons
p877
sg8
F9.5
sg9
F186.5
sa(dp878
g4
VMavericks
p879
sg6
VTimberwolves
p880
sg8
F11.5
sg9
F210.5
sa(dp881
g4
Vsac
p882
sg6
VSpurs
p883
sg8
F-1.5
sg9
F195.0
sa(dp884
g4
VTrail Blaze
p885
sg6
VNets
p886
sg8
F2.5
sg9
F204.0
sa(dp887
g4
VWarriors
p888
sg6
VHornets
p889
sg8
F11.5
sg9
F201.0
sa(dp890
g4
VClippers
p891
sg6
VSuns
p892
sg8
F7.5
sg9
F210.5
sasS'2014-11-17'
p893
(lp894
(dp895
g4
VKnicks
p896
sg6
VNuggets
p897
sg8
F1.5
sg9
F204.0
sa(dp898
g4
VHeat
p899
sg6
VMilwaukee
p900
sg8
F4.5
sg9
F189.5
sa(dp901
g4
VThunder
p902
sg6
VRockets
p903
sg8
F-5.0
sg9
F192.5
sa(dp904
g4
VLakers
p905
sg6
VWarriors
p906
sg8
F-8.0
sg9
F213.0
sasS'2014-11-10'
p907
(lp908
(dp909
g4
VNets
p910
sg6
VMagic
p911
sg8
F9.0
sg9
F198.0
sa(dp912
g4
VPistons
p913
sg6
VJazz
p914
sg8
F3.5
sg9
F192.0
sa(dp915
g4
VRaptors
p916
sg6
V76ers
p917
sg8
F13.5
sg9
F205.0
sa(dp918
g4
VThunder
p919
sg6
Vsac
p920
sg8
F-2.0
sg9
F190.0
sa(dp921
g4
VMavericks
p922
sg6
VHeat
p923
sg8
F8.0
sg9
F205.0
sa(dp924
g4
VSuns
p925
sg6
VWarriors
p926
sg8
F-2.5
sg9
F209.0
sa(dp927
g4
VTrail Blaze
p928
sg6
VNuggets
p929
sg8
F9.0
sg9
F207.5
sa(dp930
g4
VLakers
p931
sg6
VHornets
p932
sg8
F-2.5
sg9
F202.0
sasS'2014-11-11'
p933
(lp934
(dp935
g4
VPacers
p936
sg6
VJazz
p937
sg8
F2.5
sg9
F187.0
sa(dp938
g4
VCavaliers
p939
sg6
VPelicans
p940
sg8
F6.0
sg9
F202.0
sa(dp941
g4
VKnicks
p942
sg6
VHawks
p943
sg8
F-2.0
sg9
F197.0
sa(dp944
g4
VBulls
p945
sg6
VPistons
p946
sg8
F10.0
sg9
F190.5
sa(dp947
g4
VClippers
p948
sg6
VSpurs
p949
sg8
F2.0
sg9
F203.0
sasS'2014-11-12'
p950
(lp951
(dp952
g4
VRaptors
p953
sg6
VMagic
p954
sg8
F11.0
sg9
F198.5
sa(dp955
g4
VMilwaukee
p956
sg6
VThunder
p957
sg8
F2.0
sg9
F191.0
sa(dp958
g4
VGrizzlies
p959
sg6
VLakers
p960
sg8
F10.5
sg9
F197.5
sa(dp961
g4
VMavericks
p962
sg6
Vsac
p963
sg8
F8.0
sg9
F205.5
sa(dp964
g4
VTrail Blaze
p965
sg6
VHornets
p966
sg8
F6.5
sg9
F192.5
sa(dp967
g4
VWarriors
p968
sg6
VSpurs
p969
sg8
F7.0
sg9
F200.5
sasS'2014-11-13'
p970
(lp971
(dp972
g4
VWizards
p973
sg6
VPistons
p974
sg8
F6.0
sg9
F192.0
sa(dp975
g4
VCeltics
p976
sg6
VThunder
p977
sg8
F7.5
sg9
F196.5
sa(dp978
g4
VHeat
p979
sg6
VPacers
p980
sg8
F8.5
sg9
F188.0
sa(dp981
g4
VKnicks
p982
sg6
VMagic
p983
sg8
F6.5
sg9
F191.0
sa(dp984
g4
VHawks
p985
sg6
VJazz
p986
sg8
F7.0
sg9
F197.0
sa(dp987
g4
VPelicans
p988
sg6
VLakers
p989
sg8
F10.5
sg9
F209.0
sa(dp990
g4
VNuggets
p991
sg6
VTrail Blaze
p992
sg8
F2.5
sg9
F208.5
sa(dp993
g4
VSuns
p994
sg6
VNets
p995
sg8
F4.5
sg9
F207.5
sa(dp996
g4
VTimberwolves
p997
sg6
VRockets
p998
sg8
F-6.0
sg9
F206.5
sasS'2014-11-18'
p999
(lp1000
(dp1001
g4
VCavaliers
p1002
sg6
VNuggets
p1003
sg8
F11.5
sg9
F218.5
sa(dp1004
g4
VHornets
p1005
sg6
VMavericks
p1006
sg8
F-4.0
sg9
F199.0
sa(dp1007
g4
VCeltics
p1008
sg6
VSuns
p1009
sg8
F-2.0
sg9
F216.0
sa(dp1010
g4
VNets
p1011
sg6
VHeat
p1012
sg8
F8.0
sg9
F195.5
sa(dp1013
g4
VPistons
p1014
sg6
VMagic
p1015
sg8
F4.5
sg9
F192.5
sa(dp1016
g4
VGrizzlies
p1017
sg6
VRockets
p1018
sg8
F4.5
sg9
F187.5
sa(dp1019
g4
VSpurs
p1020
sg6
V76ers
p1021
sg8
F16.5
sg9
F195.5
sa(dp1022
g4
VTrail Blaze
p1023
sg6
VPelicans
p1024
sg8
F3.5
sg9
F204.0
sa(dp1025
g4
VClippers
p1026
sg6
VBulls
p1027
sg8
F7.0
sg9
F198.5
sasS'2014-11-19'
p1028
(lp1029
(dp1030
g4
VHawks
p1031
sg6
VLakers
p1032
sg8
F8.5
sg9
F211.0
sa(dp1033
g4
VMilwaukee
p1034
sg6
VKnicks
p1035
sg8
F1.5
sg9
F192.5
sa(dp1036
g4
VJazz
p1037
sg6
VThunder
p1038
sg8
F3.0
sg9
F186.0
sa(dp1039
g4
Vsac
p1040
sg6
VPelicans
p1041
sg8
F3.0
sg9
F204.5
sasS'2014-12-19'
p1042
(lp1043
(dp1044
g4
VBulls
p1045
sg6
VKnicks
p1046
sg8
F12.5
sg9
F188.5
sa(dp1047
g4
VRockets
p1048
sg6
VPelicans
p1049
sg8
F4.5
sg9
F200.5
sa(dp1050
g4
Vsac
p1051
sg6
VMilwaukee
p1052
sg8
F7.5
sg9
F205.0
sa(dp1053
g4
VWarriors
p1054
sg6
VThunder
p1055
sg8
F2.5
sg9
F211.5
sasS'2014-12-18'
p1056
(lp1057
(dp1058
g4
VCavaliers
p1059
sg6
VHawks
p1060
sg8
F7.0
sg9
F201.0
sa(dp1061
g4
VHornets
p1062
sg6
VSuns
p1063
sg8
F-2.5
sg9
F201.5
sa(dp1064
g4
VCeltics
p1065
sg6
VMagic
p1066
sg8
F3.5
sg9
F199.5
sa(dp1067
g4
VHeat
p1068
sg6
VJazz
p1069
sg8
F3.5
sg9
F189.5
sa(dp1070
g4
VPistons
p1071
sg6
VMavericks
p1072
sg8
F-7.0
sg9
F205.0
sa(dp1073
g4
VRaptors
p1074
sg6
VNets
p1075
sg8
F12.5
sg9
F198.5
sa(dp1076
g4
VSpurs
p1077
sg6
VGrizzlies
p1078
sg8
F3.0
sg9
F191.0
sa(dp1079
g4
VTrail Blaze
p1080
sg6
VMilwaukee
p1081
sg8
F10.0
sg9
F202.0
sa(dp1082
g4
VNuggets
p1083
sg6
VRockets
p1084
sg8
F-3.0
sg9
F204.0
sa(dp1085
g4
VClippers
p1086
sg6
VPacers
p1087
sg8
F11.0
sg9
F201.0
sasS'2014-12-11'
p1088
(lp1089
(dp1090
g4
VMagic
p1091
sg6
VWizards
p1092
sg8
F-5.0
sg9
F195.5
sa(dp1093
g4
VPacers
p1094
sg6
VClippers
p1095
sg8
F-6.5
sg9
F199.5
sa(dp1096
g4
VHornets
p1097
sg6
VCeltics
p1098
sg8
F3.0
sg9
F205.0
sa(dp1099
g4
VHawks
p1100
sg6
V76ers
p1101
sg8
F13.0
sg9
F202.0
sa(dp1102
g4
VBulls
p1103
sg6
VNets
p1104
sg8
F10.5
sg9
F192.5
sa(dp1105
g4
VMavericks
p1106
sg6
VPelicans
p1107
sg8
F7.0
sg9
F209.0
sa(dp1108
g4
VTimberwolves
p1109
sg6
VTrail Blaze
p1110
sg8
F-10.0
sg9
F206.5
sa(dp1111
g4
VSpurs
p1112
sg6
VKnicks
p1113
sg8
F10.0
sg9
F190.0
sa(dp1114
g4
VNuggets
p1115
sg6
VHeat
p1116
sg8
F6.0
sg9
F202.5
sa(dp1117
g4
VWarriors
p1118
sg6
VRockets
p1119
sg8
F9.5
sg9
F204.5
sasS'2014-12-10'
p1120
(lp1121
(dp1122
g4
VCavaliers
p1123
sg6
VRaptors
p1124
sg8
F6.0
sg9
F205.5
sa(dp1125
g4
VPistons
p1126
sg6
VTrail Blaze
p1127
sg8
F-8.0
sg9
F196.5
sa(dp1128
g4
VPelicans
p1129
sg6
VKnicks
p1130
sg8
F6.5
sg9
F195.0
sa(dp1131
g4
VGrizzlies
p1132
sg6
VMavericks
p1133
sg8
F2.5
sg9
F203.0
sa(dp1134
g4
VThunder
p1135
sg6
VMilwaukee
p1136
sg8
F10.0
sg9
F201.0
sa(dp1137
g4
VJazz
p1138
sg6
VSpurs
p1139
sg8
F-9.0
sg9
F194.0
sa(dp1140
g4
VSuns
p1141
sg6
VHeat
p1142
sg8
F4.5
sg9
F202.5
sa(dp1143
g4
VLakers
p1144
sg6
Vsac
p1145
sg8
F3.5
sg9
F208.5
sasS'2014-12-13'
p1146
(lp1147
(dp1148
g4
VWizards
p1149
sg6
VClippers
p1150
sg8
F-2.5
sg9
F206.0
sa(dp1151
g4
VBulls
p1152
sg6
VTrail Blaze
p1153
sg8
F2.5
sg9
F197.0
sa(dp1154
g4
VCeltics
p1155
sg6
VKnicks
p1156
sg8
F6.5
sg9
F203.0
sa(dp1157
g4
VNets
p1158
sg6
V76ers
p1159
sg8
F6.5
sg9
F193.5
sa(dp1160
g4
VHawks
p1161
sg6
VMagic
p1162
sg8
F9.0
sg9
F196.0
sa(dp1163
g4
VRaptors
p1164
sg6
VPacers
p1165
sg8
F9.0
sg9
F196.0
sa(dp1166
g4
VPelicans
p1167
sg6
VCavaliers
p1168
sg8
F1.5
sg9
F200.5
sa(dp1169
g4
VTimberwolves
p1170
sg6
VThunder
p1171
sg8
F-8.5
sg9
F205.0
sa(dp1172
g4
VGrizzlies
p1173
sg6
VHornets
p1174
sg8
F10.0
sg9
F190.0
sa(dp1175
g4
VJazz
p1176
sg6
VHeat
p1177
sg8
F1.5
sg9
F190.5
sa(dp1178
g4
VSuns
p1179
sg6
VPistons
p1180
sg8
F9.5
sg9
F205.5
sa(dp1181
g4
VSpurs
p1182
sg6
VLakers
p1183
sg8
F12.0
sg9
F206.0
sasS'2014-12-12'
p1184
(lp1185
(dp1186
g4
VThunder
p1187
sg6
VCavaliers
p1188
sg8
F7.0
sg9
F202.0
sa(dp1189
g4
Vsac
p1190
sg6
VRockets
p1191
sg8
F1.0
sg9
F196.5
sasS'2014-12-15'
p1192
(lp1193
(dp1194
g4
VHeat
p1195
sg6
VBulls
p1196
sg8
F-6.5
sg9
F194.5
sa(dp1197
g4
VWizards
p1198
sg6
VJazz
p1199
sg8
F11.5
sg9
F193.5
sa(dp1200
g4
VPelicans
p1201
sg6
VWarriors
p1202
sg8
F-6.5
sg9
F205.5
sa(dp1203
g4
VTimberwolves
p1204
sg6
VLakers
p1205
sg8
F-3.5
sg9
F212.0
sa(dp1206
g4
VThunder
p1207
sg6
VSuns
p1208
sg8
F7.5
sg9
F211.0
sa(dp1209
g4
VKnicks
p1210
sg6
VRaptors
p1211
sg8
F-7.0
sg9
F200.5
sa(dp1212
g4
VNuggets
p1213
sg6
VSpurs
p1214
sg8
F-5.0
sg9
F203.0
sasS'2014-12-14'
p1215
(lp1216
(dp1217
g4
VMavericks
p1218
sg6
VWarriors
p1219
sg8
F1.0
sg9
F217.0
sa(dp1220
g4
VMagic
p1221
sg6
VHawks
p1222
sg8
F-3.0
sg9
F194.5
sa(dp1223
g4
VPacers
p1224
sg6
VTrail Blaze
p1225
sg8
F-5.0
sg9
F192.5
sa(dp1226
g4
VHornets
p1227
sg6
VNets
p1228
sg8
F4.0
sg9
F189.5
sa(dp1229
g4
V76ers
p1230
sg6
VGrizzlies
p1231
sg8
F-10.0
sg9
F191.5
sa(dp1232
g4
VMilwaukee
p1233
sg6
VClippers
p1234
sg8
F-5.5
sg9
F210.0
sa(dp1235
g4
VRockets
p1236
sg6
VNuggets
p1237
sg8
F7.0
sg9
F205.5
sa(dp1238
g4
Vsac
p1239
sg6
VPistons
p1240
sg8
F5.0
sg9
F195.0
sasS'2014-12-17'
p1241
(lp1242
(dp1243
g4
VWizards
p1244
sg6
VTimberwolves
p1245
sg8
F12.5
sg9
F203.0
sa(dp1246
g4
VNets
p1247
sg6
VHeat
p1248
sg8
F6.0
sg9
F187.0
sa(dp1249
g4
VKnicks
p1250
sg6
VMavericks
p1251
sg8
F-7.5
sg9
F203.5
sa(dp1252
g4
VPelicans
p1253
sg6
VJazz
p1254
sg8
F10.0
sg9
F197.0
sa(dp1255
g4
VGrizzlies
p1256
sg6
VWarriors
p1257
sg8
F3.5
sg9
F204.0
sa(dp1258
g4
Vsac
p1259
sg6
VThunder
p1260
sg8
F8.0
sg9
F207.0
sasS'2014-12-16'
p1261
(lp1262
(dp1263
g4
V76ers
p1264
sg6
VCeltics
p1265
sg8
F-5.0
sg9
F205.0
sa(dp1266
g4
VPacers
p1267
sg6
VLakers
p1268
sg8
F5.0
sg9
F198.0
sa(dp1269
g4
VCavaliers
p1270
sg6
VHornets
p1271
sg8
F10.5
sg9
F196.5
sa(dp1272
g4
VHawks
p1273
sg6
VBulls
p1274
sg8
F2.5
sg9
F196.5
sa(dp1275
g4
VRaptors
p1276
sg6
VMagic
p1277
sg8
F7.0
sg9
F198.0
sa(dp1278
g4
VSuns
p1279
sg6
VMilwaukee
p1280
sg8
F5.5
sg9
F210.0
sa(dp1281
g4
VTrail Blaze
p1282
sg6
VSpurs
p1283
sg8
F8.5
sg9
F194.5
sa(dp1284
g4
VClippers
p1285
sg6
VPistons
p1286
sg8
F11.5
sg9
F204.5
sasS'2015-04-30'
p1287
(lp1288
(dp1289
g4
VHawks
p1290
sg6
VNets
p1291
sg8
F9.0
sg9
F200.0
sa(dp1292
g4
VGrizzlies
p1293
sg6
VTrail Blaze
p1294
sg8
F6.0
sg9
F189.5
sasS'2016-04-03'
p1295
(lp1296
(dp1297
g4
V76ers
p1298
sg6
VPacers
p1299
sg8
F-11.0
sg9
F202.0
sa(dp1300
g4
VBulls
p1301
sg6
VPistons
p1302
sg8
F3.0
sg9
F206.5
sa(dp1303
g4
VSpurs
p1304
sg6
VRaptors
p1305
sg8
F13.5
sg9
F192.0
sa(dp1306
g4
VNuggets
p1307
sg6
Vsac
p1308
sg8
F9.5
sg9
F218.5
sa(dp1309
g4
VTrail Blaze
p1310
sg6
VHeat
p1311
sg8
F6.5
sg9
F209.5
sasS'2016-04-02'
p1312
(lp1313
(dp1314
g4
VHornets
p1315
sg6
V76ers
p1316
sg8
F14.0
sg9
F209.5
sa(dp1317
g4
VKnicks
p1318
sg6
VNets
p1319
sg8
F6.0
sg9
F201.0
sa(dp1320
g4
VPistons
p1321
sg6
VMavericks
p1322
sg8
F5.5
sg9
F205.0
sa(dp1323
g4
VMilwaukee
p1324
sg6
VMagic
p1325
sg8
F2.5
sg9
F208.5
sa(dp1326
g4
VHawks
p1327
sg6
VCavaliers
p1328
sg8
F1.5
sg9
F207.5
sa(dp1329
g4
VGrizzlies
p1330
sg6
VRaptors
p1331
sg8
F-5.5
sg9
F195.5
sa(dp1332
g4
VJazz
p1333
sg6
VTimberwolves
p1334
sg8
F6.5
sg9
F192.0
sa(dp1335
g4
Vsac
p1336
sg6
VHeat
p1337
sg8
F-6.5
sg9
F211.5
sa(dp1338
g4
VSuns
p1339
sg6
VWizards
p1340
sg8
F-9.0
sg9
F213.0
sa(dp1341
g4
VWarriors
p1342
sg6
VCeltics
p1343
sg8
F11.5
sg9
F220.5
sasS'2016-04-01'
p1344
(lp1345
(dp1346
g4
VPacers
p1347
sg6
VMagic
p1348
sg8
F6.0
sg9
F209.0
sa(dp1349
g4
VCavaliers
p1350
sg6
VNets
p1351
sg8
F17.0
sg9
F212.0
sa(dp1352
g4
VRockets
p1353
sg6
VBulls
p1354
sg8
F6.5
sg9
F216.0
sa(dp1355
g4
VPelicans
p1356
sg6
VNuggets
p1357
sg8
F-7.5
sg9
F206.5
sa(dp1358
g4
VThunder
p1359
sg6
VClippers
p1360
sg8
F17.0
sg9
F208.5
sa(dp1361
g4
VTrail Blaze
p1362
sg6
VCeltics
p1363
sg8
F2.5
sg9
F214.0
sasS'2016-04-07'
p1364
(lp1365
(dp1366
g4
VMagic
p1367
sg6
VPistons
p1368
sg8
F3.0
sg9
F209.0
sa(dp1369
g4
VWizards
p1370
sg6
VNets
p1371
sg8
F11.5
sg9
F209.0
sa(dp1372
g4
VPacers
p1373
sg6
VCavaliers
p1374
sg8
F3.5
sg9
F196.0
sa(dp1375
g4
VCeltics
p1376
sg6
VPelicans
p1377
sg8
F14.5
sg9
F208.5
sa(dp1378
g4
VKnicks
p1379
sg6
VHornets
p1380
sg8
F-4.5
sg9
F196.5
sa(dp1381
g4
VMavericks
p1382
sg6
VRockets
p1383
sg8
F-1.5
sg9
F207.0
sa(dp1384
g4
VTrail Blaze
p1385
sg6
VThunder
p1386
sg8
F8.0
sg9
F213.5
sa(dp1387
g4
VLakers
p1388
sg6
VClippers
p1389
sg8
F-11.5
sg9
F202.5
sasS'2016-04-06'
p1390
(lp1391
(dp1392
g4
V76ers
p1393
sg6
VPelicans
p1394
sg8
F2.5
sg9
F207.0
sa(dp1395
g4
VRaptors
p1396
sg6
VHornets
p1397
sg8
F5.0
sg9
F201.0
sa(dp1398
g4
VHeat
p1399
sg6
VPistons
p1400
sg8
F4.5
sg9
F203.5
sa(dp1401
g4
VMilwaukee
p1402
sg6
VCavaliers
p1403
sg8
F-9.5
sg9
F203.0
sa(dp1404
g4
VHawks
p1405
sg6
VSuns
p1406
sg8
F15.0
sg9
F206.0
sa(dp1407
g4
VGrizzlies
p1408
sg6
VBulls
p1409
sg8
F-3.5
sg9
F200.5
sa(dp1410
g4
VJazz
p1411
sg6
VSpurs
p1412
sg8
F-3.0
sg9
F182.5
sa(dp1413
g4
VNuggets
p1414
sg6
VThunder
p1415
sg8
F-9.0
sg9
F217.5
sa(dp1416
g4
Vsac
p1417
sg6
VTrail Blaze
p1418
sg8
F-4.0
sg9
F222.5
sa(dp1419
g4
VWarriors
p1420
sg6
VTimberwolves
p1421
sg8
F14.0
sg9
F226.0
sa(dp1422
g4
VClippers
p1423
sg6
VLakers
p1424
sg8
F14.5
sg9
F207.5
sasS'2016-04-04'
p1425
(lp1426
(dp1427
g4
VNets
p1428
sg6
VPelicans
p1429
sg8
F2.5
sg9
F200.5
sa(dp1430
g4
VCavaliers
p1431
sg6
VHornets
p1432
sg8
F7.0
sg9
F202.5
sa(dp1433
g4
VTimberwolves
p1434
sg6
VMavericks
p1435
sg8
F-3.5
sg9
F205.5
sa(dp1436
g4
VRockets
p1437
sg6
VThunder
p1438
sg8
F-3.0
sg9
F221.5
sa(dp1439
g4
VClippers
p1440
sg6
VWizards
p1441
sg8
F6.5
sg9
F205.5
sa(dp1442
g4
VMagic
p1443
sg6
VGrizzlies
p1444
sg8
F4.5
sg9
F206.5
sa(dp1445
g4
VSuns
p1446
sg6
VJazz
p1447
sg8
F-8.5
sg9
F192.5
sa(dp1448
g4
VMilwaukee
p1449
sg6
VBulls
p1450
sg8
F1.5
sg9
F202.5
sa(dp1451
g4
VKnicks
p1452
sg6
VPacers
p1453
sg8
F-7.0
sg9
F195.5
sa(dp1454
g4
VWarriors
p1455
sg6
VTrail Blaze
p1456
sg8
F11.0
sg9
F227.0
sa(dp1457
g4
VLakers
p1458
sg6
VCeltics
p1459
sg8
F-9.0
sg9
F210.5
sasS'2016-04-09'
p1460
(lp1461
(dp1462
g4
VMagic
p1463
sg6
VHeat
p1464
sg8
F-1.5
sg9
F208.0
sa(dp1465
g4
V76ers
p1466
sg6
VKnicks
p1467
sg8
F-2.5
sg9
F203.0
sa(dp1468
g4
VHornets
p1469
sg6
VNets
p1470
sg8
F14.5
sg9
F208.5
sa(dp1471
g4
VCeltics
p1472
sg6
VMilwaukee
p1473
sg8
F11.0
sg9
F204.0
sa(dp1474
g4
VPistons
p1475
sg6
VWizards
p1476
sg8
F6.0
sg9
F203.0
sa(dp1477
g4
VRaptors
p1478
sg6
VPacers
p1479
sg8
F-5.0
sg9
F193.5
sa(dp1480
g4
VPelicans
p1481
sg6
VLakers
p1482
sg8
F3.5
sg9
F201.5
sa(dp1483
g4
VMavericks
p1484
sg6
VGrizzlies
p1485
sg8
F6.5
sg9
F191.0
sa(dp1486
g4
VJazz
p1487
sg6
VClippers
p1488
sg8
F14.0
sg9
F184.0
sa(dp1489
g4
VNuggets
p1490
sg6
VSpurs
p1491
sg8
F1.0
sg9
F199.0
sasS'2016-04-08'
p1492
(lp1493
(dp1494
g4
VHeat
p1495
sg6
VBulls
p1496
sg8
F6.0
sg9
F205.0
sa(dp1497
g4
VHawks
p1498
sg6
VRaptors
p1499
sg8
F5.5
sg9
F200.0
sa(dp1500
g4
VRockets
p1501
sg6
VSuns
p1502
sg8
F12.0
sg9
F212.5
sa(dp1503
g4
Vsac
p1504
sg6
VTimberwolves
p1505
sg8
F-1.0
sg9
F222.5
sa(dp1506
g4
VWarriors
p1507
sg6
VSpurs
p1508
sg8
F6.0
sg9
F208.5
sasS'2016-01-31'
p1509
(lp1510
(dp1511
g4
V76ers
p1512
sg6
VWarriors
p1513
sg8
F-16.5
sg9
F217.0
sa(dp1514
g4
VRaptors
p1515
sg6
VPistons
p1516
sg8
F8.0
sg9
F204.5
sa(dp1517
g4
VPacers
p1518
sg6
VNuggets
p1519
sg8
F9.5
sg9
F209.0
sa(dp1520
g4
VPelicans
p1521
sg6
VNets
p1522
sg8
F9.0
sg9
F204.5
sa(dp1523
g4
VRockets
p1524
sg6
VWizards
p1525
sg8
F4.0
sg9
F218.5
sa(dp1526
g4
VGrizzlies
p1527
sg6
Vsac
p1528
sg8
F4.0
sg9
F207.0
sa(dp1529
g4
VCavaliers
p1530
sg6
VSpurs
p1531
sg8
F-1.5
sg9
F202.5
sasS'2015-03-08'
p1532
(lp1533
(dp1534
g4
VPelicans
p1535
sg6
VGrizzlies
p1536
sg8
F1.5
sg9
F186.0
sa(dp1537
g4
VHeat
p1538
sg6
Vsac
p1539
sg8
F0.0
sg9
F204.0
sa(dp1540
g4
VKnicks
p1541
sg6
VPacers
p1542
sg8
F-9.0
sg9
F187.5
sa(dp1543
g4
V76ers
p1544
sg6
VHawks
p1545
sg8
F-7.5
sg9
F193.5
sa(dp1546
g4
VCavaliers
p1547
sg6
VSuns
p1548
sg8
F11.5
sg9
F212.0
sa(dp1549
g4
VTimberwolves
p1550
sg6
VTrail Blaze
p1551
sg8
F-5.0
sg9
F199.0
sa(dp1552
g4
VMilwaukee
p1553
sg6
VWizards
p1554
sg8
F4.5
sg9
F186.0
sa(dp1555
g4
VNuggets
p1556
sg6
VRockets
p1557
sg8
F-4.0
sg9
F215.5
sasS'2015-03-01'
p1558
(lp1559
(dp1560
g4
VWizards
p1561
sg6
VPistons
p1562
sg8
F4.5
sg9
F194.0
sa(dp1563
g4
VHeat
p1564
sg6
VHawks
p1565
sg8
F-2.5
sg9
F195.5
sa(dp1566
g4
VKnicks
p1567
sg6
VRaptors
p1568
sg8
F-10.5
sg9
F189.5
sa(dp1569
g4
VTimberwolves
p1570
sg6
VGrizzlies
p1571
sg8
F-5.5
sg9
F189.5
sa(dp1572
g4
VMavericks
p1573
sg6
VNets
p1574
sg8
F8.0
sg9
F200.5
sa(dp1575
g4
VJazz
p1576
sg6
VMilwaukee
p1577
sg8
F3.5
sg9
F182.0
sa(dp1578
g4
VSuns
p1579
sg6
VSpurs
p1580
sg8
F2.0
sg9
F207.0
sasS'2015-03-03'
p1581
(lp1582
(dp1583
g4
V76ers
p1584
sg6
VRaptors
p1585
sg8
F-9.5
sg9
F192.0
sa(dp1586
g4
VHeat
p1587
sg6
VSuns
p1588
sg8
F1.5
sg9
F206.5
sa(dp1589
g4
VNets
p1590
sg6
VWarriors
p1591
sg8
F-5.5
sg9
F209.5
sa(dp1592
g4
VTimberwolves
p1593
sg6
VClippers
p1594
sg8
F-6.5
sg9
F204.5
sa(dp1595
g4
VMavericks
p1596
sg6
VPelicans
p1597
sg8
F8.0
sg9
F197.0
sasS'2015-03-02'
p1598
(lp1599
(dp1600
g4
VBulls
p1601
sg6
VClippers
p1602
sg8
F-2.0
sg9
F197.5
sa(dp1603
g4
VRockets
p1604
sg6
VCavaliers
p1605
sg8
F-1.0
sg9
F205.5
sa(dp1606
g4
VCeltics
p1607
sg6
VWarriors
p1608
sg8
F-8.5
sg9
F218.5
sa(dp1609
g4
VMagic
p1610
sg6
VHornets
p1611
sg8
F-1.5
sg9
F184.5
sa(dp1612
g4
VPacers
p1613
sg6
V76ers
p1614
sg8
F11.0
sg9
F192.0
sa(dp1615
g4
Vsac
p1616
sg6
VTrail Blaze
p1617
sg8
F-8.0
sg9
F206.0
sa(dp1618
g4
VLakers
p1619
sg6
VThunder
p1620
sg8
F-4.0
sg9
F198.5
sa(dp1621
g4
VNuggets
p1622
sg6
VPelicans
p1623
sg8
F-4.5
sg9
F197.5
sasS'2015-03-05'
p1624
(lp1625
(dp1626
g4
VMagic
p1627
sg6
VSuns
p1628
sg8
F-4.5
sg9
F202.0
sa(dp1629
g4
VPacers
p1630
sg6
VKnicks
p1631
sg8
F13.5
sg9
F190.5
sa(dp1632
g4
VCeltics
p1633
sg6
VJazz
p1634
sg8
F1.0
sg9
F193.0
sa(dp1635
g4
VNets
p1636
sg6
VHornets
p1637
sg8
F6.0
sg9
F194.5
sa(dp1638
g4
VRaptors
p1639
sg6
VCavaliers
p1640
sg8
F-5.0
sg9
F204.5
sa(dp1641
g4
VHeat
p1642
sg6
VLakers
p1643
sg8
F9.5
sg9
F201.5
sa(dp1644
g4
VPelicans
p1645
sg6
VPistons
p1646
sg8
F5.0
sg9
F195.5
sa(dp1647
g4
VTimberwolves
p1648
sg6
VNuggets
p1649
sg8
F7.0
sg9
F208.5
sa(dp1650
g4
VRockets
p1651
sg6
VGrizzlies
p1652
sg8
F3.0
sg9
F196.5
sa(dp1653
g4
VThunder
p1654
sg6
V76ers
p1655
sg8
F15.0
sg9
F203.0
sa(dp1656
g4
VSpurs
p1657
sg6
Vsac
p1658
sg8
F10.5
sg9
F208.0
sa(dp1659
g4
VWarriors
p1660
sg6
VMilwaukee
p1661
sg8
F13.0
sg9
F204.0
sa(dp1662
g4
VClippers
p1663
sg6
VTrail Blaze
p1664
sg8
F-1.0
sg9
F205.0
sasS'2015-03-04'
p1665
(lp1666
(dp1667
g4
VKnicks
p1668
sg6
Vsac
p1669
sg8
F-4.5
sg9
F201.5
sa(dp1670
g4
VCavaliers
p1671
sg6
VCeltics
p1672
sg8
F11.5
sg9
F210.0
sa(dp1673
g4
VHornets
p1674
sg6
VLakers
p1675
sg8
F9.0
sg9
F196.0
sa(dp1676
g4
VHawks
p1677
sg6
VRockets
p1678
sg8
F8.5
sg9
F199.5
sa(dp1679
g4
VBulls
p1680
sg6
VWizards
p1681
sg8
F-1.5
sg9
F187.5
sa(dp1682
g4
VGrizzlies
p1683
sg6
VJazz
p1684
sg8
F7.0
sg9
F180.5
sa(dp1685
g4
VNuggets
p1686
sg6
VMilwaukee
p1687
sg8
F-5.5
sg9
F196.5
sasS'2015-03-07'
p1688
(lp1689
(dp1690
g4
VMagic
p1691
sg6
Vsac
p1692
sg8
F-3.0
sg9
F201.0
sa(dp1693
g4
V76ers
p1694
sg6
VJazz
p1695
sg8
F-7.5
sg9
F186.5
sa(dp1696
g4
VWizards
p1697
sg6
VHeat
p1698
sg8
F6.0
sg9
F193.5
sa(dp1699
g4
VPacers
p1700
sg6
VBulls
p1701
sg8
F6.0
sg9
F187.0
sa(dp1702
g4
VHawks
p1703
sg6
VCavaliers
p1704
sg8
F-1.5
sg9
F207.0
sa(dp1705
g4
VNets
p1706
sg6
VSuns
p1707
sg8
F2.5
sg9
F212.0
sa(dp1708
g4
VPelicans
p1709
sg6
VCeltics
p1710
sg8
F7.0
sg9
F199.5
sa(dp1711
g4
VRockets
p1712
sg6
VPistons
p1713
sg8
F7.5
sg9
F208.0
sa(dp1714
g4
VGrizzlies
p1715
sg6
VLakers
p1716
sg8
F11.0
sg9
F197.0
sa(dp1717
g4
VSpurs
p1718
sg6
VNuggets
p1719
sg8
F11.0
sg9
F205.5
sa(dp1720
g4
VWarriors
p1721
sg6
VMavericks
p1722
sg8
F11.5
sg9
F209.5
sa(dp1723
g4
VHornets
p1724
sg6
VRaptors
p1725
sg8
F1.0
sg9
F194.0
sasS'2015-03-06'
p1726
(lp1727
(dp1728
g4
VBulls
p1729
sg6
VThunder
p1730
sg8
F-1.5
sg9
F199.0
sa(dp1731
g4
VTrail Blaze
p1732
sg6
VMavericks
p1733
sg8
F3.0
sg9
F198.0
sasS'2015-05-02'
p1734
(lp1735
(dp1736
g4
VNets
p1737
sg6
VHawks
p1738
sg8
F-5.0
sg9
F198.5
sasS'2015-05-01'
p1739
(lp1740
(dp1741
g4
VMilwaukee
p1742
sg6
VBulls
p1743
sg8
F-4.0
sg9
F188.5
sa(dp1744
g4
VSpurs
p1745
sg6
VClippers
p1746
sg8
F5.5
sg9
F206.5
sasS'2015-01-18'
p1747
(lp1748
(dp1749
g4
VHornets
p1750
sg6
VPacers
p1751
sg8
F-2.0
sg9
F183.5
sa(dp1752
g4
VPistons
p1753
sg6
V76ers
p1754
sg8
F13.0
sg9
F194.5
sa(dp1755
g4
VNets
p1756
sg6
VWizards
p1757
sg8
F-5.5
sg9
F189.5
sa(dp1758
g4
VBulls
p1759
sg6
VHawks
p1760
sg8
F-3.5
sg9
F201.0
sa(dp1761
g4
VRockets
p1762
sg6
VWarriors
p1763
sg8
F2.0
sg9
F214.5
sa(dp1764
g4
VGrizzlies
p1765
sg6
VTrail Blaze
p1766
sg8
F2.5
sg9
F197.5
sa(dp1767
g4
VNuggets
p1768
sg6
VTimberwolves
p1769
sg8
F11.5
sg9
F211.5
sa(dp1770
g4
Vsac
p1771
sg6
VClippers
p1772
sg8
F-9.5
sg9
F208.5
sasS'2015-01-19'
p1773
(lp1774
(dp1775
g4
VRaptors
p1776
sg6
VPelicans
p1777
sg8
F11.0
sg9
F205.5
sa(dp1778
g4
VMagic
p1779
sg6
VThunder
p1780
sg8
F-9.0
sg9
F213.0
sa(dp1781
g4
VSpurs
p1782
sg6
VJazz
p1783
sg8
F12.5
sg9
F195.0
sasS'2015-01-10'
p1784
(lp1785
(dp1786
g4
VPacers
p1787
sg6
VCeltics
p1788
sg8
F6.0
sg9
F196.5
sa(dp1789
g4
VNets
p1790
sg6
V76ers
p1791
sg8
F10.5
sg9
F190.5
sa(dp1792
g4
VPistons
p1793
sg6
VHawks
p1794
sg8
F-2.5
sg9
F207.0
sa(dp1795
g4
VWizards
p1796
sg6
VBulls
p1797
sg8
F1.0
sg9
F195.0
sa(dp1798
g4
VPelicans
p1799
sg6
VGrizzlies
p1800
sg8
F1.0
sg9
F198.0
sa(dp1801
g4
VThunder
p1802
sg6
VJazz
p1803
sg8
F11.5
sg9
F197.5
sa(dp1804
g4
VMilwaukee
p1805
sg6
VTimberwolves
p1806
sg8
F9.5
sg9
F203.5
sa(dp1807
g4
VSpurs
p1808
sg6
VSuns
p1809
sg8
F5.0
sg9
F212.5
sa(dp1810
g4
Vsac
p1811
sg6
VNuggets
p1812
sg8
F5.0
sg9
F212.5
sa(dp1813
g4
VLakers
p1814
sg6
VMagic
p1815
sg8
F2.0
sg9
F198.5
sa(dp1816
g4
VWarriors
p1817
sg6
VCavaliers
p1818
sg8
F13.5
sg9
F210.5
sasS'2015-01-11'
p1819
(lp1820
(dp1821
g4
VKnicks
p1822
sg6
VHornets
p1823
sg8
F-7.5
sg9
F186.5
sa(dp1824
g4
VClippers
p1825
sg6
VMavericks
p1826
sg8
F3.5
sg9
F213.0
sa(dp1827
g4
V76ers
p1828
sg6
VPacers
p1829
sg8
F-7.0
sg9
F188.5
sa(dp1830
g4
VPistons
p1831
sg6
VNets
p1832
sg8
F5.5
sg9
F194.5
sa(dp1833
g4
VRaptors
p1834
sg6
VCeltics
p1835
sg8
F11.5
sg9
F209.0
sa(dp1836
g4
VBulls
p1837
sg6
VMilwaukee
p1838
sg8
F6.0
sg9
F193.5
sa(dp1839
g4
VTimberwolves
p1840
sg6
VSpurs
p1841
sg8
F-10.0
sg9
F199.0
sa(dp1842
g4
VRockets
p1843
sg6
VJazz
p1844
sg8
F11.0
sg9
F195.5
sa(dp1845
g4
VTrail Blaze
p1846
sg6
VMagic
p1847
sg8
F14.5
sg9
F194.5
sasS'2015-01-12'
p1848
(lp1849
(dp1850
g4
VHawks
p1851
sg6
VWizards
p1852
sg8
F4.0
sg9
F194.0
sa(dp1853
g4
VClippers
p1854
sg6
VHeat
p1855
sg8
F10.0
sg9
F199.5
sa(dp1856
g4
VGrizzlies
p1857
sg6
VSuns
p1858
sg8
F3.5
sg9
F209.0
sa(dp1859
g4
Vsac
p1860
sg6
VCavaliers
p1861
sg8
F3.5
sg9
F206.0
sa(dp1862
g4
VLakers
p1863
sg6
VTrail Blaze
p1864
sg8
F-6.0
sg9
F204.5
sasS'2015-01-13'
p1865
(lp1866
(dp1867
g4
VCeltics
p1868
sg6
VPelicans
p1869
sg8
F-6.0
sg9
F203.5
sa(dp1870
g4
VNets
p1871
sg6
VRockets
p1872
sg8
F-7.0
sg9
F193.5
sa(dp1873
g4
VRaptors
p1874
sg6
VPistons
p1875
sg8
F6.0
sg9
F208.5
sa(dp1876
g4
VBulls
p1877
sg6
VMagic
p1878
sg8
F11.5
sg9
F190.5
sasS'2015-01-14'
p1879
(lp1880
(dp1881
g4
V76ers
p1882
sg6
VHawks
p1883
sg8
F-10.5
sg9
F197.5
sa(dp1884
g4
VWizards
p1885
sg6
VSpurs
p1886
sg8
F1.0
sg9
F195.5
sa(dp1887
g4
VPacers
p1888
sg6
VTimberwolves
p1889
sg8
F11.0
sg9
F196.0
sa(dp1890
g4
VJazz
p1891
sg6
VWarriors
p1892
sg8
F-8.0
sg9
F202.0
sa(dp1893
g4
VSuns
p1894
sg6
VCavaliers
p1895
sg8
F4.5
sg9
F212.5
sa(dp1896
g4
Vsac
p1897
sg6
VMavericks
p1898
sg8
F-5.0
sg9
F215.0
sa(dp1899
g4
VLakers
p1900
sg6
VHeat
p1901
sg8
F-2.5
sg9
F197.5
sasS'2015-01-15'
p1902
(lp1903
(dp1904
g4
VMagic
p1905
sg6
VRockets
p1906
sg8
F-9.5
sg9
F200.5
sa(dp1907
g4
VHornets
p1908
sg6
VSpurs
p1909
sg8
F-4.5
sg9
F191.5
sa(dp1910
g4
VNets
p1911
sg6
VGrizzlies
p1912
sg8
F-7.0
sg9
F189.5
sa(dp1913
g4
VPistons
p1914
sg6
VPelicans
p1915
sg8
F4.0
sg9
F202.5
sa(dp1916
g4
VRaptors
p1917
sg6
V76ers
p1918
sg8
F18.0
sg9
F203.0
sa(dp1919
g4
VCeltics
p1920
sg6
VHawks
p1921
sg8
F-5.5
sg9
F202.0
sa(dp1922
g4
VBulls
p1923
sg6
VWizards
p1924
sg8
F6.0
sg9
F196.0
sa(dp1925
g4
VNuggets
p1926
sg6
VMavericks
p1927
sg8
F5.5
sg9
F212.5
sa(dp1928
g4
VTrail Blaze
p1929
sg6
VClippers
p1930
sg8
F3.5
sg9
F209.0
sa(dp1931
g4
VWarriors
p1932
sg6
VHeat
p1933
sg8
F15.0
sg9
F201.0
sasS'2015-01-16'
p1934
(lp1935
(dp1936
g4
VMilwaukee
p1937
sg6
VKnicks
p1938
sg8
F8.0
sg9
F198.5
sa(dp1939
g4
VRockets
p1940
sg6
VThunder
p1941
sg8
F-2.5
sg9
F208.5
sa(dp1942
g4
VLakers
p1943
sg6
VCavaliers
p1944
sg8
F-6.0
sg9
F207.0
sasS'2015-01-17'
p1945
(lp1946
(dp1947
g4
VMagic
p1948
sg6
VGrizzlies
p1949
sg8
F-5.0
sg9
F193.0
sa(dp1950
g4
V76ers
p1951
sg6
VPelicans
p1952
sg8
F-6.5
sg9
F190.5
sa(dp1953
g4
VWizards
p1954
sg6
VNets
p1955
sg8
F9.5
sg9
F191.5
sa(dp1956
g4
VPacers
p1957
sg6
VPistons
p1958
sg8
F1.0
sg9
F196.5
sa(dp1959
g4
VCeltics
p1960
sg6
VBulls
p1961
sg8
F-5.0
sg9
F201.0
sa(dp1962
g4
VRaptors
p1963
sg6
VHawks
p1964
sg8
F-2.0
sg9
F206.0
sa(dp1965
g4
VThunder
p1966
sg6
VWarriors
p1967
sg8
F-1.0
sg9
F217.5
sa(dp1968
g4
VMavericks
p1969
sg6
VNuggets
p1970
sg8
F8.0
sg9
F215.5
sa(dp1971
g4
VSpurs
p1972
sg6
VTrail Blaze
p1973
sg8
F4.5
sg9
F198.0
sa(dp1974
g4
VJazz
p1975
sg6
VLakers
p1976
sg8
F8.0
sg9
F196.5
sa(dp1977
g4
VSuns
p1978
sg6
VTimberwolves
p1979
sg8
F13.5
sg9
F216.5
sa(dp1980
g4
Vsac
p1981
sg6
VHeat
p1982
sg8
F3.0
sg9
F191.0
sa(dp1983
g4
VClippers
p1984
sg6
VCavaliers
p1985
sg8
F8.5
sg9
F207.0
sasS'2015-12-30'
p1986
(lp1987
(dp1988
g4
VKnicks
p1989
sg6
VPistons
p1990
sg8
F-1.5
sg9
F198.5
sa(dp1991
g4
VRockets
p1992
sg6
VHawks
p1993
sg8
F3.5
sg9
F208.5
sa(dp1994
g4
VGrizzlies
p1995
sg6
VHeat
p1996
sg8
F4.5
sg9
F189.5
sa(dp1997
g4
VThunder
p1998
sg6
VMilwaukee
p1999
sg8
F13.5
sg9
F207.5
sa(dp2000
g4
VNuggets
p2001
sg6
VCavaliers
p2002
sg8
F-6.5
sg9
F194.5
sasS'2015-11-28'
p2003
(lp2004
(dp2005
g4
VMagic
p2006
sg6
VMilwaukee
p2007
sg8
F3.5
sg9
F199.5
sa(dp2008
g4
VHornets
p2009
sg6
VCavaliers
p2010
sg8
F-4.5
sg9
F204.5
sa(dp2011
g4
VCeltics
p2012
sg6
VWizards
p2013
sg8
F2.5
sg9
F211.5
sa(dp2014
g4
VKnicks
p2015
sg6
VHeat
p2016
sg8
F-1.5
sg9
F187.5
sa(dp2017
g4
VPacers
p2018
sg6
VBulls
p2019
sg8
F4.0
sg9
F200.0
sa(dp2020
g4
VRockets
p2021
sg6
V76ers
p2022
sg8
F11.5
sg9
F199.5
sa(dp2023
g4
VGrizzlies
p2024
sg6
VHawks
p2025
sg8
F2.5
sg9
F197.5
sa(dp2026
g4
VThunder
p2027
sg6
VPistons
p2028
sg8
F8.5
sg9
F209.5
sa(dp2029
g4
VNuggets
p2030
sg6
VSpurs
p2031
sg8
F-7.5
sg9
F194.5
sa(dp2032
g4
VSuns
p2033
sg6
VWarriors
p2034
sg8
F-8.5
sg9
F217.0
sa(dp2035
g4
Vsac
p2036
sg6
VTimberwolves
p2037
sg8
F3.0
sg9
F217.0
sa(dp2038
g4
VClippers
p2039
sg6
VPelicans
p2040
sg8
F6.5
sg9
F213.5
sasS'2015-11-29'
p2041
(lp2042
(dp2043
g4
VWizards
p2044
sg6
VRaptors
p2045
sg8
F-4.5
sg9
F200.5
sa(dp2046
g4
VCavaliers
p2047
sg6
VNets
p2048
sg8
F8.5
sg9
F199.5
sa(dp2049
g4
VMavericks
p2050
sg6
VNuggets
p2051
sg8
F8.5
sg9
F204.5
sa(dp2052
g4
VSpurs
p2053
sg6
VHawks
p2054
sg8
F6.5
sg9
F192.5
sa(dp2055
g4
VJazz
p2056
sg6
VPelicans
p2057
sg8
F5.5
sg9
F195.5
sa(dp2058
g4
VTrail Blaze
p2059
sg6
VLakers
p2060
sg8
F8.5
sg9
F202.5
sa(dp2061
g4
VWarriors
p2062
sg6
Vsac
p2063
sg8
F16.5
sg9
F219.5
sasS'2015-11-24'
p2064
(lp2065
(dp2066
g4
VCavaliers
p2067
sg6
VMagic
p2068
sg8
F8.0
sg9
F200.0
sa(dp2069
g4
VHornets
p2070
sg6
Vsac
p2071
sg8
F3.5
sg9
F210.5
sa(dp2072
g4
VHeat
p2073
sg6
VKnicks
p2074
sg8
F5.0
sg9
F189.5
sa(dp2075
g4
VMilwaukee
p2076
sg6
VPistons
p2077
sg8
F-2.5
sg9
F190.5
sa(dp2078
g4
VTimberwolves
p2079
sg6
V76ers
p2080
sg8
F7.0
sg9
F200.5
sa(dp2081
g4
VSpurs
p2082
sg6
VSuns
p2083
sg8
F9.5
sg9
F196.5
sa(dp2084
g4
VJazz
p2085
sg6
VThunder
p2086
sg8
F2.0
sg9
F201.0
sasS'2015-11-25'
p2087
(lp2088
(dp2089
g4
VWizards
p2090
sg6
VPacers
p2091
sg8
F2.5
sg9
F207.5
sa(dp2092
g4
VHawks
p2093
sg6
VCeltics
p2094
sg8
F2.5
sg9
F204.0
sa(dp2095
g4
VGrizzlies
p2096
sg6
VMavericks
p2097
sg8
F3.5
sg9
F196.0
sa(dp2098
g4
VNuggets
p2099
sg6
VClippers
p2100
sg8
F-7.0
sg9
F204.5
sa(dp2101
g4
VTrail Blaze
p2102
sg6
VBulls
p2103
sg8
F-2.5
sg9
F202.0
sa(dp2104
g4
VWarriors
p2105
sg6
VLakers
p2106
sg8
F17.0
sg9
F216.0
sasS'2015-11-26'
p2107
(lp2108
(dp2109
g4
VMagic
p2110
sg6
VKnicks
p2111
sg8
F1.5
sg9
F196.0
sa(dp2112
g4
VHornets
p2113
sg6
VWizards
p2114
sg8
F3.5
sg9
F210.0
sa(dp2115
g4
VCeltics
p2116
sg6
V76ers
p2117
sg8
F12.0
sg9
F201.0
sa(dp2118
g4
VPistons
p2119
sg6
VHeat
p2120
sg8
F2.5
sg9
F188.0
sa(dp2121
g4
VRaptors
p2122
sg6
VCavaliers
p2123
sg8
F-3.5
sg9
F201.5
sa(dp2124
g4
VMilwaukee
p2125
sg6
Vsac
p2126
sg8
F5.0
sg9
F211.0
sa(dp2127
g4
VTimberwolves
p2128
sg6
VHawks
p2129
sg8
F-3.5
sg9
F205.5
sa(dp2130
g4
VRockets
p2131
sg6
VGrizzlies
p2132
sg8
F5.0
sg9
F199.5
sa(dp2133
g4
VThunder
p2134
sg6
VNets
p2135
sg8
F12.0
sg9
F210.0
sa(dp2136
g4
VSpurs
p2137
sg6
VMavericks
p2138
sg8
F10.0
sg9
F198.0
sa(dp2139
g4
VSuns
p2140
sg6
VPelicans
p2141
sg8
F3.5
sg9
F212.0
sa(dp2142
g4
VClippers
p2143
sg6
VJazz
p2144
sg8
F4.5
sg9
F196.5
sasS'2015-11-20'
p2145
(lp2146
(dp2147
g4
VHeat
p2148
sg6
Vsac
p2149
sg8
F10.0
sg9
F203.5
sa(dp2150
g4
VCavaliers
p2151
sg6
VMilwaukee
p2152
sg8
F10.5
sg9
F193.5
sa(dp2153
g4
VClippers
p2154
sg6
VWarriors
p2155
sg8
F-5.5
sg9
F213.5
sasS'2015-11-21'
p2156
(lp2157
(dp2158
g4
VHornets
p2159
sg6
V76ers
p2160
sg8
F11.0
sg9
F198.0
sa(dp2161
g4
VCeltics
p2162
sg6
VNets
p2163
sg8
F9.0
sg9
F203.5
sa(dp2164
g4
VPelicans
p2165
sg6
VSpurs
p2166
sg8
F-7.5
sg9
F201.0
sa(dp2167
g4
VTimberwolves
p2168
sg6
VPistons
p2169
sg8
F-2.5
sg9
F202.5
sa(dp2170
g4
VGrizzlies
p2171
sg6
VRockets
p2172
sg8
F2.5
sg9
F200.0
sa(dp2173
g4
VThunder
p2174
sg6
VKnicks
p2175
sg8
F6.5
sg9
F206.5
sa(dp2176
g4
VMavericks
p2177
sg6
VJazz
p2178
sg8
F1.5
sg9
F196.5
sa(dp2179
g4
VNuggets
p2180
sg6
VSuns
p2181
sg8
F-3.0
sg9
F206.5
sa(dp2182
g4
VTrail Blaze
p2183
sg6
VClippers
p2184
sg8
F-4.0
sg9
F210.0
sa(dp2185
g4
VLakers
p2186
sg6
VRaptors
p2187
sg8
F-7.0
sg9
F203.5
sa(dp2188
g4
VWarriors
p2189
sg6
VBulls
p2190
sg8
F9.0
sg9
F208.5
sasS'2015-11-22'
p2191
(lp2192
(dp2193
g4
VMagic
p2194
sg6
Vsac
p2195
sg8
F3.0
sg9
F210.0
sa(dp2196
g4
VPacers
p2197
sg6
VMilwaukee
p2198
sg8
F5.0
sg9
F193.0
sa(dp2199
g4
VPistons
p2200
sg6
VWizards
p2201
sg8
F-1.0
sg9
F206.5
sa(dp2202
g4
VCavaliers
p2203
sg6
VHawks
p2204
sg8
F5.5
sg9
F198.5
sa(dp2205
g4
VHeat
p2206
sg6
V76ers
p2207
sg8
F12.5
sg9
F194.0
sa(dp2208
g4
VRockets
p2209
sg6
VKnicks
p2210
sg8
F4.5
sg9
F202.0
sa(dp2211
g4
VSpurs
p2212
sg6
VGrizzlies
p2213
sg8
F8.0
sg9
F190.0
sasS'2015-11-23'
p2214
(lp2215
(dp2216
g4
VClippers
p2217
sg6
VRaptors
p2218
sg8
F6.5
sg9
F203.0
sa(dp2219
g4
VNets
p2220
sg6
VCeltics
p2221
sg8
F-5.5
sg9
F200.5
sa(dp2222
g4
VPelicans
p2223
sg6
VSuns
p2224
sg8
F1.5
sg9
F210.5
sa(dp2225
g4
VThunder
p2226
sg6
VMavericks
p2227
sg8
F3.5
sg9
F209.0
sa(dp2228
g4
VNuggets
p2229
sg6
VWarriors
p2230
sg8
F-12.5
sg9
F210.5
sa(dp2231
g4
VLakers
p2232
sg6
VTrail Blaze
p2233
sg8
F-2.5
sg9
F204.5
sasS'2015-10-30'
p2234
(lp2235
(dp2236
g4
VPacers
p2237
sg6
VGrizzlies
p2238
sg8
F-3.0
sg9
F191.0
sa(dp2239
g4
VKnicks
p2240
sg6
VHawks
p2241
sg8
F-4.5
sg9
F198.5
sa(dp2242
g4
VClippers
p2243
sg6
VMavericks
p2244
sg8
F12.0
sg9
F213.5
sasS'2015-10-31'
p2245
(lp2246
(dp2247
g4
VMagic
p2248
sg6
VThunder
p2249
sg8
F-7.5
sg9
F205.0
sa(dp2250
g4
V76ers
p2251
sg6
VJazz
p2252
sg8
F-7.5
sg9
F186.5
sa(dp2253
g4
VCavaliers
p2254
sg6
VHeat
p2255
sg8
F4.5
sg9
F200.5
sa(dp2256
g4
VCeltics
p2257
sg6
VRaptors
p2258
sg8
F2.0
sg9
F200.0
sa(dp2259
g4
VPistons
p2260
sg6
VBulls
p2261
sg8
F-2.5
sg9
F203.5
sa(dp2262
g4
VMilwaukee
p2263
sg6
VWizards
p2264
sg8
F-2.0
sg9
F199.5
sa(dp2265
g4
VHawks
p2266
sg6
VHornets
p2267
sg8
F4.0
sg9
F194.5
sa(dp2268
g4
VSpurs
p2269
sg6
VNets
p2270
sg8
F13.5
sg9
F202.0
sa(dp2271
g4
VNuggets
p2272
sg6
VTimberwolves
p2273
sg8
F3.5
sg9
F204.0
sa(dp2274
g4
VRockets
p2275
sg6
VWarriors
p2276
sg8
F-1.0
sg9
F216.5
sa(dp2277
g4
Vsac
p2278
sg6
VLakers
p2279
sg8
F7.0
sg9
F211.5
sa(dp2280
g4
VSuns
p2281
sg6
VTrail Blaze
p2282
sg8
F4.5
sg9
F204.5
sasS'2015-12-09'
p2283
(lp2284
(dp2285
g4
VPacers
p2286
sg6
VWarriors
p2287
sg8
F-6.5
sg9
F216.5
sa(dp2288
g4
VCavaliers
p2289
sg6
VTrail Blaze
p2290
sg8
F9.5
sg9
F200.5
sa(dp2291
g4
VNets
p2292
sg6
VRockets
p2293
sg8
F-5.5
sg9
F206.5
sa(dp2294
g4
VGrizzlies
p2295
sg6
VThunder
p2296
sg8
F-2.5
sg9
F201.5
sa(dp2297
g4
VNuggets
p2298
sg6
VMagic
p2299
sg8
F-4.5
sg9
F198.5
sa(dp2300
g4
Vsac
p2301
sg6
VJazz
p2302
sg8
F2.5
sg9
F206.5
sasS'2015-12-08'
p2303
(lp2304
(dp2305
g4
V76ers
p2306
sg6
VSpurs
p2307
sg8
F-10.5
sg9
F190.5
sa(dp2308
g4
VHornets
p2309
sg6
VPistons
p2310
sg8
F2.5
sg9
F198.5
sa(dp2311
g4
VHeat
p2312
sg6
VWizards
p2313
sg8
F7.5
sg9
F197.5
sa(dp2314
g4
VKnicks
p2315
sg6
VMavericks
p2316
sg8
F1.5
sg9
F197.5
sa(dp2317
g4
VRaptors
p2318
sg6
VLakers
p2319
sg8
F11.5
sg9
F199.5
sa(dp2320
g4
VPelicans
p2321
sg6
VCeltics
p2322
sg8
F-1.0
sg9
F210.5
sa(dp2323
g4
VMilwaukee
p2324
sg6
VTrail Blaze
p2325
sg8
F-1.5
sg9
F200.0
sa(dp2326
g4
VBulls
p2327
sg6
VSuns
p2328
sg8
F7.0
sg9
F203.0
sa(dp2329
g4
VTimberwolves
p2330
sg6
VClippers
p2331
sg8
F-4.0
sg9
F205.5
sasS'2015-12-03'
p2332
(lp2333
(dp2334
g4
VWizards
p2335
sg6
VLakers
p2336
sg8
F10.0
sg9
F203.0
sa(dp2337
g4
VHornets
p2338
sg6
VWarriors
p2339
sg8
F-9.0
sg9
F207.0
sa(dp2340
g4
VKnicks
p2341
sg6
V76ers
p2342
sg8
F8.5
sg9
F190.5
sa(dp2343
g4
VPistons
p2344
sg6
VSuns
p2345
sg8
F4.5
sg9
F204.5
sa(dp2346
g4
VHawks
p2347
sg6
VRaptors
p2348
sg8
F4.5
sg9
F196.5
sa(dp2349
g4
VBulls
p2350
sg6
VNuggets
p2351
sg8
F9.5
sg9
F197.5
sa(dp2352
g4
VRockets
p2353
sg6
VPelicans
p2354
sg8
F3.5
sg9
F216.5
sa(dp2355
g4
VSpurs
p2356
sg6
VMilwaukee
p2357
sg8
F12.0
sg9
F187.0
sa(dp2358
g4
VClippers
p2359
sg6
VPacers
p2360
sg8
F-2.5
sg9
F201.5
sasS'2015-12-02'
p2361
(lp2362
(dp2363
g4
V76ers
p2364
sg6
VLakers
p2365
sg8
F1.5
sg9
F196.5
sa(dp2366
g4
VCavaliers
p2367
sg6
VWizards
p2368
sg8
F8.5
sg9
F205.5
sa(dp2369
g4
VNets
p2370
sg6
VSuns
p2371
sg8
F-3.5
sg9
F207.5
sa(dp2372
g4
VPelicans
p2373
sg6
VGrizzlies
p2374
sg8
F1.0
sg9
F201.5
sa(dp2375
g4
VTimberwolves
p2376
sg6
VMagic
p2377
sg8
F2.0
sg9
F203.0
sa(dp2378
g4
VTrail Blaze
p2379
sg6
VMavericks
p2380
sg8
F1.5
sg9
F201.5
sasS'2015-12-01'
p2381
(lp2382
(dp2383
g4
VHeat
p2384
sg6
VCeltics
p2385
sg8
F4.5
sg9
F192.5
sa(dp2386
g4
VPistons
p2387
sg6
VRockets
p2388
sg8
F4.5
sg9
F197.5
sa(dp2389
g4
VMilwaukee
p2390
sg6
VNuggets
p2391
sg8
F4.5
sg9
F197.5
sa(dp2392
g4
VHawks
p2393
sg6
VThunder
p2394
sg8
F-2.5
sg9
F213.5
sa(dp2395
g4
VBulls
p2396
sg6
VSpurs
p2397
sg8
F-4.5
sg9
F189.5
sa(dp2398
g4
VJazz
p2399
sg6
VWarriors
p2400
sg8
F-7.5
sg9
F201.5
sa(dp2401
g4
Vsac
p2402
sg6
VMavericks
p2403
sg8
F2.5
sg9
F214.5
sa(dp2404
g4
VClippers
p2405
sg6
VTrail Blaze
p2406
sg8
F6.5
sg9
F205.5
sasS'2015-12-07'
p2407
(lp2408
(dp2409
g4
VGrizzlies
p2410
sg6
VSuns
p2411
sg8
F5.5
sg9
F202.5
sa(dp2412
g4
VNets
p2413
sg6
VWarriors
p2414
sg8
F-11.5
sg9
F209.5
sa(dp2415
g4
VWizards
p2416
sg6
VMavericks
p2417
sg8
F-2.5
sg9
F208.5
sa(dp2418
g4
VPistons
p2419
sg6
VLakers
p2420
sg8
F9.5
sg9
F200.5
sa(dp2421
g4
VThunder
p2422
sg6
Vsac
p2423
sg8
F11.5
sg9
F222.5
sasS'2015-12-06'
p2424
(lp2425
(dp2426
g4
V76ers
p2427
sg6
VNuggets
p2428
sg8
F-3.5
sg9
F193.5
sa(dp2429
g4
VRaptors
p2430
sg6
VWarriors
p2431
sg8
F-6.5
sg9
F209.5
sa(dp2432
g4
VHeat
p2433
sg6
VCavaliers
p2434
sg8
F5.5
sg9
F189.5
sa(dp2435
g4
VBulls
p2436
sg6
VHornets
p2437
sg8
F5.5
sg9
F195.5
sa(dp2438
g4
VTimberwolves
p2439
sg6
VTrail Blaze
p2440
sg8
F1.5
sg9
F204.5
sa(dp2441
g4
VRockets
p2442
sg6
Vsac
p2443
sg8
F3.5
sg9
F218.5
sa(dp2444
g4
VMilwaukee
p2445
sg6
VKnicks
p2446
sg8
F-2.5
sg9
F189.5
sa(dp2447
g4
VSpurs
p2448
sg6
VCeltics
p2449
sg8
F7.5
sg9
F193.5
sa(dp2450
g4
VJazz
p2451
sg6
VPacers
p2452
sg8
F-1.5
sg9
F196.5
sa(dp2453
g4
VClippers
p2454
sg6
VMagic
p2455
sg8
F1.5
sg9
F197.5
sasS'2015-12-05'
p2456
(lp2457
(dp2458
g4
VKnicks
p2459
sg6
VNets
p2460
sg8
F3.5
sg9
F193.5
sa(dp2461
g4
VWizards
p2462
sg6
VSuns
p2463
sg8
F-2.5
sg9
F214.5
sa(dp2464
g4
VPistons
p2465
sg6
VMilwaukee
p2466
sg8
F6.5
sg9
F191.5
sa(dp2467
g4
VHawks
p2468
sg6
VLakers
p2469
sg8
F10.5
sg9
F206.5
sa(dp2470
g4
VMavericks
p2471
sg6
VRockets
p2472
sg8
F4.5
sg9
F212.5
sa(dp2473
g4
VPelicans
p2474
sg6
VCavaliers
p2475
sg8
F-4.5
sg9
F208.5
sasS'2015-12-04'
p2476
(lp2477
(dp2478
g4
VHeat
p2479
sg6
VThunder
p2480
sg8
F-4.5
sg9
F203.5
sa(dp2481
g4
VRaptors
p2482
sg6
VNuggets
p2483
sg8
F9.5
sg9
F190.5
sa(dp2484
g4
VJazz
p2485
sg6
VMagic
p2486
sg8
F3.5
sg9
F192.5
sa(dp2487
g4
VGrizzlies
p2488
sg6
VSpurs
p2489
sg8
F-3.5
sg9
F183.5
sa(dp2490
g4
Vsac
p2491
sg6
VCeltics
p2492
sg8
F-1.5
sg9
F213.5
sa(dp2493
g4
VTrail Blaze
p2494
sg6
VPacers
p2495
sg8
F-2.5
sg9
F203.5
sasS'2016-03-20'
p2496
(lp2497
(dp2498
g4
VHornets
p2499
sg6
VNuggets
p2500
sg8
F9.0
sg9
F213.0
sa(dp2501
g4
VWizards
p2502
sg6
VKnicks
p2503
sg8
F8.0
sg9
F206.5
sa(dp2504
g4
VPistons
p2505
sg6
VNets
p2506
sg8
F8.5
sg9
F212.0
sa(dp2507
g4
VPacers
p2508
sg6
VThunder
p2509
sg8
F-3.0
sg9
F211.5
sa(dp2510
g4
VHeat
p2511
sg6
VCavaliers
p2512
sg8
F-4.0
sg9
F205.0
sa(dp2513
g4
VHawks
p2514
sg6
VRockets
p2515
sg8
F7.0
sg9
F214.0
sa(dp2516
g4
VBulls
p2517
sg6
VJazz
p2518
sg8
F1.0
sg9
F195.0
sa(dp2519
g4
VGrizzlies
p2520
sg6
VClippers
p2521
sg8
F-9.0
sg9
F198.5
sa(dp2522
g4
VSpurs
p2523
sg6
VWarriors
p2524
sg8
F5.0
sg9
F220.5
sasS'2016-03-21'
p2525
(lp2526
(dp2527
g4
VMavericks
p2528
sg6
VTrail Blaze
p2529
sg8
F-1.0
sg9
F214.0
sa(dp2530
g4
VRaptors
p2531
sg6
VMagic
p2532
sg8
F9.5
sg9
F210.5
sa(dp2533
g4
V76ers
p2534
sg6
VCeltics
p2535
sg8
F-11.5
sg9
F213.5
sa(dp2536
g4
VPelicans
p2537
sg6
VClippers
p2538
sg8
F-10.0
sg9
F208.5
sa(dp2539
g4
VMilwaukee
p2540
sg6
VJazz
p2541
sg8
F-1.5
sg9
F191.0
sa(dp2542
g4
VKnicks
p2543
sg6
Vsac
p2544
sg8
F-5.0
sg9
F212.5
sasS'2016-03-22'
p2545
(lp2546
(dp2547
g4
VPacers
p2548
sg6
V76ers
p2549
sg8
F15.5
sg9
F211.0
sa(dp2550
g4
VCavaliers
p2551
sg6
VNuggets
p2552
sg8
F11.5
sg9
F212.0
sa(dp2553
g4
VHornets
p2554
sg6
VSpurs
p2555
sg8
F-6.0
sg9
F195.5
sa(dp2556
g4
VCeltics
p2557
sg6
VMagic
p2558
sg8
F9.0
sg9
F217.5
sa(dp2559
g4
VPistons
p2560
sg6
VMilwaukee
p2561
sg8
F7.5
sg9
F207.0
sa(dp2562
g4
VHawks
p2563
sg6
VWizards
p2564
sg8
F7.5
sg9
F209.5
sa(dp2565
g4
VBulls
p2566
sg6
Vsac
p2567
sg8
F8.0
sg9
F220.0
sa(dp2568
g4
VTimberwolves
p2569
sg6
VWarriors
p2570
sg8
F-12.0
sg9
F232.0
sa(dp2571
g4
VSuns
p2572
sg6
VGrizzlies
p2573
sg8
F-3.0
sg9
F201.5
sasS'2016-03-23'
p2574
(lp2575
(dp2576
g4
VNets
p2577
sg6
VHornets
p2578
sg8
F-6.0
sg9
F207.5
sa(dp2579
g4
VPelicans
p2580
sg6
VHeat
p2581
sg8
F-10.0
sg9
F209.5
sa(dp2582
g4
VThunder
p2583
sg6
VRockets
p2584
sg8
F9.0
sg9
F226.0
sa(dp2585
g4
VLakers
p2586
sg6
VGrizzlies
p2587
sg8
F-3.0
sg9
F202.5
sasS'2016-03-24'
p2588
(lp2589
(dp2590
g4
VWizards
p2591
sg6
VHawks
p2592
sg8
F1.0
sg9
F207.5
sa(dp2593
g4
VCavaliers
p2594
sg6
VMilwaukee
p2595
sg8
F11.0
sg9
F207.0
sa(dp2596
g4
VCeltics
p2597
sg6
VRaptors
p2598
sg8
F4.0
sg9
F205.5
sa(dp2599
g4
VPistons
p2600
sg6
VMagic
p2601
sg8
F6.0
sg9
F204.5
sa(dp2602
g4
VBulls
p2603
sg6
VKnicks
p2604
sg8
F9.5
sg9
F201.5
sa(dp2605
g4
VTimberwolves
p2606
sg6
Vsac
p2607
sg8
F4.0
sg9
F221.0
sa(dp2608
g4
VRockets
p2609
sg6
VJazz
p2610
sg8
F2.0
sg9
F201.5
sa(dp2611
g4
VSpurs
p2612
sg6
VHeat
p2613
sg8
F10.5
sg9
F197.0
sa(dp2614
g4
VNuggets
p2615
sg6
V76ers
p2616
sg8
F8.0
sg9
F213.0
sa(dp2617
g4
VTrail Blaze
p2618
sg6
VMavericks
p2619
sg8
F7.0
sg9
F214.0
sa(dp2620
g4
VSuns
p2621
sg6
VLakers
p2622
sg8
F5.5
sg9
F214.0
sa(dp2623
g4
VWarriors
p2624
sg6
VClippers
p2625
sg8
F10.0
sg9
F222.0
sasS'2016-03-25'
p2626
(lp2627
(dp2628
g4
VPacers
p2629
sg6
VPelicans
p2630
sg8
F14.5
sg9
F202.0
sa(dp2631
g4
VNets
p2632
sg6
VCavaliers
p2633
sg8
F-9.5
sg9
F209.5
sa(dp2634
g4
VKnicks
p2635
sg6
VBulls
p2636
sg8
F-3.5
sg9
F205.0
sa(dp2637
g4
VThunder
p2638
sg6
VJazz
p2639
sg8
F9.5
sg9
F199.0
sa(dp2640
g4
VClippers
p2641
sg6
VTrail Blaze
p2642
sg8
F5.5
sg9
F216.0
sasS'2016-03-26'
p2643
(lp2644
(dp2645
g4
VWizards
p2646
sg6
VTimberwolves
p2647
sg8
F9.0
sg9
F218.0
sa(dp2648
g4
VPistons
p2649
sg6
VHornets
p2650
sg8
F1.5
sg9
F205.5
sa(dp2651
g4
VHeat
p2652
sg6
VMagic
p2653
sg8
F10.5
sg9
F210.0
sa(dp2654
g4
VHawks
p2655
sg6
VMilwaukee
p2656
sg8
F9.5
sg9
F201.0
sa(dp2657
g4
VRockets
p2658
sg6
VRaptors
p2659
sg8
F-1.5
sg9
F210.0
sa(dp2660
g4
VSpurs
p2661
sg6
VGrizzlies
p2662
sg8
F13.0
sg9
F190.0
sa(dp2663
g4
Vsac
p2664
sg6
VSuns
p2665
sg8
F7.5
sg9
F223.5
sa(dp2666
g4
VLakers
p2667
sg6
VNuggets
p2668
sg8
F-4.0
sg9
F213.5
sa(dp2669
g4
VWarriors
p2670
sg6
VMavericks
p2671
sg8
F16.5
sg9
F220.0
sasS'2016-03-27'
p2672
(lp2673
(dp2674
g4
VNets
p2675
sg6
VPacers
p2676
sg8
F-5.5
sg9
F206.0
sa(dp2677
g4
VMagic
p2678
sg6
VBulls
p2679
sg8
F-7.0
sg9
F208.5
sa(dp2680
g4
VPelicans
p2681
sg6
VRaptors
p2682
sg8
F-11.5
sg9
F201.0
sa(dp2683
g4
VKnicks
p2684
sg6
VCavaliers
p2685
sg8
F-8.5
sg9
F202.0
sa(dp2686
g4
VPistons
p2687
sg6
VHawks
p2688
sg8
F1.5
sg9
F207.0
sa(dp2689
g4
VTimberwolves
p2690
sg6
VJazz
p2691
sg8
F-8.5
sg9
F196.0
sa(dp2692
g4
VThunder
p2693
sg6
VSpurs
p2694
sg8
F13.5
sg9
F207.5
sa(dp2695
g4
VMilwaukee
p2696
sg6
VHornets
p2697
sg8
F-3.5
sg9
F201.0
sa(dp2698
g4
VTrail Blaze
p2699
sg6
V76ers
p2700
sg8
F15.0
sg9
F219.5
sa(dp2701
g4
VSuns
p2702
sg6
VCeltics
p2703
sg8
F-9.0
sg9
F216.5
sasS'2016-03-28'
p2704
(lp2705
(dp2706
g4
VClippers
p2707
sg6
VNuggets
p2708
sg8
F8.5
sg9
F208.5
sa(dp2709
g4
VPacers
p2710
sg6
VRockets
p2711
sg8
F1.5
sg9
F210.5
sa(dp2712
g4
Vsac
p2713
sg6
VMavericks
p2714
sg8
F2.5
sg9
F216.5
sa(dp2715
g4
VWarriors
p2716
sg6
V76ers
p2717
sg8
F22.0
sg9
F225.5
sa(dp2718
g4
VLakers
p2719
sg6
VWizards
p2720
sg8
F-9.0
sg9
F212.5
sasS'2016-03-29'
p2721
(lp2722
(dp2723
g4
VHeat
p2724
sg6
VNets
p2725
sg8
F8.5
sg9
F213.0
sa(dp2726
g4
VRaptors
p2727
sg6
VThunder
p2728
sg8
F-3.0
sg9
F211.5
sa(dp2729
g4
VPelicans
p2730
sg6
VKnicks
p2731
sg8
F-5.5
sg9
F203.0
sa(dp2732
g4
VBulls
p2733
sg6
VHawks
p2734
sg8
F-3.5
sg9
F207.5
sa(dp2735
g4
VTimberwolves
p2736
sg6
VSuns
p2737
sg8
F6.0
sg9
F219.0
sa(dp2738
g4
VGrizzlies
p2739
sg6
VSpurs
p2740
sg8
F-5.5
sg9
F193.0
sa(dp2741
g4
VJazz
p2742
sg6
VLakers
p2743
sg8
F13.5
sg9
F189.0
sa(dp2744
g4
VNuggets
p2745
sg6
VMavericks
p2746
sg8
F2.0
sg9
F211.5
sa(dp2747
g4
VTrail Blaze
p2748
sg6
Vsac
p2749
sg8
F13.0
sg9
F220.5
sa(dp2750
g4
VClippers
p2751
sg6
VCeltics
p2752
sg8
F4.0
sg9
F207.5
sasS'2015-12-11'
p2753
(lp2754
(dp2755
g4
VNets
p2756
sg6
V76ers
p2757
sg8
F6.5
sg9
F198.5
sa(dp2758
g4
VBulls
p2759
sg6
VClippers
p2760
sg8
F-1.5
sg9
F203.5
sa(dp2761
g4
VThunder
p2762
sg6
VHawks
p2763
sg8
F7.5
sg9
F210.5
sa(dp2764
g4
Vsac
p2765
sg6
VKnicks
p2766
sg8
F5.5
sg9
F209.5
sasS'2015-12-18'
p2767
(lp2768
(dp2769
g4
VHornets
p2770
sg6
VRaptors
p2771
sg8
F-2.5
sg9
F194.5
sa(dp2772
g4
VCavaliers
p2773
sg6
VThunder
p2774
sg8
F2.5
sg9
F203.5
sa(dp2775
g4
VLakers
p2776
sg6
VRockets
p2777
sg8
F-6.5
sg9
F216.5
sasS'2016-03-10'
p2778
(lp2779
(dp2780
g4
VCeltics
p2781
sg6
VGrizzlies
p2782
sg8
F11.0
sg9
F210.0
sa(dp2783
g4
V76ers
p2784
sg6
VRockets
p2785
sg8
F-9.5
sg9
F220.0
sa(dp2786
g4
VHornets
p2787
sg6
VPelicans
p2788
sg8
F8.5
sg9
F209.0
sa(dp2789
g4
VMilwaukee
p2790
sg6
VHeat
p2791
sg8
F-3.5
sg9
F199.0
sa(dp2792
g4
VMavericks
p2793
sg6
VPistons
p2794
sg8
F2.0
sg9
F207.0
sa(dp2795
g4
VSuns
p2796
sg6
VKnicks
p2797
sg8
F2.0
sg9
F208.0
sa(dp2798
g4
VThunder
p2799
sg6
VClippers
p2800
sg8
F6.5
sg9
F215.0
sa(dp2801
g4
Vsac
p2802
sg6
VCavaliers
p2803
sg8
F-7.0
sg9
F219.5
sa(dp2804
g4
VWarriors
p2805
sg6
VJazz
p2806
sg8
F14.0
sg9
F209.5
sasS'2015-11-09'
p2807
(lp2808
(dp2809
g4
VKnicks
p2810
sg6
VLakers
p2811
sg8
F5.5
sg9
F210.5
sa(dp2812
g4
VCavaliers
p2813
sg6
VPacers
p2814
sg8
F8.0
sg9
F197.0
sa(dp2815
g4
VHeat
p2816
sg6
VRaptors
p2817
sg8
F2.5
sg9
F191.0
sa(dp2818
g4
VThunder
p2819
sg6
VSuns
p2820
sg8
F8.5
sg9
F212.0
sa(dp2821
g4
VTrail Blaze
p2822
sg6
VPistons
p2823
sg8
F2.0
sg9
F199.5
sasS'2015-02-20'
p2824
(lp2825
(dp2826
g4
VThunder
p2827
sg6
VMavericks
p2828
sg8
F5.0
sg9
F214.0
sa(dp2829
g4
VClippers
p2830
sg6
VSpurs
p2831
sg8
F-2.5
sg9
F202.5
sasS'2015-02-21'
p2832
(lp2833
(dp2834
g4
VMagic
p2835
sg6
VPelicans
p2836
sg8
F-5.5
sg9
F192.5
sa(dp2837
g4
V76ers
p2838
sg6
VPacers
p2839
sg8
F-8.5
sg9
F183.5
sa(dp2840
g4
VKnicks
p2841
sg6
VHeat
p2842
sg8
F-7.0
sg9
F181.5
sa(dp2843
g4
VPistons
p2844
sg6
VBulls
p2845
sg8
F-6.0
sg9
F193.5
sa(dp2846
g4
VHawks
p2847
sg6
VRaptors
p2848
sg8
F5.5
sg9
F207.5
sa(dp2849
g4
VWizards
p2850
sg6
VCavaliers
p2851
sg8
F-3.0
sg9
F198.5
sa(dp2852
g4
VTimberwolves
p2853
sg6
VSuns
p2854
sg8
F1.5
sg9
F207.0
sa(dp2855
g4
VMilwaukee
p2856
sg6
VNuggets
p2857
sg8
F8.5
sg9
F197.0
sa(dp2858
g4
VMavericks
p2859
sg6
VRockets
p2860
sg8
F2.5
sg9
F212.0
sa(dp2861
g4
VJazz
p2862
sg6
VTrail Blaze
p2863
sg8
F-4.5
sg9
F191.5
sa(dp2864
g4
Vsac
p2865
sg6
VCeltics
p2866
sg8
F4.0
sg9
F202.5
sa(dp2867
g4
VLakers
p2868
sg6
VNets
p2869
sg8
F-3.0
sg9
F195.0
sa(dp2870
g4
VWarriors
p2871
sg6
VSpurs
p2872
sg8
F8.0
sg9
F212.5
sasS'2015-02-22'
p2873
(lp2874
(dp2875
g4
VHornets
p2876
sg6
VThunder
p2877
sg8
F-4.0
sg9
F197.0
sa(dp2878
g4
VHeat
p2879
sg6
VPelicans
p2880
sg8
F2.5
sg9
F194.5
sa(dp2881
g4
VBulls
p2882
sg6
VSuns
p2883
sg8
F8.0
sg9
F204.5
sa(dp2884
g4
VRockets
p2885
sg6
VRaptors
p2886
sg8
F2.0
sg9
F211.0
sa(dp2887
g4
VClippers
p2888
sg6
Vsac
p2889
sg8
F10.0
sg9
F215.0
sasS'2015-02-23'
p2890
(lp2891
(dp2892
g4
VKnicks
p2893
sg6
VCavaliers
p2894
sg8
F-17.0
sg9
F196.5
sa(dp2895
g4
VPistons
p2896
sg6
VWizards
p2897
sg8
F-2.0
sg9
F195.0
sa(dp2898
g4
VMilwaukee
p2899
sg6
VHawks
p2900
sg8
F-5.0
sg9
F194.0
sa(dp2901
g4
VMagic
p2902
sg6
V76ers
p2903
sg8
F9.0
sg9
F189.0
sa(dp2904
g4
VPacers
p2905
sg6
VWarriors
p2906
sg8
F-3.5
sg9
F204.0
sa(dp2907
g4
VThunder
p2908
sg6
VNuggets
p2909
sg8
F8.5
sg9
F210.0
sa(dp2910
g4
VMavericks
p2911
sg6
VHornets
p2912
sg8
F9.5
sg9
F197.0
sa(dp2913
g4
VTrail Blaze
p2914
sg6
VGrizzlies
p2915
sg8
F1.5
sg9
F191.5
sa(dp2916
g4
VLakers
p2917
sg6
VCeltics
p2918
sg8
F-3.0
sg9
F202.5
sasS'2015-02-24'
p2919
(lp2920
(dp2921
g4
VHeat
p2922
sg6
V76ers
p2923
sg8
F11.5
sg9
F193.5
sa(dp2924
g4
VPelicans
p2925
sg6
VRaptors
p2926
sg8
F-7.5
sg9
F195.0
sa(dp2927
g4
VBulls
p2928
sg6
VMilwaukee
p2929
sg8
F7.0
sg9
F193.0
sa(dp2930
g4
VRockets
p2931
sg6
VTimberwolves
p2932
sg8
F8.0
sg9
F214.0
sa(dp2933
g4
VJazz
p2934
sg6
VSpurs
p2935
sg8
F-5.5
sg9
F185.5
sa(dp2936
g4
VNuggets
p2937
sg6
VNets
p2938
sg8
F-2.0
sg9
F205.5
sa(dp2939
g4
VSuns
p2940
sg6
VCeltics
p2941
sg8
F8.0
sg9
F211.5
sa(dp2942
g4
VClippers
p2943
sg6
VGrizzlies
p2944
sg8
F3.5
sg9
F203.0
sasS'2015-02-25'
p2945
(lp2946
(dp2947
g4
VWizards
p2948
sg6
VWarriors
p2949
sg8
F-7.0
sg9
F203.5
sa(dp2950
g4
VPistons
p2951
sg6
VCavaliers
p2952
sg8
F-6.5
sg9
F206.0
sa(dp2953
g4
VThunder
p2954
sg6
VPacers
p2955
sg8
F7.5
sg9
F205.5
sa(dp2956
g4
VMavericks
p2957
sg6
VRaptors
p2958
sg8
F4.5
sg9
F204.0
sasS'2015-02-26'
p2959
(lp2960
(dp2961
g4
VMagic
p2962
sg6
VHeat
p2963
sg8
F-3.5
sg9
F200.0
sa(dp2964
g4
VCeltics
p2965
sg6
VKnicks
p2966
sg8
F10.5
sg9
F198.0
sa(dp2967
g4
VHawks
p2968
sg6
VMavericks
p2969
sg8
F9.0
sg9
F204.5
sa(dp2970
g4
VPelicans
p2971
sg6
VNets
p2972
sg8
F-2.5
sg9
F193.5
sa(dp2973
g4
VMilwaukee
p2974
sg6
V76ers
p2975
sg8
F10.5
sg9
F187.0
sa(dp2976
g4
VBulls
p2977
sg6
VHornets
p2978
sg8
F6.5
sg9
F187.0
sa(dp2979
g4
VTimberwolves
p2980
sg6
VWizards
p2981
sg8
F2.5
sg9
F200.5
sa(dp2982
g4
VRockets
p2983
sg6
VClippers
p2984
sg8
F3.5
sg9
F218.5
sa(dp2985
g4
VJazz
p2986
sg6
VLakers
p2987
sg8
F10.0
sg9
F192.0
sa(dp2988
g4
VNuggets
p2989
sg6
VSuns
p2990
sg8
F-6.0
sg9
F214.0
sa(dp2991
g4
Vsac
p2992
sg6
VGrizzlies
p2993
sg8
F-7.0
sg9
F199.5
sa(dp2994
g4
VTrail Blaze
p2995
sg6
VSpurs
p2996
sg8
F2.5
sg9
F195.5
sasS'2015-02-27'
p2997
(lp2998
(dp2999
g4
VCavaliers
p3000
sg6
VWarriors
p3001
sg8
F3.0
sg9
F217.0
sa(dp3002
g4
VSuns
p3003
sg6
VThunder
p3004
sg8
F-5.0
sg9
F217.0
sasS'2015-02-28'
p3005
(lp3006
(dp3007
g4
V76ers
p3008
sg6
VWizards
p3009
sg8
F-7.5
sg9
F193.5
sa(dp3010
g4
VPacers
p3011
sg6
VCavaliers
p3012
sg8
F2.5
sg9
F194.0
sa(dp3013
g4
VCeltics
p3014
sg6
VHornets
p3015
sg8
F1.5
sg9
F196.0
sa(dp3016
g4
VPistons
p3017
sg6
VKnicks
p3018
sg8
F13.0
sg9
F192.5
sa(dp3019
g4
VHawks
p3020
sg6
VMagic
p3021
sg8
F11.0
sg9
F195.5
sa(dp3022
g4
VRaptors
p3023
sg6
VWarriors
p3024
sg8
F-2.0
sg9
F212.5
sa(dp3025
g4
VPelicans
p3026
sg6
VHeat
p3027
sg8
F-2.0
sg9
F196.5
sa(dp3028
g4
VBulls
p3029
sg6
VTimberwolves
p3030
sg8
F5.5
sg9
F193.5
sa(dp3031
g4
VRockets
p3032
sg6
VNets
p3033
sg8
F8.0
sg9
F208.5
sa(dp3034
g4
VGrizzlies
p3035
sg6
VClippers
p3036
sg8
F4.5
sg9
F198.5
sa(dp3037
g4
VNuggets
p3038
sg6
VJazz
p3039
sg8
F-4.5
sg9
F193.5
sa(dp3040
g4
Vsac
p3041
sg6
VSpurs
p3042
sg8
F-9.5
sg9
F202.0
sa(dp3043
g4
VLakers
p3044
sg6
VMilwaukee
p3045
sg8
F-6.5
sg9
F192.5
sa(dp3046
g4
VTrail Blaze
p3047
sg6
VThunder
p3048
sg8
F6.0
sg9
F206.0
sasS'2015-03-09'
p3049
(lp3050
(dp3051
g4
VSpurs
p3052
sg6
VBulls
p3053
sg8
F9.5
sg9
F190.5
sa(dp3054
g4
VWarriors
p3055
sg6
VClippers
p3056
sg8
F8.0
sg9
F212.0
sa(dp3057
g4
VNets
p3058
sg6
VJazz
p3059
sg8
F1.5
sg9
F186.0
sa(dp3060
g4
VMagic
p3061
sg6
VCeltics
p3062
sg8
F-2.5
sg9
F198.0
sa(dp3063
g4
VPistons
p3064
sg6
VHornets
p3065
sg8
F-1.0
sg9
F192.0
sa(dp3066
g4
VThunder
p3067
sg6
VRaptors
p3068
sg8
F6.5
sg9
F213.5
sa(dp3069
g4
VLakers
p3070
sg6
VMavericks
p3071
sg8
F-7.5
sg9
F202.5
sasS'2016-01-30'
p3072
(lp3073
(dp3074
g4
VCeltics
p3075
sg6
VMagic
p3076
sg8
F8.5
sg9
F205.5
sa(dp3077
g4
VKnicks
p3078
sg6
VSuns
p3079
sg8
F7.0
sg9
F202.5
sa(dp3080
g4
VPistons
p3081
sg6
VCavaliers
p3082
sg8
F-3.5
sg9
F208.0
sa(dp3083
g4
VMilwaukee
p3084
sg6
VHeat
p3085
sg8
F-1.0
sg9
F194.5
sa(dp3086
g4
VThunder
p3087
sg6
VRockets
p3088
sg8
F8.0
sg9
F223.0
sa(dp3089
g4
VMavericks
p3090
sg6
VNets
p3091
sg8
F7.5
sg9
F200.0
sa(dp3092
g4
VJazz
p3093
sg6
VTimberwolves
p3094
sg8
F8.0
sg9
F192.0
sa(dp3095
g4
VTrail Blaze
p3096
sg6
VHornets
p3097
sg8
F6.0
sg9
F206.5
sa(dp3098
g4
VClippers
p3099
sg6
VLakers
p3100
sg8
F13.5
sg9
F204.0
sasS'2014-10-31'
p3101
(lp3102
(dp3103
g4
VMagic
p3104
sg6
VWizards
p3105
sg8
F-4.5
sg9
F188.0
sa(dp3106
g4
VCavaliers
p3107
sg6
VKnicks
p3108
sg8
F13.0
sg9
F204.0
sa(dp3109
g4
VTimberwolves
p3110
sg6
VPistons
p3111
sg8
F5.0
sg9
F204.5
sa(dp3112
g4
VMavericks
p3113
sg6
VJazz
p3114
sg8
F10.5
sg9
F203.0
sa(dp3115
g4
VClippers
p3116
sg6
VThunder
p3117
sg8
F13.0
sg9
F205.0
sasS'2014-10-30'
p3118
(lp3119
(dp3120
g4
VPacers
p3121
sg6
V76ers
p3122
sg8
F7.5
sg9
F189.5
sa(dp3123
g4
VHornets
p3124
sg6
VMilwaukee
p3125
sg8
F8.0
sg9
F193.5
sa(dp3126
g4
VCeltics
p3127
sg6
VNets
p3128
sg8
F1.0
sg9
F194.0
sa(dp3129
g4
VHeat
p3130
sg6
VWizards
p3131
sg8
F5.0
sg9
F188.0
sa(dp3132
g4
VRaptors
p3133
sg6
VHawks
p3134
sg8
F4.5
sg9
F199.0
sa(dp3135
g4
VKnicks
p3136
sg6
VBulls
p3137
sg8
F-4.5
sg9
F184.0
sa(dp3138
g4
VGrizzlies
p3139
sg6
VTimberwolves
p3140
sg8
F7.5
sg9
F197.5
sa(dp3141
g4
VJazz
p3142
sg6
VRockets
p3143
sg8
F-3.0
sg9
F201.5
sa(dp3144
g4
VNuggets
p3145
sg6
VPistons
p3146
sg8
F6.5
sg9
F205.5
sa(dp3147
g4
Vsac
p3148
sg6
VWarriors
p3149
sg8
F-4.5
sg9
F206.0
sa(dp3150
g4
VSuns
p3151
sg6
VLakers
p3152
sg8
F12.0
sg9
F208.5
sa(dp3153
g4
VTrail Blaze
p3154
sg6
VThunder
p3155
sg8
F9.0
sg9
F198.0
sasS'2014-12-28'
p3156
(lp3157
(dp3158
g4
VClippers
p3159
sg6
VRaptors
p3160
sg8
F4.5
sg9
F214.0
sa(dp3161
g4
VWizards
p3162
sg6
VCeltics
p3163
sg8
F9.5
sg9
F205.0
sa(dp3164
g4
VHornets
p3165
sg6
VMagic
p3166
sg8
F6.0
sg9
F188.5
sa(dp3167
g4
VHeat
p3168
sg6
VGrizzlies
p3169
sg8
F-3.5
sg9
F188.5
sa(dp3170
g4
VNets
p3171
sg6
VPacers
p3172
sg8
F3.0
sg9
F191.0
sa(dp3173
g4
VBulls
p3174
sg6
VPelicans
p3175
sg8
F10.0
sg9
F201.5
sa(dp3176
g4
VMilwaukee
p3177
sg6
VHawks
p3178
sg8
F-4.5
sg9
F204.5
sa(dp3179
g4
VJazz
p3180
sg6
V76ers
p3181
sg8
F10.0
sg9
F197.0
sa(dp3182
g4
Vsac
p3183
sg6
VKnicks
p3184
sg8
F6.0
sg9
F202.5
sa(dp3185
g4
VWarriors
p3186
sg6
VTimberwolves
p3187
sg8
F18.5
sg9
F216.5
sasS'2014-12-29'
p3188
(lp3189
(dp3190
g4
VCavaliers
p3191
sg6
VPistons
p3192
sg8
F7.5
sg9
F205.0
sa(dp3193
g4
VSpurs
p3194
sg6
VRockets
p3195
sg8
F1.0
sg9
F199.5
sa(dp3196
g4
VMavericks
p3197
sg6
VThunder
p3198
sg8
F2.5
sg9
F211.0
sa(dp3199
g4
VNuggets
p3200
sg6
VRaptors
p3201
sg8
F-2.5
sg9
F213.5
sa(dp3202
g4
VTrail Blaze
p3203
sg6
VKnicks
p3204
sg8
F11.5
sg9
F203.0
sa(dp3205
g4
VLakers
p3206
sg6
VSuns
p3207
sg8
F-5.0
sg9
F216.5
sasS'2014-12-24'
p3208
(lp3209
(dp3210
g4
VMagic
p3211
sg6
VCeltics
p3212
sg8
F2.0
sg9
F198.5
sa(dp3213
g4
VWizards
p3214
sg6
VBulls
p3215
sg8
F2.5
sg9
F197.5
sa(dp3216
g4
VPacers
p3217
sg6
VPelicans
p3218
sg8
F-1.5
sg9
F194.0
sa(dp3219
g4
VCavaliers
p3220
sg6
VTimberwolves
p3221
sg8
F14.0
sg9
F210.0
sa(dp3222
g4
VHeat
p3223
sg6
V76ers
p3224
sg8
F7.5
sg9
F192.0
sa(dp3225
g4
VNets
p3226
sg6
VNuggets
p3227
sg8
F4.0
sg9
F199.5
sa(dp3228
g4
VHawks
p3229
sg6
VClippers
p3230
sg8
F1.5
sg9
F209.0
sa(dp3231
g4
VMilwaukee
p3232
sg6
VHornets
p3233
sg8
F6.0
sg9
F197.0
sa(dp3234
g4
VThunder
p3235
sg6
VTrail Blaze
p3236
sg8
F4.5
sg9
F201.0
sa(dp3237
g4
VSuns
p3238
sg6
VMavericks
p3239
sg8
F1.0
sg9
F216.5
sa(dp3240
g4
VLakers
p3241
sg6
VWarriors
p3242
sg8
F-10.0
sg9
F215.5
sasS'2014-12-26'
p3243
(lp3244
(dp3245
g4
VKnicks
p3246
sg6
VWizards
p3247
sg8
F-5.0
sg9
F193.0
sa(dp3248
g4
VSpurs
p3249
sg6
VThunder
p3250
sg8
F6.0
sg9
F196.5
sa(dp3251
g4
VHeat
p3252
sg6
VCavaliers
p3253
sg8
F-6.0
sg9
F196.0
sa(dp3254
g4
VBulls
p3255
sg6
VLakers
p3256
sg8
F12.0
sg9
F206.5
sa(dp3257
g4
VClippers
p3258
sg6
VWarriors
p3259
sg8
F2.5
sg9
F219.5
sasS'2014-12-27'
p3260
(lp3261
(dp3262
g4
VCeltics
p3263
sg6
VNets
p3264
sg8
F2.0
sg9
F201.0
sa(dp3265
g4
VMagic
p3266
sg6
VCavaliers
p3267
sg8
F-3.5
sg9
F195.5
sa(dp3268
g4
VPistons
p3269
sg6
VPacers
p3270
sg8
F-3.0
sg9
F194.0
sa(dp3271
g4
VHawks
p3272
sg6
VMilwaukee
p3273
sg8
F9.0
sg9
F205.0
sa(dp3274
g4
VPelicans
p3275
sg6
VSpurs
p3276
sg8
F3.0
sg9
F202.5
sa(dp3277
g4
VGrizzlies
p3278
sg6
VRockets
p3279
sg8
F2.0
sg9
F193.0
sa(dp3280
g4
VThunder
p3281
sg6
VHornets
p3282
sg8
F6.5
sg9
F197.5
sa(dp3283
g4
VMavericks
p3284
sg6
VLakers
p3285
sg8
F13.0
sg9
F215.0
sa(dp3286
g4
VNuggets
p3287
sg6
VTimberwolves
p3288
sg8
F10.0
sg9
F212.5
sa(dp3289
g4
Vsac
p3290
sg6
VSuns
p3291
sg8
F-5.0
sg9
F212.0
sa(dp3292
g4
VTrail Blaze
p3293
sg6
V76ers
p3294
sg8
F12.5
sg9
F198.0
sasS'2014-12-20'
p3295
(lp3296
(dp3297
g4
VMagic
p3298
sg6
VJazz
p3299
sg8
F4.0
sg9
F193.0
sa(dp3300
g4
V76ers
p3301
sg6
VHornets
p3302
sg8
F-4.5
sg9
F192.0
sa(dp3303
g4
VCeltics
p3304
sg6
VTimberwolves
p3305
sg8
F6.0
sg9
F212.0
sa(dp3306
g4
VHeat
p3307
sg6
VWizards
p3308
sg8
F-6.0
sg9
F188.5
sa(dp3309
g4
VPistons
p3310
sg6
VRaptors
p3311
sg8
F-7.5
sg9
F198.5
sa(dp3312
g4
VCavaliers
p3313
sg6
VNets
p3314
sg8
F10.5
sg9
F197.5
sa(dp3315
g4
VSpurs
p3316
sg6
VTrail Blaze
p3317
sg8
F4.5
sg9
F197.0
sa(dp3318
g4
VGrizzlies
p3319
sg6
VBulls
p3320
sg8
F6.5
sg9
F191.5
sa(dp3321
g4
VNuggets
p3322
sg6
VClippers
p3323
sg8
F-3.0
sg9
F215.5
sa(dp3324
g4
VLakers
p3325
sg6
VThunder
p3326
sg8
F-5.5
sg9
F205.0
sasS'2014-12-21'
p3327
(lp3328
(dp3329
g4
VKnicks
p3330
sg6
VSuns
p3331
sg8
F-6.0
sg9
F198.0
sa(dp3332
g4
VPelicans
p3333
sg6
VTrail Blaze
p3334
sg8
F5.5
sg9
F205.5
sa(dp3335
g4
VHornets
p3336
sg6
VJazz
p3337
sg8
F3.5
sg9
F194.5
sa(dp3338
g4
VRockets
p3339
sg6
VHawks
p3340
sg8
F5.0
sg9
F197.5
sa(dp3341
g4
VMavericks
p3342
sg6
VSpurs
p3343
sg8
F11.0
sg9
F206.5
sa(dp3344
g4
VNuggets
p3345
sg6
VPacers
p3346
sg8
F3.0
sg9
F200.0
sa(dp3347
g4
VClippers
p3348
sg6
VMilwaukee
p3349
sg8
F10.0
sg9
F210.0
sasS'2014-12-22'
p3350
(lp3351
(dp3352
g4
VRaptors
p3353
sg6
VKnicks
p3354
sg8
F12.5
sg9
F197.0
sa(dp3355
g4
VCavaliers
p3356
sg6
VGrizzlies
p3357
sg8
F4.5
sg9
F197.0
sa(dp3358
g4
VHeat
p3359
sg6
VCeltics
p3360
sg8
F-3.0
sg9
F197.5
sa(dp3361
g4
VNets
p3362
sg6
VPistons
p3363
sg8
F2.0
sg9
F189.5
sa(dp3364
g4
VMagic
p3365
sg6
V76ers
p3366
sg8
F9.0
sg9
F193.5
sa(dp3367
g4
VWizards
p3368
sg6
VSuns
p3369
sg8
F5.5
sg9
F205.5
sa(dp3370
g4
Vsac
p3371
sg6
VLakers
p3372
sg8
F7.5
sg9
F207.0
sa(dp3373
g4
VTimberwolves
p3374
sg6
VPacers
p3375
sg8
F-3.5
sg9
F195.5
sa(dp3376
g4
VThunder
p3377
sg6
VPelicans
p3378
sg8
F7.0
sg9
F200.0
sasS'2014-12-23'
p3379
(lp3380
(dp3381
g4
VHornets
p3382
sg6
VNuggets
p3383
sg8
F2.5
sg9
F200.5
sa(dp3384
g4
VBulls
p3385
sg6
VRaptors
p3386
sg8
F4.0
sg9
F200.5
sa(dp3387
g4
VRockets
p3388
sg6
VTrail Blaze
p3389
sg8
F5.0
sg9
F198.0
sa(dp3390
g4
VGrizzlies
p3391
sg6
VJazz
p3392
sg8
F8.0
sg9
F193.5
sa(dp3393
g4
VMavericks
p3394
sg6
VHawks
p3395
sg8
F4.5
sg9
F207.5
sa(dp3396
g4
VSpurs
p3397
sg6
VClippers
p3398
sg8
F1.0
sg9
F203.5
sa(dp3399
g4
VWarriors
p3400
sg6
Vsac
p3401
sg8
F11.0
sg9
F212.0
sasS'2014-11-09'
p3402
(lp3403
(dp3404
g4
VClippers
p3405
sg6
VTrail Blaze
p3406
sg8
F4.5
sg9
F204.5
sa(dp3407
g4
VPacers
p3408
sg6
VWizards
p3409
sg8
F-3.0
sg9
F183.5
sa(dp3410
g4
VHeat
p3411
sg6
VTimberwolves
p3412
sg8
F7.5
sg9
F205.0
sa(dp3413
g4
VHawks
p3414
sg6
VKnicks
p3415
sg8
F6.5
sg9
F195.0
sa(dp3416
g4
VBulls
p3417
sg6
VCeltics
p3418
sg8
F9.5
sg9
F194.0
sa(dp3419
g4
VRockets
p3420
sg6
VWarriors
p3421
sg8
F-3.5
sg9
F209.0
sa(dp3422
g4
VMilwaukee
p3423
sg6
VGrizzlies
p3424
sg8
F-4.5
sg9
F187.0
sa(dp3425
g4
VSpurs
p3426
sg6
VPelicans
p3427
sg8
F7.5
sg9
F195.5
sasS'2014-11-08'
p3428
(lp3429
(dp3430
g4
V76ers
p3431
sg6
VBulls
p3432
sg8
F-10.0
sg9
F188.5
sa(dp3433
g4
VCeltics
p3434
sg6
VPacers
p3435
sg8
F5.5
sg9
F190.0
sa(dp3436
g4
VNets
p3437
sg6
VKnicks
p3438
sg8
F6.0
sg9
F193.0
sa(dp3439
g4
VPistons
p3440
sg6
VMilwaukee
p3441
sg8
F5.0
sg9
F193.5
sa(dp3442
g4
VRaptors
p3443
sg6
VWizards
p3444
sg8
F4.0
sg9
F195.0
sa(dp3445
g4
VThunder
p3446
sg6
VGrizzlies
p3447
sg8
F-7.0
sg9
F182.0
sa(dp3448
g4
VMagic
p3449
sg6
VTimberwolves
p3450
sg8
F-4.0
sg9
F203.0
sa(dp3451
g4
VJazz
p3452
sg6
VMavericks
p3453
sg8
F-2.5
sg9
F205.0
sa(dp3454
g4
VSuns
p3455
sg6
Vsac
p3456
sg8
F5.0
sg9
F208.5
sa(dp3457
g4
VNuggets
p3458
sg6
VCavaliers
p3459
sg8
F-6.5
sg9
F211.0
sa(dp3460
g4
VHornets
p3461
sg6
VHawks
p3462
sg8
F1.5
sg9
F194.0
sasS'2014-11-03'
p3463
(lp3464
(dp3465
g4
VClippers
p3466
sg6
Vsac
p3467
sg8
F9.0
sg9
F205.0
sa(dp3468
g4
VHeat
p3469
sg6
VRaptors
p3470
sg8
F2.0
sg9
F196.5
sa(dp3471
g4
VKnicks
p3472
sg6
VHornets
p3473
sg8
F3.5
sg9
F185.5
sa(dp3474
g4
VTrail Blaze
p3475
sg6
VWarriors
p3476
sg8
F3.5
sg9
F208.5
sasS'2014-11-02'
p3477
(lp3478
(dp3479
g4
VMagic
p3480
sg6
VRaptors
p3481
sg8
F-6.0
sg9
F195.5
sa(dp3482
g4
V76ers
p3483
sg6
VHeat
p3484
sg8
F-9.0
sg9
F196.0
sa(dp3485
g4
VWizards
p3486
sg6
VMilwaukee
p3487
sg8
F9.0
sg9
F197.0
sa(dp3488
g4
VPelicans
p3489
sg6
VMavericks
p3490
sg8
F1.0
sg9
F203.5
sa(dp3491
g4
VHornets
p3492
sg6
VGrizzlies
p3493
sg8
F3.0
sg9
F186.0
sa(dp3494
g4
VPistons
p3495
sg6
VNets
p3496
sg8
F3.0
sg9
F195.5
sa(dp3497
g4
VHawks
p3498
sg6
VPacers
p3499
sg8
F10.5
sg9
F193.0
sa(dp3500
g4
VTimberwolves
p3501
sg6
VBulls
p3502
sg8
F2.0
sg9
F190.5
sa(dp3503
g4
VRockets
p3504
sg6
VCeltics
p3505
sg8
F7.5
sg9
F208.5
sa(dp3506
g4
VThunder
p3507
sg6
VNuggets
p3508
sg8
F-4.5
sg9
F193.0
sa(dp3509
g4
VJazz
p3510
sg6
VSuns
p3511
sg8
F-2.0
sg9
F203.5
sa(dp3512
g4
VWarriors
p3513
sg6
VLakers
p3514
sg8
F14.0
sg9
F210.5
sasS'2014-11-01'
p3515
(lp3516
(dp3517
g4
VPacers
p3518
sg6
VGrizzlies
p3519
sg8
F-6.5
sg9
F185.5
sa(dp3520
g4
VBulls
p3521
sg6
VCavaliers
p3522
sg8
F4.0
sg9
F193.0
sa(dp3523
g4
VMilwaukee
p3524
sg6
V76ers
p3525
sg8
F8.5
sg9
F204.0
sa(dp3526
g4
Vsac
p3527
sg6
VTrail Blaze
p3528
sg8
F-4.5
sg9
F198.5
sa(dp3529
g4
VSuns
p3530
sg6
VSpurs
p3531
sg8
F-1.0
sg9
F208.0
sa(dp3532
g4
VLakers
p3533
sg6
VClippers
p3534
sg8
F-11.5
sg9
F210.0
sasS'2014-11-07'
p3535
(lp3536
(dp3537
g4
VRockets
p3538
sg6
VSpurs
p3539
sg8
F6.5
sg9
F196.5
sa(dp3540
g4
VTrail Blaze
p3541
sg6
VMavericks
p3542
sg8
F2.0
sg9
F209.0
sasS'2014-11-06'
p3543
(lp3544
(dp3545
g4
V76ers
p3546
sg6
VMagic
p3547
sg8
F-2.5
sg9
F195.5
sa(dp3548
g4
VHornets
p3549
sg6
VHeat
p3550
sg8
F1.5
sg9
F190.0
sa(dp3551
g4
VCeltics
p3552
sg6
VRaptors
p3553
sg8
F2.0
sg9
F203.5
sa(dp3554
g4
VNets
p3555
sg6
VTimberwolves
p3556
sg8
F5.0
sg9
F208.5
sa(dp3557
g4
VPistons
p3558
sg6
VKnicks
p3559
sg8
F4.0
sg9
F186.0
sa(dp3560
g4
VWizards
p3561
sg6
VPacers
p3562
sg8
F9.5
sg9
F187.5
sa(dp3563
g4
VMilwaukee
p3564
sg6
VBulls
p3565
sg8
F-5.0
sg9
F191.0
sa(dp3566
g4
VSpurs
p3567
sg6
VHawks
p3568
sg8
F8.0
sg9
F201.5
sa(dp3569
g4
VJazz
p3570
sg6
VCavaliers
p3571
sg8
F-5.5
sg9
F206.5
sa(dp3572
g4
VSuns
p3573
sg6
VGrizzlies
p3574
sg8
F1.5
sg9
F192.5
sa(dp3575
g4
Vsac
p3576
sg6
VNuggets
p3577
sg8
F3.5
sg9
F206.5
sa(dp3578
g4
VWarriors
p3579
sg6
VClippers
p3580
sg8
F5.0
sg9
F211.0
sasS'2014-11-05'
p3581
(lp3582
(dp3583
g4
VPacers
p3584
sg6
VMilwaukee
p3585
sg8
F4.0
sg9
F192.5
sa(dp3586
g4
VHeat
p3587
sg6
VRockets
p3588
sg8
F2.0
sg9
F204.0
sa(dp3589
g4
VKnicks
p3590
sg6
VWizards
p3591
sg8
F-2.0
sg9
F191.0
sa(dp3592
g4
VRaptors
p3593
sg6
VThunder
p3594
sg8
F11.5
sg9
F193.0
sa(dp3595
g4
VPelicans
p3596
sg6
VHornets
p3597
sg8
F4.0
sg9
F189.5
sa(dp3598
g4
VBulls
p3599
sg6
VMagic
p3600
sg8
F10.0
sg9
F188.5
sa(dp3601
g4
VTrail Blaze
p3602
sg6
VCavaliers
p3603
sg8
F-2.5
sg9
F208.0
sa(dp3604
g4
VLakers
p3605
sg6
VSuns
p3606
sg8
F-6.0
sg9
F213.0
sasS'2014-11-04'
p3607
(lp3608
(dp3609
g4
V76ers
p3610
sg6
VRockets
p3611
sg8
F-11.5
sg9
F200.0
sa(dp3612
g4
VNets
p3613
sg6
VThunder
p3614
sg8
F6.5
sg9
F192.5
sa(dp3615
g4
VGrizzlies
p3616
sg6
VPelicans
p3617
sg8
F4.0
sg9
F187.0
sa(dp3618
g4
VMavericks
p3619
sg6
VCeltics
p3620
sg8
F9.0
sg9
F208.5
sa(dp3621
g4
VNuggets
p3622
sg6
Vsac
p3623
sg8
F7.0
sg9
F202.0
sa(dp3624
g4
VClippers
p3625
sg6
VJazz
p3626
sg8
F10.0
sg9
F204.0
sasS'2016-01-04'
p3627
(lp3628
(dp3629
g4
VKnicks
p3630
sg6
VHawks
p3631
sg8
F-4.5
sg9
F200.5
sa(dp3632
g4
VRaptors
p3633
sg6
VBulls
p3634
sg8
F4.5
sg9
F195.5
sa(dp3635
g4
VWizards
p3636
sg6
VHeat
p3637
sg8
F-1.5
sg9
F196.5
sa(dp3638
g4
VNuggets
p3639
sg6
VTrail Blaze
p3640
sg8
F-2.5
sg9
F203.5
sa(dp3641
g4
VLakers
p3642
sg6
VSuns
p3643
sg8
F-1.5
sg9
F209.5
sasS'2016-01-05'
p3644
(lp3645
(dp3646
g4
V76ers
p3647
sg6
VTimberwolves
p3648
sg8
F-6.5
sg9
F203.5
sa(dp3649
g4
VCavaliers
p3650
sg6
VRaptors
p3651
sg8
F8.5
sg9
F193.5
sa(dp3652
g4
VHeat
p3653
sg6
VPacers
p3654
sg8
F1.5
sg9
F193.5
sa(dp3655
g4
VNets
p3656
sg6
VCeltics
p3657
sg8
F-7.5
sg9
F201.5
sa(dp3658
g4
VPistons
p3659
sg6
VMagic
p3660
sg8
F4.5
sg9
F198.5
sa(dp3661
g4
VMilwaukee
p3662
sg6
VSpurs
p3663
sg8
F-9.5
sg9
F192.5
sa(dp3664
g4
VThunder
p3665
sg6
Vsac
p3666
sg8
F7.5
sg9
F213.5
sa(dp3667
g4
VJazz
p3668
sg6
VRockets
p3669
sg8
F-3.5
sg9
F198.0
sa(dp3670
g4
VTrail Blaze
p3671
sg6
VGrizzlies
p3672
sg8
F-1.5
sg9
F195.0
sa(dp3673
g4
VWarriors
p3674
sg6
VHornets
p3675
sg8
F12.5
sg9
F211.5
sasS'2016-01-06'
p3676
(lp3677
(dp3678
g4
VHawks
p3679
sg6
VKnicks
p3680
sg8
F7.5
sg9
F203.0
sa(dp3681
g4
VBulls
p3682
sg6
VMilwaukee
p3683
sg8
F8.5
sg9
F201.0
sa(dp3684
g4
VMavericks
p3685
sg6
Vsac
p3686
sg8
F6.5
sg9
F213.0
sa(dp3687
g4
VLakers
p3688
sg6
VWarriors
p3689
sg8
F-13.5
sg9
F211.0
sasS'2016-01-07'
p3690
(lp3691
(dp3692
g4
VHeat
p3693
sg6
VKnicks
p3694
sg8
F7.5
sg9
F193.0
sa(dp3695
g4
VMagic
p3696
sg6
VPacers
p3697
sg8
F-4.0
sg9
F198.5
sa(dp3698
g4
VWizards
p3699
sg6
VCavaliers
p3700
sg8
F-7.5
sg9
F203.0
sa(dp3701
g4
VCeltics
p3702
sg6
VPistons
p3703
sg8
F3.0
sg9
F203.0
sa(dp3704
g4
VNets
p3705
sg6
VRaptors
p3706
sg8
F-7.0
sg9
F195.0
sa(dp3707
g4
VPelicans
p3708
sg6
VMavericks
p3709
sg8
F8.0
sg9
F203.5
sa(dp3710
g4
VTimberwolves
p3711
sg6
VNuggets
p3712
sg8
F3.5
sg9
F201.0
sa(dp3713
g4
VSpurs
p3714
sg6
VJazz
p3715
sg8
F13.0
sg9
F183.0
sa(dp3716
g4
VSuns
p3717
sg6
VHornets
p3718
sg8
F-2.0
sg9
F203.5
sa(dp3719
g4
VThunder
p3720
sg6
VGrizzlies
p3721
sg8
F9.0
sg9
F198.5
sa(dp3722
g4
VTrail Blaze
p3723
sg6
VClippers
p3724
sg8
F-3.5
sg9
F205.5
sasS'2016-01-01'
p3725
(lp3726
(dp3727
g4
VPistons
p3728
sg6
VTimberwolves
p3729
sg8
F7.5
sg9
F201.5
sa(dp3730
g4
VPacers
p3731
sg6
VMilwaukee
p3732
sg8
F6.5
sg9
F201.5
sa(dp3733
g4
VRockets
p3734
sg6
VWarriors
p3735
sg8
F3.5
sg9
F210.5
sa(dp3736
g4
VPelicans
p3737
sg6
VClippers
p3738
sg8
F1.5
sg9
F207.5
sa(dp3739
g4
VThunder
p3740
sg6
VSuns
p3741
sg8
F16.5
sg9
F212.5
sasS'2016-01-02'
p3742
(lp3743
(dp3744
g4
VWizards
p3745
sg6
VMagic
p3746
sg8
F-1.5
sg9
F201.5
sa(dp3747
g4
VHeat
p3748
sg6
VMavericks
p3749
sg8
F2.5
sg9
F189.5
sa(dp3750
g4
VRaptors
p3751
sg6
VHornets
p3752
sg8
F5.5
sg9
F195.5
sa(dp3753
g4
VBulls
p3754
sg6
VKnicks
p3755
sg8
F7.5
sg9
F199.5
sa(dp3756
g4
VLakers
p3757
sg6
V76ers
p3758
sg8
F3.5
sg9
F206.5
sasS'2016-01-03'
p3759
(lp3760
(dp3761
g4
VCeltics
p3762
sg6
VNets
p3763
sg8
F9.5
sg9
F203.5
sa(dp3764
g4
Vsac
p3765
sg6
VSuns
p3766
sg8
F5.5
sg9
F213.5
sa(dp3767
g4
VPacers
p3768
sg6
VPistons
p3769
sg8
F4.5
sg9
F204.5
sa(dp3770
g4
VHornets
p3771
sg6
VThunder
p3772
sg8
F-8.5
sg9
F209.5
sa(dp3773
g4
VCavaliers
p3774
sg6
VMagic
p3775
sg8
F8.5
sg9
F191.5
sa(dp3776
g4
VTimberwolves
p3777
sg6
VMilwaukee
p3778
sg8
F2.5
sg9
F203.5
sa(dp3779
g4
VMavericks
p3780
sg6
VPelicans
p3781
sg8
F3.5
sg9
F206.5
sa(dp3782
g4
VSpurs
p3783
sg6
VRockets
p3784
sg8
F10.5
sg9
F201.5
sa(dp3785
g4
VJazz
p3786
sg6
VGrizzlies
p3787
sg8
F-1.5
sg9
F184.5
sa(dp3788
g4
VWarriors
p3789
sg6
VNuggets
p3790
sg8
F14.5
sg9
F215.5
sa(dp3791
g4
VClippers
p3792
sg6
V76ers
p3793
sg8
F13.5
sg9
F203.5
sasS'2015-03-30'
p3794
(lp3795
(dp3796
g4
VWizards
p3797
sg6
VRockets
p3798
sg8
F-2.0
sg9
F205.0
sa(dp3799
g4
VNets
p3800
sg6
VLakers
p3801
sg8
F8.0
sg9
F198.5
sa(dp3802
g4
VPelicans
p3803
sg6
VTimberwolves
p3804
sg8
F13.0
sg9
F197.0
sa(dp3805
g4
VCavaliers
p3806
sg6
V76ers
p3807
sg8
F17.0
sg9
F200.0
sa(dp3808
g4
VCeltics
p3809
sg6
VClippers
p3810
sg8
F-6.0
sg9
F207.5
sa(dp3811
g4
VHeat
p3812
sg6
VPistons
p3813
sg8
F2.5
sg9
F193.0
sa(dp3814
g4
VPacers
p3815
sg6
VMavericks
p3816
sg8
F2.0
sg9
F197.5
sa(dp3817
g4
VSpurs
p3818
sg6
VGrizzlies
p3819
sg8
F8.0
sg9
F193.0
sa(dp3820
g4
VSuns
p3821
sg6
VThunder
p3822
sg8
F2.0
sg9
F211.0
sasS'2016-01-09'
p3823
(lp3824
(dp3825
g4
VWizards
p3826
sg6
VRaptors
p3827
sg8
F-2.0
sg9
F202.0
sa(dp3828
g4
VNets
p3829
sg6
VMagic
p3830
sg8
F-3.0
sg9
F191.0
sa(dp3831
g4
VPelicans
p3832
sg6
VPacers
p3833
sg8
F-2.0
sg9
F205.5
sa(dp3834
g4
VMilwaukee
p3835
sg6
VMavericks
p3836
sg8
F-1.0
sg9
F205.0
sa(dp3837
g4
VTimberwolves
p3838
sg6
VCavaliers
p3839
sg8
F-10.0
sg9
F196.0
sa(dp3840
g4
VGrizzlies
p3841
sg6
VNuggets
p3842
sg8
F5.5
sg9
F188.5
sa(dp3843
g4
VSpurs
p3844
sg6
VKnicks
p3845
sg8
F14.0
sg9
F196.0
sa(dp3846
g4
VSuns
p3847
sg6
VHeat
p3848
sg8
F-5.0
sg9
F198.0
sa(dp3849
g4
VTrail Blaze
p3850
sg6
VWarriors
p3851
sg8
F-9.0
sg9
F215.0
sa(dp3852
g4
VLakers
p3853
sg6
VThunder
p3854
sg8
F-15.5
sg9
F212.0
sasS'2015-04-08'
p3855
(lp3856
(dp3857
g4
VHeat
p3858
sg6
VHornets
p3859
sg8
F6.5
sg9
F190.5
sa(dp3860
g4
VHawks
p3861
sg6
VSuns
p3862
sg8
F7.0
sg9
F200.0
sa(dp3863
g4
VPelicans
p3864
sg6
VWarriors
p3865
sg8
F-4.5
sg9
F206.5
sa(dp3866
g4
VThunder
p3867
sg6
VSpurs
p3868
sg8
F-5.5
sg9
F214.5
sa(dp3869
g4
Vsac
p3870
sg6
VTimberwolves
p3871
sg8
F8.5
sg9
F213.5
sa(dp3872
g4
VClippers
p3873
sg6
VLakers
p3874
sg8
F17.0
sg9
F207.0
sasS'2015-04-09'
p3875
(lp3876
(dp3877
g4
VMagic
p3878
sg6
VBulls
p3879
sg8
F-7.5
sg9
F190.0
sa(dp3880
g4
V76ers
p3881
sg6
VWizards
p3882
sg8
F-4.5
sg9
F186.0
sa(dp3883
g4
VPistons
p3884
sg6
VCeltics
p3885
sg8
F-1.5
sg9
F201.5
sa(dp3886
g4
VHornets
p3887
sg6
VRaptors
p3888
sg8
F-3.5
sg9
F199.0
sa(dp3889
g4
VNets
p3890
sg6
VHawks
p3891
sg8
F4.0
sg9
F204.0
sa(dp3892
g4
VKnicks
p3893
sg6
VPacers
p3894
sg8
F-11.0
sg9
F191.0
sa(dp3895
g4
VMilwaukee
p3896
sg6
VCavaliers
p3897
sg8
F-6.5
sg9
F198.5
sa(dp3898
g4
VGrizzlies
p3899
sg6
VPelicans
p3900
sg8
F5.0
sg9
F184.0
sa(dp3901
g4
VSpurs
p3902
sg6
VRockets
p3903
sg8
F6.5
sg9
F204.5
sa(dp3904
g4
VJazz
p3905
sg6
Vsac
p3906
sg8
F12.0
sg9
F190.5
sa(dp3907
g4
VNuggets
p3908
sg6
VLakers
p3909
sg8
F10.0
sg9
F205.0
sa(dp3910
g4
VMavericks
p3911
sg6
VSuns
p3912
sg8
F8.5
sg9
F205.5
sa(dp3913
g4
VTrail Blaze
p3914
sg6
VTimberwolves
p3915
sg8
F16.5
sg9
F207.5
sasS'2015-04-01'
p3916
(lp3917
(dp3918
g4
VNets
p3919
sg6
VPacers
p3920
sg8
F-1.5
sg9
F199.5
sa(dp3921
g4
VPistons
p3922
sg6
VHawks
p3923
sg8
F-2.0
sg9
F199.0
sa(dp3924
g4
VHeat
p3925
sg6
VSpurs
p3926
sg8
F-8.0
sg9
F195.0
sa(dp3927
g4
VClippers
p3928
sg6
VWarriors
p3929
sg8
F3.0
sg9
F219.0
sasS'2015-04-02'
p3930
(lp3931
(dp3932
g4
VMagic
p3933
sg6
VSpurs
p3934
sg8
F-10.0
sg9
F197.0
sa(dp3935
g4
VWizards
p3936
sg6
V76ers
p3937
sg8
F10.0
sg9
F190.0
sa(dp3938
g4
VHornets
p3939
sg6
VPistons
p3940
sg8
F5.5
sg9
F196.0
sa(dp3941
g4
VCeltics
p3942
sg6
VPacers
p3943
sg8
F4.0
sg9
F200.5
sa(dp3944
g4
VKnicks
p3945
sg6
VNets
p3946
sg8
F-9.5
sg9
F194.5
sa(dp3947
g4
VMilwaukee
p3948
sg6
VBulls
p3949
sg8
F-5.0
sg9
F191.5
sa(dp3950
g4
VTimberwolves
p3951
sg6
VRaptors
p3952
sg8
F-10.0
sg9
F203.5
sa(dp3953
g4
VRockets
p3954
sg6
Vsac
p3955
sg8
F10.5
sg9
F211.5
sa(dp3956
g4
VThunder
p3957
sg6
VMavericks
p3958
sg8
F2.5
sg9
F214.0
sa(dp3959
g4
VJazz
p3960
sg6
VNuggets
p3961
sg8
F5.0
sg9
F195.0
sa(dp3962
g4
VTrail Blaze
p3963
sg6
VClippers
p3964
sg8
F3.0
sg9
F208.5
sa(dp3965
g4
VLakers
p3966
sg6
VPelicans
p3967
sg8
F-9.5
sg9
F196.5
sasS'2015-04-03'
p3968
(lp3969
(dp3970
g4
VCavaliers
p3971
sg6
VHeat
p3972
sg8
F9.5
sg9
F196.0
sa(dp3973
g4
VMavericks
p3974
sg6
VRockets
p3975
sg8
F2.5
sg9
F210.0
sa(dp3976
g4
VWarriors
p3977
sg6
VSuns
p3978
sg8
F12.5
sg9
F210.0
sasS'2015-04-04'
p3979
(lp3980
(dp3981
g4
VWizards
p3982
sg6
VKnicks
p3983
sg8
F14.5
sg9
F189.5
sa(dp3984
g4
VPacers
p3985
sg6
VHornets
p3986
sg8
F5.0
sg9
F193.5
sa(dp3987
g4
VCeltics
p3988
sg6
VMilwaukee
p3989
sg8
F5.0
sg9
F195.0
sa(dp3990
g4
VNets
p3991
sg6
VRaptors
p3992
sg8
F2.0
sg9
F206.5
sa(dp3993
g4
VBulls
p3994
sg6
VPistons
p3995
sg8
F9.0
sg9
F196.0
sa(dp3996
g4
VTimberwolves
p3997
sg6
VMagic
p3998
sg8
F-4.5
sg9
F206.0
sa(dp3999
g4
VGrizzlies
p4000
sg6
VThunder
p4001
sg8
F5.5
sg9
F204.5
sa(dp4002
g4
VSpurs
p4003
sg6
VNuggets
p4004
sg8
F13.0
sg9
F208.5
sa(dp4005
g4
Vsac
p4006
sg6
VPelicans
p4007
sg8
F-6.5
sg9
F203.0
sa(dp4008
g4
VLakers
p4009
sg6
VTrail Blaze
p4010
sg8
F-10.5
sg9
F203.5
sasS'2015-04-05'
p4011
(lp4012
(dp4013
g4
VHornets
p4014
sg6
V76ers
p4015
sg8
F6.5
sg9
F188.5
sa(dp4016
g4
VPistons
p4017
sg6
VHeat
p4018
sg8
F-4.5
sg9
F190.0
sa(dp4019
g4
VHawks
p4020
sg6
VNets
p4021
sg8
F10.5
sg9
F205.0
sa(dp4022
g4
VRaptors
p4023
sg6
VCeltics
p4024
sg8
F2.0
sg9
F208.5
sa(dp4025
g4
VGrizzlies
p4026
sg6
VWizards
p4027
sg8
F8.0
sg9
F187.0
sa(dp4028
g4
VMilwaukee
p4029
sg6
VMagic
p4030
sg8
F9.0
sg9
F194.0
sa(dp4031
g4
VMavericks
p4032
sg6
VWarriors
p4033
sg8
F-6.5
sg9
F215.5
sa(dp4034
g4
VNuggets
p4035
sg6
VClippers
p4036
sg8
F-10.0
sg9
F215.5
sa(dp4037
g4
VTrail Blaze
p4038
sg6
VPelicans
p4039
sg8
F5.5
sg9
F193.0
sa(dp4040
g4
VSuns
p4041
sg6
VJazz
p4042
sg8
F1.0
sg9
F188.0
sasS'2015-04-06'
p4043
(lp4044
(dp4045
g4
VThunder
p4046
sg6
VRockets
p4047
sg8
F-1.0
sg9
F219.0
sa(dp4048
g4
VCavaliers
p4049
sg6
VBulls
p4050
sg8
F8.0
sg9
F194.5
sa(dp4051
g4
VPacers
p4052
sg6
VHeat
p4053
sg8
F6.5
sg9
F190.5
sa(dp4054
g4
VSpurs
p4055
sg6
VWarriors
p4056
sg8
F4.5
sg9
F211.0
sa(dp4057
g4
VKnicks
p4058
sg6
V76ers
p4059
sg8
F-1.0
sg9
F187.0
sa(dp4060
g4
Vsac
p4061
sg6
VJazz
p4062
sg8
F1.5
sg9
F190.0
sa(dp4063
g4
VLakers
p4064
sg6
VClippers
p4065
sg8
F-14.0
sg9
F209.5
sasS'2015-04-07'
p4066
(lp4067
(dp4068
g4
VNets
p4069
sg6
VTrail Blaze
p4070
sg8
F6.0
sg9
F203.5
sasS'2015-01-09'
p4071
(lp4072
(dp4073
g4
VRaptors
p4074
sg6
VHornets
p4075
sg8
F12.5
sg9
F197.5
sa(dp4076
g4
VKnicks
p4077
sg6
VRockets
p4078
sg8
F-12.5
sg9
F194.5
sa(dp4079
g4
VTrail Blaze
p4080
sg6
VHeat
p4081
sg8
F8.5
sg9
F196.0
sasS'2015-01-08'
p4082
(lp4083
(dp4084
g4
V76ers
p4085
sg6
VMilwaukee
p4086
sg8
F-6.5
sg9
F195.5
sa(dp4087
g4
VWizards
p4088
sg6
VKnicks
p4089
sg8
F14.0
sg9
F187.5
sa(dp4090
g4
VCavaliers
p4091
sg6
VRockets
p4092
sg8
F-6.0
sg9
F198.0
sa(dp4093
g4
VHornets
p4094
sg6
VPelicans
p4095
sg8
F-5.0
sg9
F191.0
sa(dp4096
g4
VNets
p4097
sg6
VCeltics
p4098
sg8
F5.0
sg9
F198.5
sa(dp4099
g4
VHawks
p4100
sg6
VGrizzlies
p4101
sg8
F4.5
sg9
F197.0
sa(dp4102
g4
VBulls
p4103
sg6
VJazz
p4104
sg8
F11.0
sg9
F192.5
sa(dp4105
g4
VMavericks
p4106
sg6
VPistons
p4107
sg8
F9.0
sg9
F211.5
sa(dp4108
g4
VNuggets
p4109
sg6
VMagic
p4110
sg8
F7.0
sg9
F201.0
sa(dp4111
g4
VTimberwolves
p4112
sg6
VSuns
p4113
sg8
F-8.0
sg9
F216.0
sa(dp4114
g4
Vsac
p4115
sg6
VThunder
p4116
sg8
F-7.0
sg9
F212.0
sa(dp4117
g4
VWarriors
p4118
sg6
VPacers
p4119
sg8
F11.5
sg9
F203.0
sa(dp4120
g4
VClippers
p4121
sg6
VLakers
p4122
sg8
F10.5
sg9
F214.5
sasS'2015-01-07'
p4123
(lp4124
(dp4125
g4
VMilwaukee
p4126
sg6
VSuns
p4127
sg8
F-4.5
sg9
F209.0
sa(dp4128
g4
VSpurs
p4129
sg6
VPistons
p4130
sg8
F8.0
sg9
F200.5
sasS'2015-01-06'
p4131
(lp4132
(dp4133
g4
V76ers
p4134
sg6
VCavaliers
p4135
sg8
F-4.5
sg9
F192.5
sa(dp4136
g4
VCeltics
p4137
sg6
VHornets
p4138
sg8
F5.5
sg9
F198.5
sa(dp4139
g4
VNets
p4140
sg6
VMavericks
p4141
sg8
F-7.0
sg9
F205.5
sa(dp4142
g4
VPelicans
p4143
sg6
VWizards
p4144
sg8
F3.0
sg9
F200.0
sa(dp4145
g4
VBulls
p4146
sg6
VRockets
p4147
sg8
F3.0
sg9
F199.0
sa(dp4148
g4
VTimberwolves
p4149
sg6
VNuggets
p4150
sg8
F-5.0
sg9
F210.5
sa(dp4151
g4
VGrizzlies
p4152
sg6
VKnicks
p4153
sg8
F14.5
sg9
F188.0
sa(dp4154
g4
VJazz
p4155
sg6
VPacers
p4156
sg8
F1.5
sg9
F185.5
sa(dp4157
g4
VTrail Blaze
p4158
sg6
VLakers
p4159
sg8
F13.0
sg9
F209.0
sa(dp4160
g4
VWarriors
p4161
sg6
VThunder
p4162
sg8
F3.5
sg9
F217.0
sa(dp4163
g4
VClippers
p4164
sg6
VHawks
p4165
sg8
F5.5
sg9
F210.5
sasS'2015-01-05'
p4166
(lp4167
(dp4168
g4
VCavaliers
p4169
sg6
VMavericks
p4170
sg8
F-7.5
sg9
F207.5
sa(dp4171
g4
VHeat
p4172
sg6
VNets
p4173
sg8
F-2.0
sg9
F195.5
sa(dp4174
g4
VPistons
p4175
sg6
Vsac
p4176
sg8
F3.5
sg9
F209.5
sa(dp4177
g4
VKnicks
p4178
sg6
VMilwaukee
p4179
sg8
F-7.0
sg9
F192.5
sa(dp4180
g4
VSuns
p4181
sg6
VRaptors
p4182
sg8
F1.0
sg9
F216.5
sa(dp4183
g4
VLakers
p4184
sg6
VPacers
p4185
sg8
F1.0
sg9
F202.0
sasS'2015-01-04'
p4186
(lp4187
(dp4188
g4
VMagic
p4189
sg6
VHornets
p4190
sg8
F4.0
sg9
F187.5
sa(dp4191
g4
VBulls
p4192
sg6
VCeltics
p4193
sg8
F10.0
sg9
F202.0
sa(dp4194
g4
VTimberwolves
p4195
sg6
VJazz
p4196
sg8
F1.5
sg9
F198.0
sa(dp4197
g4
VRockets
p4198
sg6
VHeat
p4199
sg8
F6.5
sg9
F198.0
sa(dp4200
g4
VSpurs
p4201
sg6
VWizards
p4202
sg8
F5.5
sg9
F194.5
sa(dp4203
g4
VNuggets
p4204
sg6
VGrizzlies
p4205
sg8
F1.5
sg9
F202.5
sa(dp4206
g4
VTrail Blaze
p4207
sg6
VHawks
p4208
sg8
F6.0
sg9
F205.5
sa(dp4209
g4
VClippers
p4210
sg6
V76ers
p4211
sg8
F19.5
sg9
F205.0
sasS'2015-01-03'
p4212
(lp4213
(dp4214
g4
VMagic
p4215
sg6
VNets
p4216
sg8
F-2.5
sg9
F193.0
sa(dp4217
g4
VHornets
p4218
sg6
VCavaliers
p4219
sg8
F-1.5
sg9
F193.0
sa(dp4220
g4
VCeltics
p4221
sg6
VMavericks
p4222
sg8
F-5.5
sg9
F215.0
sa(dp4223
g4
VKnicks
p4224
sg6
VPistons
p4225
sg8
F-4.5
sg9
F195.5
sa(dp4226
g4
VPelicans
p4227
sg6
VRockets
p4228
sg8
F-2.0
sg9
F204.0
sa(dp4229
g4
VThunder
p4230
sg6
VWizards
p4231
sg8
F7.5
sg9
F206.0
sa(dp4232
g4
VMilwaukee
p4233
sg6
VPacers
p4234
sg8
F1.5
sg9
F194.5
sa(dp4235
g4
VJazz
p4236
sg6
VHawks
p4237
sg8
F-4.5
sg9
F194.5
sa(dp4238
g4
VSuns
p4239
sg6
V76ers
p4240
sg8
F14.0
sg9
F209.0
sa(dp4241
g4
VLakers
p4242
sg6
VGrizzlies
p4243
sg8
F-4.0
sg9
F203.5
sa(dp4244
g4
VWarriors
p4245
sg6
VRaptors
p4246
sg8
F4.5
sg9
F216.5
sasS'2015-01-02'
p4247
(lp4248
(dp4249
g4
VBulls
p4250
sg6
VNuggets
p4251
sg8
F10.5
sg9
F204.5
sa(dp4252
g4
VTimberwolves
p4253
sg6
Vsac
p4254
sg8
F-4.5
sg9
F211.5
sasS'2015-01-01'
p4255
(lp4256
(dp4257
g4
VCeltics
p4258
sg6
Vsac
p4259
sg8
F-2.0
sg9
F211.5
sa(dp4260
g4
VPacers
p4261
sg6
VHeat
p4262
sg8
F4.0
sg9
F189.5
sa(dp4263
g4
VClippers
p4264
sg6
VKnicks
p4265
sg8
F13.0
sg9
F206.0
sa(dp4266
g4
VCavaliers
p4267
sg6
VMilwaukee
p4268
sg8
F-1.0
sg9
F201.0
sa(dp4269
g4
VSpurs
p4270
sg6
VPelicans
p4271
sg8
F5.0
sg9
F199.0
sa(dp4272
g4
VRockets
p4273
sg6
VHornets
p4274
sg8
F11.5
sg9
F197.0
sa(dp4275
g4
VThunder
p4276
sg6
VSuns
p4277
sg8
F8.0
sg9
F213.0
sasS'2016-02-23'
p4278
(lp4279
(dp4280
g4
VCavaliers
p4281
sg6
VPistons
p4282
sg8
F9.0
sg9
F206.5
sa(dp4283
g4
VHeat
p4284
sg6
VPacers
p4285
sg8
F1.5
sg9
F202.0
sa(dp4286
g4
VKnicks
p4287
sg6
VRaptors
p4288
sg8
F-4.0
sg9
F202.5
sa(dp4289
g4
VMilwaukee
p4290
sg6
VLakers
p4291
sg8
F9.0
sg9
F210.5
sa(dp4292
g4
VHawks
p4293
sg6
VWarriors
p4294
sg8
F-6.0
sg9
F226.0
sa(dp4295
g4
VTimberwolves
p4296
sg6
VCeltics
p4297
sg8
F-3.5
sg9
F219.0
sa(dp4298
g4
VClippers
p4299
sg6
VSuns
p4300
sg8
F14.5
sg9
F212.0
sasS'2016-02-22'
p4301
(lp4302
(dp4303
g4
VPistons
p4304
sg6
VPelicans
p4305
sg8
F4.5
sg9
F207.0
sa(dp4306
g4
VThunder
p4307
sg6
VCavaliers
p4308
sg8
F3.5
sg9
F218.0
sa(dp4309
g4
VNuggets
p4310
sg6
VCeltics
p4311
sg8
F-2.5
sg9
F212.5
sa(dp4312
g4
VSuns
p4313
sg6
VSpurs
p4314
sg8
F-13.5
sg9
F204.0
sa(dp4315
g4
VNets
p4316
sg6
VHornets
p4317
sg8
F-7.0
sg9
F205.0
sa(dp4318
g4
VMagic
p4319
sg6
VPacers
p4320
sg8
F-1.5
sg9
F203.0
sa(dp4321
g4
VRaptors
p4322
sg6
VGrizzlies
p4323
sg8
F7.5
sg9
F201.5
sa(dp4324
g4
VMavericks
p4325
sg6
V76ers
p4326
sg8
F9.0
sg9
F205.0
sa(dp4327
g4
VBulls
p4328
sg6
VLakers
p4329
sg8
F7.0
sg9
F210.0
sa(dp4330
g4
VTrail Blaze
p4331
sg6
VJazz
p4332
sg8
F3.0
sg9
F196.5
sasS'2016-02-21'
p4333
(lp4334
(dp4335
g4
VHeat
p4336
sg6
VWizards
p4337
sg8
F-2.0
sg9
F201.0
sa(dp4338
g4
VHawks
p4339
sg6
VMilwaukee
p4340
sg8
F8.5
sg9
F207.5
sa(dp4341
g4
VTimberwolves
p4342
sg6
VKnicks
p4343
sg8
F3.0
sg9
F207.5
sa(dp4344
g4
VClippers
p4345
sg6
VWarriors
p4346
sg8
F-3.5
sg9
F228.0
sasS'2016-02-20'
p4347
(lp4348
(dp4349
g4
VMagic
p4350
sg6
VMavericks
p4351
sg8
F1.5
sg9
F200.0
sa(dp4352
g4
VWizards
p4353
sg6
VPistons
p4354
sg8
F2.0
sg9
F209.5
sa(dp4355
g4
VNets
p4356
sg6
VKnicks
p4357
sg8
F-5.5
sg9
F199.0
sa(dp4358
g4
VPelicans
p4359
sg6
V76ers
p4360
sg8
F9.5
sg9
F204.0
sa(dp4361
g4
VMilwaukee
p4362
sg6
VHornets
p4363
sg8
F-1.5
sg9
F200.5
sa(dp4364
g4
VHawks
p4365
sg6
VHeat
p4366
sg8
F11.0
sg9
F198.0
sa(dp4367
g4
VBulls
p4368
sg6
VRaptors
p4369
sg8
F-7.5
sg9
F200.0
sa(dp4370
g4
VGrizzlies
p4371
sg6
VTimberwolves
p4372
sg8
F4.5
sg9
F206.5
sa(dp4373
g4
VThunder
p4374
sg6
VPacers
p4375
sg8
F7.5
sg9
F214.5
sa(dp4376
g4
VSuns
p4377
sg6
VRockets
p4378
sg8
F-7.5
sg9
F214.0
sa(dp4379
g4
Vsac
p4380
sg6
VNuggets
p4381
sg8
F4.0
sg9
F219.0
sa(dp4382
g4
VTrail Blaze
p4383
sg6
VWarriors
p4384
sg8
F-7.5
sg9
F225.5
sa(dp4385
g4
VJazz
p4386
sg6
VCeltics
p4387
sg8
F1.5
sg9
F194.5
sasS'2016-02-27'
p4388
(lp4389
(dp4390
g4
V76ers
p4391
sg6
VWizards
p4392
sg8
F-7.5
sg9
F216.5
sa(dp4393
g4
VPacers
p4394
sg6
VHornets
p4395
sg8
F4.0
sg9
F203.0
sa(dp4396
g4
VKnicks
p4397
sg6
VMagic
p4398
sg8
F2.5
sg9
F209.5
sa(dp4399
g4
VRaptors
p4400
sg6
VCavaliers
p4401
sg8
F-2.5
sg9
F206.0
sa(dp4402
g4
VHawks
p4403
sg6
VBulls
p4404
sg8
F7.5
sg9
F209.0
sa(dp4405
g4
VMavericks
p4406
sg6
VNuggets
p4407
sg8
F6.0
sg9
F208.0
sa(dp4408
g4
Vsac
p4409
sg6
VClippers
p4410
sg8
F-5.0
sg9
F218.5
sa(dp4411
g4
VLakers
p4412
sg6
VGrizzlies
p4413
sg8
F-5.0
sg9
F212.0
sasS'2016-02-26'
p4414
(lp4415
(dp4416
g4
VMagic
p4417
sg6
VWarriors
p4418
sg8
F-8.0
sg9
F223.5
sa(dp4419
g4
VCeltics
p4420
sg6
VMilwaukee
p4421
sg8
F7.5
sg9
F214.5
sa(dp4422
g4
VPelicans
p4423
sg6
VThunder
p4424
sg8
F-6.0
sg9
F222.5
sa(dp4425
g4
VSuns
p4426
sg6
VNets
p4427
sg8
F1.5
sg9
F209.0
sa(dp4428
g4
VJazz
p4429
sg6
VSpurs
p4430
sg8
F-3.0
sg9
F193.0
sa(dp4431
g4
VTrail Blaze
p4432
sg6
VRockets
p4433
sg8
F4.0
sg9
F218.5
sasS'2016-02-25'
p4434
(lp4435
(dp4436
g4
VPacers
p4437
sg6
VKnicks
p4438
sg8
F6.0
sg9
F202.0
sa(dp4439
g4
VCavaliers
p4440
sg6
VHornets
p4441
sg8
F8.5
sg9
F208.0
sa(dp4442
g4
VHeat
p4443
sg6
VWarriors
p4444
sg8
F-8.5
sg9
F219.0
sa(dp4445
g4
VPistons
p4446
sg6
V76ers
p4447
sg8
F12.0
sg9
F209.5
sa(dp4448
g4
VRaptors
p4449
sg6
VTimberwolves
p4450
sg8
F9.5
sg9
F211.5
sa(dp4451
g4
VBulls
p4452
sg6
VWizards
p4453
sg8
F1.5
sg9
F212.0
sa(dp4454
g4
VGrizzlies
p4455
sg6
VLakers
p4456
sg8
F8.5
sg9
F206.5
sa(dp4457
g4
VMavericks
p4458
sg6
VThunder
p4459
sg8
F-5.0
sg9
F214.0
sa(dp4460
g4
Vsac
p4461
sg6
VSpurs
p4462
sg8
F-8.0
sg9
F219.0
sa(dp4463
g4
VClippers
p4464
sg6
VNuggets
p4465
sg8
F11.0
sg9
F214.0
sasS'2016-02-24'
p4466
(lp4467
(dp4468
g4
V76ers
p4469
sg6
VMagic
p4470
sg8
F-5.5
sg9
F209.0
sa(dp4471
g4
VWizards
p4472
sg6
VPelicans
p4473
sg8
F5.0
sg9
F217.5
sa(dp4474
g4
VJazz
p4475
sg6
VRockets
p4476
sg8
F5.0
sg9
F203.0
sa(dp4477
g4
VNuggets
p4478
sg6
Vsac
p4479
sg8
F2.5
sg9
F221.5
sa(dp4480
g4
VTrail Blaze
p4481
sg6
VNets
p4482
sg8
F11.5
sg9
F211.0
sasS'2016-02-29'
p4483
(lp4484
(dp4485
g4
VWizards
p4486
sg6
VCavaliers
p4487
sg8
F-2.5
sg9
F205.5
sa(dp4488
g4
VHawks
p4489
sg6
VHornets
p4490
sg8
F4.5
sg9
F202.0
sa(dp4491
g4
VMagic
p4492
sg6
V76ers
p4493
sg8
F9.0
sg9
F213.5
sa(dp4494
g4
VPistons
p4495
sg6
VRaptors
p4496
sg8
F1.5
sg9
F199.5
sa(dp4497
g4
VPacers
p4498
sg6
VTrail Blaze
p4499
sg8
F6.0
sg9
F207.5
sa(dp4500
g4
VMavericks
p4501
sg6
VTimberwolves
p4502
sg8
F7.5
sg9
F210.5
sa(dp4503
g4
VKnicks
p4504
sg6
VHeat
p4505
sg8
F-2.0
sg9
F197.0
sasS'2016-02-28'
p4506
(lp4507
(dp4508
g4
VCeltics
p4509
sg6
VHeat
p4510
sg8
F5.5
sg9
F209.5
sa(dp4511
g4
VPelicans
p4512
sg6
VTimberwolves
p4513
sg8
F3.0
sg9
F220.0
sa(dp4514
g4
VBulls
p4515
sg6
VTrail Blaze
p4516
sg8
F-4.0
sg9
F209.0
sa(dp4517
g4
VRockets
p4518
sg6
VSpurs
p4519
sg8
F-5.5
sg9
F212.5
sa(dp4520
g4
VMilwaukee
p4521
sg6
VPistons
p4522
sg8
F1.5
sg9
F204.0
sa(dp4523
g4
VThunder
p4524
sg6
VWarriors
p4525
sg8
F-3.0
sg9
F233.5
sa(dp4526
g4
VJazz
p4527
sg6
VNets
p4528
sg8
F12.0
sg9
F197.0
sa(dp4529
g4
VSuns
p4530
sg6
VGrizzlies
p4531
sg8
F-7.0
sg9
F208.5
sasS'2015-11-30'
p4532
(lp4533
(dp4534
g4
VHornets
p4535
sg6
VMilwaukee
p4536
sg8
F6.5
sg9
F201.5
sa(dp4537
g4
VClippers
p4538
sg6
VTimberwolves
p4539
sg8
F10.5
sg9
F206.0
sa(dp4540
g4
VNets
p4541
sg6
VPistons
p4542
sg8
F-4.5
sg9
F193.5
sa(dp4543
g4
VMagic
p4544
sg6
VCeltics
p4545
sg8
F-2.5
sg9
F201.5
sa(dp4546
g4
VRaptors
p4547
sg6
VSuns
p4548
sg8
F3.5
sg9
F202.5
sa(dp4549
g4
VGrizzlies
p4550
sg6
V76ers
p4551
sg8
F12.5
sg9
F193.5
sa(dp4552
g4
VKnicks
p4553
sg6
VRockets
p4554
sg8
F-4.5
sg9
F198.5
sa(dp4555
g4
VLakers
p4556
sg6
VPacers
p4557
sg8
F-9.5
sg9
F202.5
sasS'2015-10-29'
p4558
(lp4559
(dp4560
g4
VMagic
p4561
sg6
VWizards
p4562
sg8
F-4.5
sg9
F203.5
sa(dp4563
g4
VCeltics
p4564
sg6
V76ers
p4565
sg8
F12.5
sg9
F198.0
sa(dp4566
g4
VHeat
p4567
sg6
VHornets
p4568
sg8
F6.5
sg9
F194.5
sa(dp4569
g4
VNets
p4570
sg6
VBulls
p4571
sg8
F-5.0
sg9
F196.5
sa(dp4572
g4
VPistons
p4573
sg6
VJazz
p4574
sg8
F-1.0
sg9
F191.0
sa(dp4575
g4
VRaptors
p4576
sg6
VPacers
p4577
sg8
F5.5
sg9
F199.5
sa(dp4578
g4
VMilwaukee
p4579
sg6
VKnicks
p4580
sg8
F5.0
sg9
F194.5
sa(dp4581
g4
VRockets
p4582
sg6
VNuggets
p4583
sg8
F10.5
sg9
F211.5
sa(dp4584
g4
VGrizzlies
p4585
sg6
VCavaliers
p4586
sg8
F5.0
sg9
F189.0
sa(dp4587
g4
VThunder
p4588
sg6
VSpurs
p4589
sg8
F4.0
sg9
F207.5
sa(dp4590
g4
Vsac
p4591
sg6
VClippers
p4592
sg8
F-5.5
sg9
F211.5
sa(dp4593
g4
VTrail Blaze
p4594
sg6
VPelicans
p4595
sg8
F2.0
sg9
F204.5
sa(dp4596
g4
VSuns
p4597
sg6
VMavericks
p4598
sg8
F6.0
sg9
F204.5
sa(dp4599
g4
VLakers
p4600
sg6
VTimberwolves
p4601
sg8
F2.5
sg9
F203.0
sasS'2015-10-28'
p4602
(lp4603
(dp4604
g4
VHawks
p4605
sg6
VPistons
p4606
sg8
F7.0
sg9
F196.5
sa(dp4607
g4
VBulls
p4608
sg6
VCavaliers
p4609
sg8
F4.0
sg9
F198.5
sa(dp4610
g4
VWarriors
p4611
sg6
VPelicans
p4612
sg8
F10.5
sg9
F215.0
sasS'2015-10-24'
p4613
(lp4614
(dp4615
g4
VMagic
p4616
sg6
VGrizzlies
p4617
sg8
F2.0
sg9
F184.5
sa(dp4618
g4
VCeltics
p4619
sg6
V76ers
p4620
sg8
F7.5
sg9
F202.0
sa(dp4621
g4
VPistons
p4622
sg6
VHawks
p4623
sg8
F2.0
sg9
F193.5
sa(dp4624
g4
VRaptors
p4625
sg6
VWizards
p4626
sg8
F3.5
sg9
F211.0
sa(dp4627
g4
VPelicans
p4628
sg6
VHeat
p4629
sg8
F3.0
sg9
F203.0
sa(dp4630
g4
VBulls
p4631
sg6
VMavericks
p4632
sg8
F7.5
sg9
F204.0
sa(dp4633
g4
VTimberwolves
p4634
sg6
VMilwaukee
p4635
sg8
F-4.0
sg9
F202.5
sa(dp4636
g4
VSpurs
p4637
sg6
VRockets
p4638
sg8
F3.0
sg9
F205.5
sasS'2015-10-23'
p4639
(lp4640
(dp4641
g4
VPacers
p4642
sg6
VHornets
p4643
sg8
F5.5
sg9
F196.0
sa(dp4644
g4
VCeltics
p4645
sg6
VKnicks
p4646
sg8
F4.5
sg9
F202.5
sa(dp4647
g4
VJazz
p4648
sg6
VNuggets
p4649
sg8
F3.5
sg9
F197.0
sa(dp4650
g4
VLakers
p4651
sg6
VWarriors
p4652
sg8
F-7.5
sg9
F213.5
sa(dp4653
g4
VClippers
p4654
sg6
VTrail Blaze
p4655
sg8
F5.5
sg9
F208.0
sasS'2015-10-22'
p4656
(lp4657
(dp4658
g4
VMagic
p4659
sg6
VPelicans
p4660
sg8
F-4.0
sg9
F208.0
sa(dp4661
g4
VPistons
p4662
sg6
VHornets
p4663
sg8
F-1.5
sg9
F194.0
sa(dp4664
g4
VHeat
p4665
sg6
VWizards
p4666
sg8
F4.5
sg9
F210.0
sa(dp4667
g4
VHawks
p4668
sg6
VGrizzlies
p4669
sg8
F2.0
sg9
F184.0
sa(dp4670
g4
VMavericks
p4671
sg6
VSuns
p4672
sg8
F-5.0
sg9
F194.0
sasS'2015-10-21'
p4673
(lp4674
(dp4675
g4
VMilwaukee
p4676
sg6
VTimberwolves
p4677
sg8
F3.5
sg9
F201.5
sa(dp4678
g4
VBulls
p4679
sg6
VPacers
p4680
sg8
F-4.0
sg9
F200.5
sa(dp4681
g4
VSpurs
p4682
sg6
VSuns
p4683
sg8
F4.5
sg9
F196.0
sa(dp4684
g4
VJazz
p4685
sg6
VThunder
p4686
sg8
F-5.0
sg9
F198.5
sa(dp4687
g4
VClippers
p4688
sg6
VWarriors
p4689
sg8
F4.0
sg9
F208.0
sasS'2015-10-20'
p4690
(lp4691
(dp4692
g4
VCavaliers
p4693
sg6
VMavericks
p4694
sg8
F4.0
sg9
F188.0
sa(dp4695
g4
VHornets
p4696
sg6
VBulls
p4697
sg8
F3.0
sg9
F199.0
sa(dp4698
g4
VCeltics
p4699
sg6
VNets
p4700
sg8
F8.5
sg9
F191.0
sa(dp4701
g4
VRockets
p4702
sg6
VPelicans
p4703
sg8
F6.0
sg9
F210.0
sa(dp4704
g4
VLakers
p4705
sg6
VTrail Blaze
p4706
sg8
F5.0
sg9
F194.5
sasS'2014-11-30'
p4707
(lp4708
(dp4709
g4
V76ers
p4710
sg6
VMavericks
p4711
sg8
F-12.5
sg9
F203.0
sa(dp4712
g4
VWizards
p4713
sg6
VPelicans
p4714
sg8
F4.0
sg9
F198.5
sa(dp4715
g4
VHawks
p4716
sg6
VHornets
p4717
sg8
F7.0
sg9
F197.5
sa(dp4718
g4
VCavaliers
p4719
sg6
VPacers
p4720
sg8
F10.0
sg9
F195.0
sa(dp4721
g4
VMilwaukee
p4722
sg6
VRockets
p4723
sg8
F3.5
sg9
F191.0
sa(dp4724
g4
VJazz
p4725
sg6
VClippers
p4726
sg8
F-5.0
sg9
F204.0
sasS'2016-03-31'
p4727
(lp4728
(dp4729
g4
VRaptors
p4730
sg6
VHawks
p4731
sg8
F1.0
sg9
F201.5
sa(dp4732
g4
VMilwaukee
p4733
sg6
VSuns
p4734
sg8
F7.5
sg9
F211.5
sa(dp4735
g4
VTimberwolves
p4736
sg6
VClippers
p4737
sg8
F-6.0
sg9
F212.5
sa(dp4738
g4
VGrizzlies
p4739
sg6
VNuggets
p4740
sg8
F2.5
sg9
F204.5
sa(dp4741
g4
VMavericks
p4742
sg6
VKnicks
p4743
sg8
F6.0
sg9
F199.5
sa(dp4744
g4
VSpurs
p4745
sg6
VPelicans
p4746
sg8
F19.0
sg9
F196.0
sa(dp4747
g4
VJazz
p4748
sg6
VWarriors
p4749
sg8
F-4.0
sg9
F203.5
sa(dp4750
g4
Vsac
p4751
sg6
VWizards
p4752
sg8
F-2.0
sg9
F218.0
sa(dp4753
g4
VLakers
p4754
sg6
VHeat
p4755
sg8
F-10.5
sg9
F207.0
sasS'2016-03-30'
p4756
(lp4757
(dp4758
g4
VMagic
p4759
sg6
VNets
p4760
sg8
F8.0
sg9
F211.5
sa(dp4761
g4
V76ers
p4762
sg6
VHornets
p4763
sg8
F-11.5
sg9
F210.0
sa(dp4764
g4
VPacers
p4765
sg6
VBulls
p4766
sg8
F6.0
sg9
F205.0
sa(dp4767
g4
VPistons
p4768
sg6
VThunder
p4769
sg8
F2.0
sg9
F214.5
sa(dp4770
g4
VCavaliers
p4771
sg6
VRockets
p4772
sg8
F2.0
sg9
F212.0
sa(dp4773
g4
VWarriors
p4774
sg6
VWizards
p4775
sg8
F12.5
sg9
F226.5
sasS'2016-03-08'
p4776
(lp4777
(dp4778
g4
VPacers
p4779
sg6
VSpurs
p4780
sg8
F-6.5
sg9
F196.0
sa(dp4781
g4
VCavaliers
p4782
sg6
VGrizzlies
p4783
sg8
F15.0
sg9
F199.0
sa(dp4784
g4
VHornets
p4785
sg6
VTimberwolves
p4786
sg8
F10.0
sg9
F215.0
sa(dp4787
g4
VPelicans
p4788
sg6
Vsac
p4789
sg8
F-1.5
sg9
F219.5
sa(dp4790
g4
VBulls
p4791
sg6
VMilwaukee
p4792
sg8
F4.5
sg9
F212.5
sa(dp4793
g4
VMavericks
p4794
sg6
VClippers
p4795
sg8
F-5.5
sg9
F209.5
sa(dp4796
g4
VWarriors
p4797
sg6
VMagic
p4798
sg8
F15.5
sg9
F226.0
sasS'2015-12-26'
p4799
(lp4800
(dp4801
g4
VHeat
p4802
sg6
VPelicans
p4803
sg8
F4.5
sg9
F200.5
sa(dp4804
g4
VThunder
p4805
sg6
VBulls
p4806
sg8
F9.5
sg9
F206.5
sa(dp4807
g4
VWarriors
p4808
sg6
VCavaliers
p4809
sg8
F6.5
sg9
F206.5
sa(dp4810
g4
VRockets
p4811
sg6
VSpurs
p4812
sg8
F-7.5
sg9
F205.5
sa(dp4813
g4
VLakers
p4814
sg6
VClippers
p4815
sg8
F-12.5
sg9
F207.5
sasS'2016-03-06'
p4816
(lp4817
(dp4818
g4
VKnicks
p4819
sg6
VPistons
p4820
sg8
F-7.0
sg9
F201.5
sa(dp4821
g4
VWizards
p4822
sg6
VPacers
p4823
sg8
F2.0
sg9
F206.0
sa(dp4824
g4
VPelicans
p4825
sg6
VJazz
p4826
sg8
F1.5
sg9
F195.5
sa(dp4827
g4
VCavaliers
p4828
sg6
VCeltics
p4829
sg8
F8.0
sg9
F211.5
sa(dp4830
g4
VTimberwolves
p4831
sg6
VNets
p4832
sg8
F9.5
sg9
F210.5
sa(dp4833
g4
VBulls
p4834
sg6
VRockets
p4835
sg8
F1.5
sg9
F216.5
sa(dp4836
g4
VSpurs
p4837
sg6
Vsac
p4838
sg8
F11.5
sg9
F213.0
sa(dp4839
g4
VClippers
p4840
sg6
VHawks
p4841
sg8
F5.5
sg9
F202.0
sasS'2015-12-28'
p4842
(lp4843
(dp4844
g4
VGrizzlies
p4845
sg6
VLakers
p4846
sg8
F9.5
sg9
F195.5
sa(dp4847
g4
VCeltics
p4848
sg6
VKnicks
p4849
sg8
F8.5
sg9
F202.5
sa(dp4850
g4
VThunder
p4851
sg6
VNuggets
p4852
sg8
F16.5
sg9
F207.5
sa(dp4853
g4
Vsac
p4854
sg6
VTrail Blaze
p4855
sg8
F8.5
sg9
F209.5
sasS'2015-10-16'
p4856
(lp4857
(dp4858
g4
VCavaliers
p4859
sg6
VPacers
p4860
sg8
F-3.5
sg9
F197.5
sa(dp4861
g4
VWarriors
p4862
sg6
VRockets
p4863
sg8
F7.5
sg9
F212.0
sasS'2015-10-17'
p4864
(lp4865
(dp4866
g4
V76ers
p4867
sg6
VWizards
p4868
sg8
F-5.0
sg9
F206.0
sa(dp4869
g4
VKnicks
p4870
sg6
VCeltics
p4871
sg8
F-4.0
sg9
F204.0
sa(dp4872
g4
VGrizzlies
p4873
sg6
VThunder
p4874
sg8
F3.5
sg9
F190.0
sa(dp4875
g4
VMavericks
p4876
sg6
VHawks
p4877
sg8
F-5.0
sg9
F194.0
sa(dp4878
g4
VNuggets
p4879
sg6
VSuns
p4880
sg8
F2.5
sg9
F207.0
sasS'2015-10-14'
p4881
(lp4882
(dp4883
g4
VMagic
p4884
sg6
VHeat
p4885
sg8
F7.0
sg9
F192.5
sa(dp4886
g4
VPacers
p4887
sg6
VPistons
p4888
sg8
F1.5
sg9
F204.5
sa(dp4889
g4
VCavaliers
p4890
sg6
VMilwaukee
p4891
sg8
F-5.0
sg9
F189.0
sa(dp4892
g4
VThunder
p4893
sg6
VMavericks
p4894
sg8
F12.0
sg9
F204.5
sa(dp4895
g4
VLakers
p4896
sg6
Vsac
p4897
sg8
F-2.5
sg9
F198.0
sa(dp4898
g4
VSuns
p4899
sg6
VRockets
p4900
sg8
F4.0
sg9
F200.5
sa(dp4901
g4
VWarriors
p4902
sg6
VNuggets
p4903
sg8
F6.5
sg9
F207.5
sa(dp4904
g4
VClippers
p4905
sg6
VHornets
p4906
sg8
F5.5
sg9
F205.0
sasS'2015-10-15'
p4907
(lp4908
(dp4909
g4
VTimberwolves
p4910
sg6
VRaptors
p4911
sg8
F-5.5
sg9
F208.0
sa(dp4912
g4
VNets
p4913
sg6
VCeltics
p4914
sg8
F-3.0
sg9
F195.5
sa(dp4915
g4
VHawks
p4916
sg6
VSpurs
p4917
sg8
F3.5
sg9
F192.0
sa(dp4918
g4
VBulls
p4919
sg6
VPistons
p4920
sg8
F4.5
sg9
F206.5
sasS'2015-10-12'
p4921
(lp4922
(dp4923
g4
VWizards
p4924
sg6
VGRSA
p4925
sg8
F17.5
sg9
F195.5
sa(dp4926
g4
VRockets
p4927
sg6
VMagic
p4928
sg8
F5.5
sg9
F199.0
sa(dp4929
g4
VLakers
p4930
sg6
VHeat Haifa
p4931
sg8
F16.0
sg9
F197.5
sasS'2015-10-13'
p4932
(lp4933
(dp4934
g4
VCavaliers
p4935
sg6
VGrizzlies
p4936
sg8
F-3.5
sg9
F194.0
sa(dp4937
g4
VHeat
p4938
sg6
VSpurs
p4939
sg8
F-4.0
sg9
F191.0
sa(dp4940
g4
VKnicks
p4941
sg6
V76ers
p4942
sg8
F7.0
sg9
F199.0
sa(dp4943
g4
VRaptors
p4944
sg6
VTimberwolves
p4945
sg8
F6.0
sg9
F203.5
sa(dp4946
g4
VBulls
p4947
sg6
VPelicans
p4948
sg8
F3.0
sg9
F207.0
sa(dp4949
g4
VJazz
p4950
sg6
VTrail Blaze
p4951
sg8
F5.5
sg9
F192.5
sasS'2015-10-10'
p4952
(lp4953
(dp4954
g4
VWizards
p4955
sg6
VKnicks
p4956
sg8
F7.0
sg9
F201.0
sa(dp4957
g4
VPelicans
p4958
sg6
VHawks
p4959
sg8
F-4.0
sg9
F208.0
sa(dp4960
g4
VThunder
p4961
sg6
VFenerbahce Ulker
p4962
sg8
F14.5
sg9
F206.5
sa(dp4963
g4
VSuns
p4964
sg6
VJazz
p4965
sg8
F3.0
sg9
F191.5
sasS'2015-10-11'
p4966
(lp4967
(dp4968
g4
V76ers
p4969
sg6
VNets
p4970
sg8
F-4.5
sg9
F195.5
sa(dp4971
g4
VTimberwolves
p4972
sg6
VBulls
p4973
sg8
F-3.5
sg9
F201.0
sa(dp4974
g4
VMilwaukee
p4975
sg6
VPistons
p4976
sg8
F4.5
sg9
F191.0
sa(dp4977
g4
Vsac
p4978
sg6
VTrail Blaze
p4979
sg8
F5.0
sg9
F201.5
sa(dp4980
g4
VHornets
p4981
sg6
VClippers
p4982
sg8
F-5.0
sg9
F197.0
sasS'2015-10-18'
p4983
(lp4984
(dp4985
g4
VFlamengo
p4986
sg6
VMagic
p4987
sg8
F-21.0
sg9
F197.5
sa(dp4988
g4
VPelicans
p4989
sg6
Vsac
p4990
sg8
F-4.5
sg9
F205.0
sa(dp4991
g4
VHornets
p4992
sg6
VKnicks
p4993
sg8
F5.0
sg9
F192.0
sa(dp4994
g4
VRockets
p4995
sg6
VHeat
p4996
sg8
F3.5
sg9
F197.5
sa(dp4997
g4
VMilwaukee
p4998
sg6
VWizards
p4999
sg8
F5.0
sg9
F207.5
sa(dp5000
g4
VLakers
p5001
sg6
VWarriors
p5002
sg8
F-6.5
sg9
F205.5
sasS'2015-10-19'
p5003
(lp5004
(dp5005
g4
VNets
p5006
sg6
V76ers
p5007
sg8
F4.0
sg9
F196.0
sa(dp5008
g4
VSpurs
p5009
sg6
VPistons
p5010
sg8
F5.0
sg9
F198.5
sa(dp5011
g4
VRaptors
p5012
sg6
VCavaliers
p5013
sg8
F6.0
sg9
F199.5
sa(dp5014
g4
VGrizzlies
p5015
sg6
VTimberwolves
p5016
sg8
F5.5
sg9
F191.0
sa(dp5017
g4
VHawks
p5018
sg6
VHeat
p5019
sg8
F6.5
sg9
F190.5
sa(dp5020
g4
VThunder
p5021
sg6
VNuggets
p5022
sg8
F7.0
sg9
F208.0
sa(dp5023
g4
VTrail Blaze
p5024
sg6
VJazz
p5025
sg8
F6.5
sg9
F191.0
sasS'2015-12-10'
p5026
(lp5027
(dp5028
g4
VCeltics
p5029
sg6
VBulls
p5030
sg8
F3.5
sg9
F200.5
sa(dp5031
g4
VWizards
p5032
sg6
VRockets
p5033
sg8
F4.5
sg9
F213.5
sa(dp5034
g4
VHornets
p5035
sg6
VHeat
p5036
sg8
F-1.5
sg9
F191.5
sa(dp5037
g4
VPistons
p5038
sg6
VGrizzlies
p5039
sg8
F4.5
sg9
F193.5
sa(dp5040
g4
VRaptors
p5041
sg6
VSpurs
p5042
sg8
F-5.5
sg9
F187.5
sa(dp5043
g4
VMilwaukee
p5044
sg6
VClippers
p5045
sg8
F-5.5
sg9
F200.5
sa(dp5046
g4
VTimberwolves
p5047
sg6
VLakers
p5048
sg8
F7.5
sg9
F203.5
sa(dp5049
g4
VJazz
p5050
sg6
VKnicks
p5051
sg8
F2.5
sg9
F192.5
sa(dp5052
g4
VSuns
p5053
sg6
VMagic
p5054
sg8
F4.5
sg9
F206.5
sa(dp5055
g4
VMavericks
p5056
sg6
VHawks
p5057
sg8
F-1.5
sg9
F202.5
sasS'2015-01-30'
p5058
(lp5059
(dp5060
g4
VMagic
p5061
sg6
VMilwaukee
p5062
sg8
F-4.0
sg9
F204.5
sa(dp5063
g4
VPacers
p5064
sg6
VKnicks
p5065
sg8
F8.0
sg9
F187.5
sa(dp5066
g4
VGrizzlies
p5067
sg6
VNuggets
p5068
sg8
F9.5
sg9
F197.0
sa(dp5069
g4
VLakers
p5070
sg6
VBulls
p5071
sg8
F-9.5
sg9
F194.5
sasS'2015-01-31'
p5072
(lp5073
(dp5074
g4
V76ers
p5075
sg6
VTimberwolves
p5076
sg8
F-4.0
sg9
F193.0
sa(dp5077
g4
VCeltics
p5078
sg6
VRockets
p5079
sg8
F-7.0
sg9
F208.5
sa(dp5080
g4
VNets
p5081
sg6
VRaptors
p5082
sg8
F-7.5
sg9
F197.0
sa(dp5083
g4
VHawks
p5084
sg6
VTrail Blaze
p5085
sg8
F5.0
sg9
F203.5
sa(dp5086
g4
VCavaliers
p5087
sg6
Vsac
p5088
sg8
F10.5
sg9
F209.0
sa(dp5089
g4
VHeat
p5090
sg6
VMavericks
p5091
sg8
F-7.5
sg9
F191.0
sa(dp5092
g4
VPelicans
p5093
sg6
VClippers
p5094
sg8
F-7.5
sg9
F199.0
sa(dp5095
g4
VJazz
p5096
sg6
VWarriors
p5097
sg8
F-10.0
sg9
F206.0
sa(dp5098
g4
VSuns
p5099
sg6
VBulls
p5100
sg8
F7.0
sg9
F213.0
sasS'2016-02-19'
p5101
(lp5102
(dp5103
g4
VWizards
p5104
sg6
VJazz
p5105
sg8
F-2.0
sg9
F195.5
sa(dp5106
g4
VCavaliers
p5107
sg6
VBulls
p5108
sg8
F12.5
sg9
F205.5
sa(dp5109
g4
VClippers
p5110
sg6
VSpurs
p5111
sg8
F-1.0
sg9
F206.0
sasS'2016-02-12'
p5112
(lp5113
(dp5114
g4
VMilwaukee
p5115
sg6
VWizards
p5116
sg8
F1.5
sg9
F213.5
sa(dp5117
g4
VThunder
p5118
sg6
VPelicans
p5119
sg8
F12.0
sg9
F218.5
sasS'2016-02-10'
p5120
(lp5121
(dp5122
g4
VHeat
p5123
sg6
VSpurs
p5124
sg8
F-6.5
sg9
F196.0
sa(dp5125
g4
VKnicks
p5126
sg6
VWizards
p5127
sg8
F-1.5
sg9
F207.5
sa(dp5128
g4
VMilwaukee
p5129
sg6
VCeltics
p5130
sg8
F-4.5
sg9
F208.0
sa(dp5131
g4
VMavericks
p5132
sg6
VJazz
p5133
sg8
F1.0
sg9
F186.5
sa(dp5134
g4
VWarriors
p5135
sg6
VRockets
p5136
sg8
F14.0
sg9
F227.5
sasS'2016-02-11'
p5137
(lp5138
(dp5139
g4
VMagic
p5140
sg6
VSpurs
p5141
sg8
F-8.5
sg9
F202.0
sa(dp5142
g4
V76ers
p5143
sg6
Vsac
p5144
sg8
F-5.5
sg9
F220.0
sa(dp5145
g4
VPacers
p5146
sg6
VHornets
p5147
sg8
F2.5
sg9
F201.0
sa(dp5148
g4
VCeltics
p5149
sg6
VClippers
p5150
sg8
F2.0
sg9
F212.0
sa(dp5151
g4
VNets
p5152
sg6
VGrizzlies
p5153
sg8
F-3.5
sg9
F198.5
sa(dp5154
g4
VPistons
p5155
sg6
VNuggets
p5156
sg8
F5.0
sg9
F207.0
sa(dp5157
g4
VPelicans
p5158
sg6
VJazz
p5159
sg8
F1.5
sg9
F193.5
sa(dp5160
g4
VBulls
p5161
sg6
VHawks
p5162
sg8
F-4.0
sg9
F205.5
sa(dp5163
g4
VCavaliers
p5164
sg6
VLakers
p5165
sg8
F16.0
sg9
F210.5
sa(dp5166
g4
VTimberwolves
p5167
sg6
VRaptors
p5168
sg8
F-5.5
sg9
F207.5
sa(dp5169
g4
VSuns
p5170
sg6
VWarriors
p5171
sg8
F-15.5
sg9
F219.5
sa(dp5172
g4
VTrail Blaze
p5173
sg6
VRockets
p5174
sg8
F4.5
sg9
F215.5
sasS'2016-01-20'
p5175
(lp5176
(dp5177
g4
VHeat
p5178
sg6
VMilwaukee
p5179
sg8
F4.0
sg9
F191.5
sa(dp5180
g4
VPelicans
p5181
sg6
VTimberwolves
p5182
sg8
F5.5
sg9
F204.0
sa(dp5183
g4
VNuggets
p5184
sg6
VThunder
p5185
sg8
F-9.0
sg9
F213.5
sa(dp5186
g4
VSuns
p5187
sg6
VPacers
p5188
sg8
F-5.5
sg9
F207.5
sasS'2015-11-08'
p5189
(lp5190
(dp5191
g4
VBulls
p5192
sg6
VTimberwolves
p5193
sg8
F9.5
sg9
F201.5
sa(dp5194
g4
V76ers
p5195
sg6
VMagic
p5196
sg8
F-3.0
sg9
F191.0
sa(dp5197
g4
VHawks
p5198
sg6
VWizards
p5199
sg8
F4.5
sg9
F206.0
sa(dp5200
g4
VMilwaukee
p5201
sg6
VNets
p5202
sg8
F6.5
sg9
F192.5
sa(dp5203
g4
VMavericks
p5204
sg6
VPelicans
p5205
sg8
F5.0
sg9
F211.5
sa(dp5206
g4
VSpurs
p5207
sg6
VHornets
p5208
sg8
F9.0
sg9
F193.5
sa(dp5209
g4
VJazz
p5210
sg6
VGrizzlies
p5211
sg8
F2.5
sg9
F180.0
sa(dp5212
g4
Vsac
p5213
sg6
VWarriors
p5214
sg8
F-13.5
sg9
F220.5
sa(dp5215
g4
VClippers
p5216
sg6
VRockets
p5217
sg8
F5.5
sg9
F212.0
sasS'2015-03-19'
p5218
(lp5219
(dp5220
g4
V76ers
p5221
sg6
VPistons
p5222
sg8
F1.0
sg9
F195.0
sa(dp5223
g4
VCavaliers
p5224
sg6
VNets
p5225
sg8
F12.0
sg9
F208.0
sa(dp5226
g4
VHeat
p5227
sg6
VTrail Blaze
p5228
sg8
F-2.5
sg9
F203.0
sa(dp5229
g4
VRaptors
p5230
sg6
VTimberwolves
p5231
sg8
F11.0
sg9
F210.5
sa(dp5232
g4
VMilwaukee
p5233
sg6
VSpurs
p5234
sg8
F-5.5
sg9
F192.0
sa(dp5235
g4
VBulls
p5236
sg6
VPacers
p5237
sg8
F1.0
sg9
F189.0
sa(dp5238
g4
VMavericks
p5239
sg6
VMagic
p5240
sg8
F12.5
sg9
F205.5
sa(dp5241
g4
VThunder
p5242
sg6
VCeltics
p5243
sg8
F6.5
sg9
F212.0
sa(dp5244
g4
Vsac
p5245
sg6
VClippers
p5246
sg8
F-9.0
sg9
F214.0
sa(dp5247
g4
VJazz
p5248
sg6
VWizards
p5249
sg8
F3.0
sg9
F180.5
sa(dp5250
g4
VWarriors
p5251
sg6
VHawks
p5252
sg8
F7.0
sg9
F207.5
sasS'2015-11-02'
p5253
(lp5254
(dp5255
g4
VHornets
p5256
sg6
VHawks
p5257
sg8
F-2.0
sg9
F195.0
sa(dp5258
g4
VCeltics
p5259
sg6
VSpurs
p5260
sg8
F-5.5
sg9
F202.5
sa(dp5261
g4
VHeat
p5262
sg6
VRockets
p5263
sg8
F4.0
sg9
F207.5
sa(dp5264
g4
VRaptors
p5265
sg6
VMilwaukee
p5266
sg8
F6.0
sg9
F200.5
sa(dp5267
g4
VBulls
p5268
sg6
VMagic
p5269
sg8
F8.0
sg9
F199.0
sa(dp5270
g4
VThunder
p5271
sg6
VNuggets
p5272
sg8
F12.5
sg9
F213.0
sa(dp5273
g4
VLakers
p5274
sg6
VMavericks
p5275
sg8
F-4.0
sg9
F212.5
sasS'2015-11-03'
p5276
(lp5277
(dp5278
g4
V76ers
p5279
sg6
VCavaliers
p5280
sg8
F-12.5
sg9
F195.0
sa(dp5281
g4
VNets
p5282
sg6
VMilwaukee
p5283
sg8
F-1.0
sg9
F194.0
sa(dp5284
g4
VKnicks
p5285
sg6
VSpurs
p5286
sg8
F-7.0
sg9
F203.0
sa(dp5287
g4
VTimberwolves
p5288
sg6
VTrail Blaze
p5289
sg8
F3.5
sg9
F204.5
sa(dp5290
g4
VRockets
p5291
sg6
VThunder
p5292
sg8
F-4.5
sg9
F217.0
sa(dp5293
g4
VWarriors
p5294
sg6
VGrizzlies
p5295
sg8
F9.0
sg9
F204.5
sa(dp5296
g4
VClippers
p5297
sg6
VSuns
p5298
sg8
F9.0
sg9
F207.5
sasS'2015-11-01'
p5299
(lp5300
(dp5301
g4
VWizards
p5302
sg6
VKnicks
p5303
sg8
F7.5
sg9
F204.5
sa(dp5304
g4
VPacers
p5305
sg6
VJazz
p5306
sg8
F3.5
sg9
F193.5
sa(dp5307
g4
VPelicans
p5308
sg6
VWarriors
p5309
sg8
F-5.5
sg9
F211.5
sa(dp5310
g4
VGrizzlies
p5311
sg6
VNets
p5312
sg8
F12.0
sg9
F192.5
sa(dp5313
g4
VTrail Blaze
p5314
sg6
VSuns
p5315
sg8
F1.5
sg9
F204.0
sa(dp5316
g4
VClippers
p5317
sg6
Vsac
p5318
sg8
F10.5
sg9
F216.5
sasS'2015-11-06'
p5319
(lp5320
(dp5321
g4
VBulls
p5322
sg6
VThunder
p5323
sg8
F1.0
sg9
F212.0
sa(dp5324
g4
VTimberwolves
p5325
sg6
VHeat
p5326
sg8
F-4.5
sg9
F197.5
sa(dp5327
g4
VMavericks
p5328
sg6
VHornets
p5329
sg8
F4.0
sg9
F201.5
sa(dp5330
g4
VNuggets
p5331
sg6
VJazz
p5332
sg8
F-3.0
sg9
F191.0
sa(dp5333
g4
VTrail Blaze
p5334
sg6
VGrizzlies
p5335
sg8
F-4.5
sg9
F193.5
sasS'2015-11-07'
p5336
(lp5337
(dp5338
g4
VMagic
p5339
sg6
VRaptors
p5340
sg8
F-5.5
sg9
F196.5
sa(dp5341
g4
VCeltics
p5342
sg6
VWizards
p5343
sg8
F1.5
sg9
F210.0
sa(dp5344
g4
VNets
p5345
sg6
VLakers
p5346
sg8
F3.5
sg9
F207.5
sa(dp5347
g4
VKnicks
p5348
sg6
VMilwaukee
p5349
sg8
F1.5
sg9
F196.5
sa(dp5350
g4
VCavaliers
p5351
sg6
V76ers
p5352
sg8
F13.5
sg9
F196.0
sa(dp5353
g4
VPacers
p5354
sg6
VHeat
p5355
sg8
F-1.0
sg9
F195.0
sa(dp5356
g4
VPelicans
p5357
sg6
VHawks
p5358
sg8
F-2.5
sg9
F206.5
sa(dp5359
g4
VSuns
p5360
sg6
VPistons
p5361
sg8
F4.0
sg9
F198.5
sa(dp5362
g4
Vsac
p5363
sg6
VRockets
p5364
sg8
F-4.0
sg9
F218.0
sa(dp5365
g4
VWarriors
p5366
sg6
VNuggets
p5367
sg8
F17.5
sg9
F211.0
sasS'2015-11-04'
p5368
(lp5369
(dp5370
g4
VHornets
p5371
sg6
VBulls
p5372
sg8
F-4.0
sg9
F194.0
sa(dp5373
g4
VHeat
p5374
sg6
VHawks
p5375
sg8
F4.0
sg9
F197.5
sa(dp5376
g4
VPistons
p5377
sg6
VPacers
p5378
sg8
F4.5
sg9
F200.5
sa(dp5379
g4
VPelicans
p5380
sg6
VMagic
p5381
sg8
F5.0
sg9
F205.5
sa(dp5382
g4
VMavericks
p5383
sg6
VRaptors
p5384
sg8
F-2.0
sg9
F205.5
sa(dp5385
g4
Vsac
p5386
sg6
VGrizzlies
p5387
sg8
F-4.0
sg9
F197.0
sa(dp5388
g4
VLakers
p5389
sg6
VNuggets
p5390
sg8
F2.5
sg9
F203.5
sasS'2015-11-05'
p5391
(lp5392
(dp5393
g4
VWizards
p5394
sg6
VSpurs
p5395
sg8
F-4.0
sg9
F201.0
sa(dp5396
g4
VPacers
p5397
sg6
VCeltics
p5398
sg8
F-2.0
sg9
F207.0
sa(dp5399
g4
VMilwaukee
p5400
sg6
V76ers
p5401
sg8
F8.5
sg9
F195.0
sa(dp5402
g4
VHawks
p5403
sg6
VNets
p5404
sg8
F7.0
sg9
F197.5
sa(dp5405
g4
VCavaliers
p5406
sg6
VKnicks
p5407
sg8
F10.5
sg9
F205.0
sa(dp5408
g4
VRockets
p5409
sg6
VMagic
p5410
sg8
F9.0
sg9
F207.5
sa(dp5411
g4
VThunder
p5412
sg6
VRaptors
p5413
sg8
F8.0
sg9
F213.0
sa(dp5414
g4
VJazz
p5415
sg6
VTrail Blaze
p5416
sg8
F7.0
sg9
F189.5
sa(dp5417
g4
VSuns
p5418
sg6
Vsac
p5419
sg8
F9.5
sg9
F209.0
sa(dp5420
g4
VWarriors
p5421
sg6
VClippers
p5422
sg8
F7.5
sg9
F218.5
sasS'2014-12-31'
p5423
(lp5424
(dp5425
g4
VMagic
p5426
sg6
VPistons
p5427
sg8
F-1.5
sg9
F198.0
sa(dp5428
g4
VHawks
p5429
sg6
VCavaliers
p5430
sg8
F7.0
sg9
F202.5
sa(dp5431
g4
VPelicans
p5432
sg6
VSuns
p5433
sg8
F2.0
sg9
F213.5
sa(dp5434
g4
VBulls
p5435
sg6
VNets
p5436
sg8
F10.0
sg9
F197.0
sa(dp5437
g4
VGrizzlies
p5438
sg6
VSpurs
p5439
sg8
F1.0
sg9
F195.0
sa(dp5440
g4
VMavericks
p5441
sg6
VWizards
p5442
sg8
F5.0
sg9
F209.5
sa(dp5443
g4
VJazz
p5444
sg6
VTimberwolves
p5445
sg8
F7.0
sg9
F202.5
sa(dp5446
g4
VNuggets
p5447
sg6
VLakers
p5448
sg8
F5.5
sg9
F214.5
sa(dp5449
g4
VTrail Blaze
p5450
sg6
VRaptors
p5451
sg8
F3.5
sg9
F209.5
sa(dp5452
g4
VWarriors
p5453
sg6
V76ers
p5454
sg8
F17.5
sg9
F209.5
sasS'2014-12-30'
p5455
(lp5456
(dp5457
g4
VPacers
p5458
sg6
VBulls
p5459
sg8
F-5.0
sg9
F193.5
sa(dp5460
g4
VHornets
p5461
sg6
VMilwaukee
p5462
sg8
F3.0
sg9
F198.0
sa(dp5463
g4
VHeat
p5464
sg6
VMagic
p5465
sg8
F5.5
sg9
F189.5
sa(dp5466
g4
VNets
p5467
sg6
Vsac
p5468
sg8
F1.0
sg9
F204.0
sa(dp5469
g4
VRockets
p5470
sg6
VWizards
p5471
sg8
F3.5
sg9
F200.5
sa(dp5472
g4
VClippers
p5473
sg6
VJazz
p5474
sg8
F12.0
sg9
F202.5
sasS'2016-01-28'
p5475
(lp5476
(dp5477
g4
VCavaliers
p5478
sg6
VSuns
p5479
sg8
F18.5
sg9
F210.5
sa(dp5480
g4
VCeltics
p5481
sg6
VNuggets
p5482
sg8
F10.0
sg9
F215.0
sa(dp5483
g4
VPistons
p5484
sg6
V76ers
p5485
sg8
F11.5
sg9
F207.0
sa(dp5486
g4
VHawks
p5487
sg6
VClippers
p5488
sg8
F5.0
sg9
F206.0
sa(dp5489
g4
VSpurs
p5490
sg6
VRockets
p5491
sg8
F9.0
sg9
F209.5
sa(dp5492
g4
VTimberwolves
p5493
sg6
VThunder
p5494
sg8
F-6.0
sg9
F214.0
sa(dp5495
g4
VJazz
p5496
sg6
VHornets
p5497
sg8
F6.5
sg9
F193.0
sa(dp5498
g4
VWarriors
p5499
sg6
VMavericks
p5500
sg8
F17.5
sg9
F213.0
sasS'2016-01-29'
p5501
(lp5502
(dp5503
g4
VWizards
p5504
sg6
VNuggets
p5505
sg8
F7.5
sg9
F212.0
sa(dp5506
g4
VPacers
p5507
sg6
VHawks
p5508
sg8
F2.5
sg9
F203.0
sa(dp5509
g4
VPelicans
p5510
sg6
Vsac
p5511
sg8
F-6.0
sg9
F215.0
sa(dp5512
g4
VRaptors
p5513
sg6
VKnicks
p5514
sg8
F12.0
sg9
F197.5
sa(dp5515
g4
VGrizzlies
p5516
sg6
VMilwaukee
p5517
sg8
F5.5
sg9
F192.0
sa(dp5518
g4
VLakers
p5519
sg6
VBulls
p5520
sg8
F-9.0
sg9
F199.0
sasS'2015-12-21'
p5521
(lp5522
(dp5523
g4
VHeat
p5524
sg6
VTrail Blaze
p5525
sg8
F5.5
sg9
F192.5
sa(dp5526
g4
VNets
p5527
sg6
VTimberwolves
p5528
sg8
F-1.5
sg9
F202.5
sa(dp5529
g4
VCavaliers
p5530
sg6
V76ers
p5531
sg8
F16.5
sg9
F197.5
sa(dp5532
g4
VSuns
p5533
sg6
VMilwaukee
p5534
sg8
F7.5
sg9
F203.5
sa(dp5535
g4
VMagic
p5536
sg6
VHawks
p5537
sg8
F-1.5
sg9
F201.5
sa(dp5538
g4
VRaptors
p5539
sg6
Vsac
p5540
sg8
F5.5
sg9
F207.5
sa(dp5541
g4
VNuggets
p5542
sg6
VPelicans
p5543
sg8
F1.5
sg9
F204.5
sasS'2015-12-20'
p5544
(lp5545
(dp5546
g4
VThunder
p5547
sg6
VLakers
p5548
sg8
F16.0
sg9
F208.0
sa(dp5549
g4
VWizards
p5550
sg6
VHornets
p5551
sg8
F-1.5
sg9
F206.5
sa(dp5552
g4
VKnicks
p5553
sg6
VBulls
p5554
sg8
F1.5
sg9
F194.5
sa(dp5555
g4
VRockets
p5556
sg6
VClippers
p5557
sg8
F-2.5
sg9
F214.5
sa(dp5558
g4
VGrizzlies
p5559
sg6
VPacers
p5560
sg8
F-1.5
sg9
F200.5
sasS'2015-12-23'
p5561
(lp5562
(dp5563
g4
V76ers
p5564
sg6
VGrizzlies
p5565
sg8
F-9.5
sg9
F193.5
sa(dp5566
g4
VHeat
p5567
sg6
VPistons
p5568
sg8
F2.5
sg9
F195.5
sa(dp5569
g4
VRaptors
p5570
sg6
VMavericks
p5571
sg8
F4.5
sg9
F196.5
sa(dp5572
g4
VNuggets
p5573
sg6
VLakers
p5574
sg8
F5.5
sg9
F204.5
sasS'2015-12-22'
p5575
(lp5576
(dp5577
g4
VWizards
p5578
sg6
Vsac
p5579
sg8
F2.5
sg9
F218.5
sa(dp5580
g4
VCeltics
p5581
sg6
VTimberwolves
p5582
sg8
F7.5
sg9
F210.5
sa(dp5583
g4
VKnicks
p5584
sg6
VMagic
p5585
sg8
F2.5
sg9
F198.5
sa(dp5586
g4
VHawks
p5587
sg6
VTrail Blaze
p5588
sg8
F10.5
sg9
F195.5
sa(dp5589
g4
VBulls
p5590
sg6
VNets
p5591
sg8
F10.5
sg9
F196.5
sa(dp5592
g4
VRockets
p5593
sg6
VHornets
p5594
sg8
F3.5
sg9
F207.5
sa(dp5595
g4
VSpurs
p5596
sg6
VPacers
p5597
sg8
F8.5
sg9
F198.5
sa(dp5598
g4
VJazz
p5599
sg6
VSuns
p5600
sg8
F4.5
sg9
F197.5
sa(dp5601
g4
VClippers
p5602
sg6
VThunder
p5603
sg8
F-2.5
sg9
F209.5
sasS'2015-12-24'
p5604
(lp5605
(dp5606
g4
VMagic
p5607
sg6
VRockets
p5608
sg8
F1.5
sg9
F207.5
sa(dp5609
g4
VWizards
p5610
sg6
VGrizzlies
p5611
sg8
F-1.5
sg9
F200.5
sa(dp5612
g4
VPacers
p5613
sg6
Vsac
p5614
sg8
F6.5
sg9
F215.5
sa(dp5615
g4
VCavaliers
p5616
sg6
VKnicks
p5617
sg8
F12.5
sg9
F195.5
sa(dp5618
g4
VHornets
p5619
sg6
VCeltics
p5620
sg8
F2.5
sg9
F204.5
sa(dp5621
g4
VNets
p5622
sg6
VMavericks
p5623
sg8
F-3.0
sg9
F199.0
sa(dp5624
g4
VPelicans
p5625
sg6
VTrail Blaze
p5626
sg8
F7.5
sg9
F204.5
sa(dp5627
g4
VMilwaukee
p5628
sg6
V76ers
p5629
sg8
F10.5
sg9
F196.5
sa(dp5630
g4
VHawks
p5631
sg6
VPistons
p5632
sg8
F6.5
sg9
F200.5
sa(dp5633
g4
VTimberwolves
p5634
sg6
VSpurs
p5635
sg8
F-10.5
sg9
F194.5
sa(dp5636
g4
VSuns
p5637
sg6
VNuggets
p5638
sg8
F8.5
sg9
F208.5
sa(dp5639
g4
VLakers
p5640
sg6
VThunder
p5641
sg8
F-13.5
sg9
F207.5
sa(dp5642
g4
VWarriors
p5643
sg6
VJazz
p5644
sg8
F13.5
sg9
F207.5
sasS'2015-12-27'
p5645
(lp5646
(dp5647
g4
VNets
p5648
sg6
VWizards
p5649
sg8
F-2.5
sg9
F205.5
sa(dp5650
g4
VMilwaukee
p5651
sg6
VRaptors
p5652
sg8
F-2.5
sg9
F192.5
sa(dp5653
g4
VMagic
p5654
sg6
VHeat
p5655
sg8
F5.5
sg9
F192.5
sa(dp5656
g4
VPelicans
p5657
sg6
VRockets
p5658
sg8
F-1.5
sg9
F210.5
sa(dp5659
g4
VHornets
p5660
sg6
VGrizzlies
p5661
sg8
F2.5
sg9
F192.5
sa(dp5662
g4
VPistons
p5663
sg6
VCeltics
p5664
sg8
F-1.5
sg9
F204.5
sa(dp5665
g4
VHawks
p5666
sg6
VKnicks
p5667
sg8
F7.5
sg9
F203.5
sa(dp5668
g4
VTimberwolves
p5669
sg6
VPacers
p5670
sg8
F-3.5
sg9
F206.5
sa(dp5671
g4
VSpurs
p5672
sg6
VNuggets
p5673
sg8
F14.5
sg9
F194.5
sa(dp5674
g4
VMavericks
p5675
sg6
VBulls
p5676
sg8
F1.5
sg9
F200.5
sa(dp5677
g4
VJazz
p5678
sg6
VClippers
p5679
sg8
F-1.5
sg9
F192.5
sa(dp5680
g4
VSuns
p5681
sg6
V76ers
p5682
sg8
F10.5
sg9
F205.5
sa(dp5683
g4
VTrail Blaze
p5684
sg6
VCavaliers
p5685
sg8
F-7.5
sg9
F195.5
sasS'2016-03-09'
p5686
(lp5687
(dp5688
g4
VRaptors
p5689
sg6
VNets
p5690
sg8
F13.0
sg9
F208.0
sa(dp5691
g4
VTimberwolves
p5692
sg6
VSpurs
p5693
sg8
F-10.5
sg9
F206.5
sa(dp5694
g4
VJazz
p5695
sg6
VHawks
p5696
sg8
F2.5
sg9
F192.5
sa(dp5697
g4
VNuggets
p5698
sg6
VKnicks
p5699
sg8
F1.0
sg9
F205.5
sa(dp5700
g4
VTrail Blaze
p5701
sg6
VWizards
p5702
sg8
F5.5
sg9
F213.5
sa(dp5703
g4
VLakers
p5704
sg6
VMagic
p5705
sg8
F-3.5
sg9
F213.0
sasS'2015-12-29'
p5706
(lp5707
(dp5708
g4
VMagic
p5709
sg6
VPelicans
p5710
sg8
F4.5
sg9
F204.5
sa(dp5711
g4
VWizards
p5712
sg6
VClippers
p5713
sg8
F1.5
sg9
F206.5
sa(dp5714
g4
VPacers
p5715
sg6
VHawks
p5716
sg8
F1.5
sg9
F204.5
sa(dp5717
g4
VHornets
p5718
sg6
VLakers
p5719
sg8
F12.5
sg9
F204.5
sa(dp5720
g4
VHeat
p5721
sg6
VNets
p5722
sg8
F7.5
sg9
F195.5
sa(dp5723
g4
VBulls
p5724
sg6
VRaptors
p5725
sg8
F1.5
sg9
F198.5
sa(dp5726
g4
VMavericks
p5727
sg6
VMilwaukee
p5728
sg8
F5.5
sg9
F202.5
sa(dp5729
g4
VSpurs
p5730
sg6
VTimberwolves
p5731
sg8
F13.5
sg9
F195.5
sa(dp5732
g4
VJazz
p5733
sg6
V76ers
p5734
sg8
F8.5
sg9
F195.5
sa(dp5735
g4
VSuns
p5736
sg6
VCavaliers
p5737
sg8
F-9.5
sg9
F199.5
sa(dp5738
g4
VWarriors
p5739
sg6
Vsac
p5740
sg8
F14.5
sg9
F219.5
sasS'2016-03-07'
p5741
(lp5742
(dp5743
g4
VLakers
p5744
sg6
VWarriors
p5745
sg8
F-17.5
sg9
F221.5
sa(dp5746
g4
VMilwaukee
p5747
sg6
VThunder
p5748
sg8
F-7.0
sg9
F219.5
sa(dp5749
g4
VGrizzlies
p5750
sg6
VSuns
p5751
sg8
F9.0
sg9
F205.0
sa(dp5752
g4
VNuggets
p5753
sg6
VMavericks
p5754
sg8
F-4.0
sg9
F209.5
sa(dp5755
g4
VHeat
p5756
sg6
V76ers
p5757
sg8
F13.5
sg9
F209.0
sa(dp5758
g4
VPistons
p5759
sg6
VTrail Blaze
p5760
sg8
F-1.5
sg9
F207.5
sa(dp5761
g4
VRaptors
p5762
sg6
VRockets
p5763
sg8
F8.0
sg9
F214.5
sasS'2016-03-04'
p5764
(lp5765
(dp5766
g4
VHeat
p5767
sg6
VSuns
p5768
sg8
F14.5
sg9
F208.5
sa(dp5769
g4
VPelicans
p5770
sg6
VSpurs
p5771
sg8
F-10.0
sg9
F207.5
sa(dp5772
g4
VMavericks
p5773
sg6
Vsac
p5774
sg8
F6.5
sg9
F223.5
sa(dp5775
g4
VWarriors
p5776
sg6
VThunder
p5777
sg8
F7.5
sg9
F230.0
sasS'2016-03-05'
p5778
(lp5779
(dp5780
g4
VMagic
p5781
sg6
VSuns
p5782
sg8
F12.5
sg9
F216.5
sa(dp5783
g4
V76ers
p5784
sg6
VHeat
p5785
sg8
F-9.5
sg9
F209.0
sa(dp5786
g4
VHornets
p5787
sg6
VPacers
p5788
sg8
F3.0
sg9
F202.0
sa(dp5789
g4
VCeltics
p5790
sg6
VKnicks
p5791
sg8
F10.0
sg9
F210.0
sa(dp5792
g4
VRaptors
p5793
sg6
VTrail Blaze
p5794
sg8
F6.0
sg9
F207.5
sa(dp5795
g4
VMilwaukee
p5796
sg6
VTimberwolves
p5797
sg8
F5.0
sg9
F215.0
sa(dp5798
g4
VCavaliers
p5799
sg6
VWizards
p5800
sg8
F8.0
sg9
F210.5
sa(dp5801
g4
VGrizzlies
p5802
sg6
VJazz
p5803
sg8
F-1.0
sg9
F192.0
sa(dp5804
g4
VNuggets
p5805
sg6
VNets
p5806
sg8
F5.5
sg9
F209.0
sa(dp5807
g4
VLakers
p5808
sg6
VHawks
p5809
sg8
F-11.0
sg9
F203.5
sasS'2016-03-02'
p5810
(lp5811
(dp5812
g4
VHornets
p5813
sg6
VSuns
p5814
sg8
F12.5
sg9
F211.0
sa(dp5815
g4
VHeat
p5816
sg6
VBulls
p5817
sg8
F6.0
sg9
F202.0
sa(dp5818
g4
VKnicks
p5819
sg6
VTrail Blaze
p5820
sg8
F-4.5
sg9
F210.0
sa(dp5821
g4
VMavericks
p5822
sg6
VMagic
p5823
sg8
F4.5
sg9
F214.5
sa(dp5824
g4
VLakers
p5825
sg6
VNets
p5826
sg8
F-1.0
sg9
F212.0
sa(dp5827
g4
VWarriors
p5828
sg6
VHawks
p5829
sg8
F5.0
sg9
F213.5
sasS'2016-03-03'
p5830
(lp5831
(dp5832
g4
VMagic
p5833
sg6
VBulls
p5834
sg8
F5.0
sg9
F216.5
sa(dp5835
g4
V76ers
p5836
sg6
VHornets
p5837
sg8
F-10.0
sg9
F209.5
sa(dp5838
g4
VCeltics
p5839
sg6
VTrail Blaze
p5840
sg8
F6.5
sg9
F220.0
sa(dp5841
g4
VRaptors
p5842
sg6
VJazz
p5843
sg8
F5.5
sg9
F193.5
sa(dp5844
g4
VMilwaukee
p5845
sg6
VPacers
p5846
sg8
F-3.0
sg9
F207.0
sa(dp5847
g4
VSpurs
p5848
sg6
VPistons
p5849
sg8
F11.0
sg9
F201.5
sa(dp5850
g4
VTimberwolves
p5851
sg6
VWizards
p5852
sg8
F-3.0
sg9
F220.5
sa(dp5853
g4
VRockets
p5854
sg6
VPelicans
p5855
sg8
F6.0
sg9
F223.0
sa(dp5856
g4
VGrizzlies
p5857
sg6
Vsac
p5858
sg8
F3.5
sg9
F215.0
sa(dp5859
g4
VNuggets
p5860
sg6
VLakers
p5861
sg8
F8.5
sg9
F213.0
sa(dp5862
g4
VClippers
p5863
sg6
VThunder
p5864
sg8
F-1.5
sg9
F218.0
sasS'2016-03-01'
p5865
(lp5866
(dp5867
g4
VWizards
p5868
sg6
V76ers
p5869
sg8
F13.0
sg9
F215.0
sa(dp5870
g4
VCavaliers
p5871
sg6
VPacers
p5872
sg8
F7.5
sg9
F202.5
sa(dp5873
g4
VCeltics
p5874
sg6
VJazz
p5875
sg8
F4.5
sg9
F205.0
sa(dp5876
g4
VMilwaukee
p5877
sg6
VRockets
p5878
sg8
F-3.0
sg9
F215.0
sa(dp5879
g4
VNuggets
p5880
sg6
VGrizzlies
p5881
sg8
F-1.0
sg9
F203.5
sa(dp5882
g4
Vsac
p5883
sg6
VThunder
p5884
sg8
F-8.5
sg9
F227.5
sa(dp5885
g4
VClippers
p5886
sg6
VNets
p5887
sg8
F11.5
sg9
F213.5
sasS'2016-01-19'
p5888
(lp5889
(dp5890
g4
VKnicks
p5891
sg6
V76ers
p5892
sg8
F10.0
sg9
F200.5
sa(dp5893
g4
VWizards
p5894
sg6
VTrail Blaze
p5895
sg8
F4.0
sg9
F208.5
sa(dp5896
g4
VHornets
p5897
sg6
VJazz
p5898
sg8
F3.5
sg9
F186.0
sa(dp5899
g4
VGrizzlies
p5900
sg6
VPelicans
p5901
sg8
F4.5
sg9
F193.0
sa(dp5902
g4
VPistons
p5903
sg6
VBulls
p5904
sg8
F3.0
sg9
F201.0
sa(dp5905
g4
VHawks
p5906
sg6
VMagic
p5907
sg8
F7.5
sg9
F198.0
sa(dp5908
g4
VRaptors
p5909
sg6
VNets
p5910
sg8
F10.5
sg9
F195.0
sa(dp5911
g4
VCavaliers
p5912
sg6
VWarriors
p5913
sg8
F3.5
sg9
F210.0
sa(dp5914
g4
VMavericks
p5915
sg6
VCeltics
p5916
sg8
F-2.5
sg9
F203.0
sa(dp5917
g4
VClippers
p5918
sg6
VRockets
p5919
sg8
F5.5
sg9
F209.5
sasS'2016-01-18'
p5920
(lp5921
(dp5922
g4
VTimberwolves
p5923
sg6
VSuns
p5924
sg8
F4.0
sg9
F206.5
sa(dp5925
g4
VSpurs
p5926
sg6
VMavericks
p5927
sg8
F12.5
sg9
F196.0
sa(dp5928
g4
VThunder
p5929
sg6
VHeat
p5930
sg8
F10.0
sg9
F201.0
sa(dp5931
g4
VNuggets
p5932
sg6
VPacers
p5933
sg8
F-2.0
sg9
F199.5
sa(dp5934
g4
VLakers
p5935
sg6
VRockets
p5936
sg8
F-9.0
sg9
F205.5
sasS'2016-01-13'
p5937
(lp5938
(dp5939
g4
VPacers
p5940
sg6
VSuns
p5941
sg8
F15.5
sg9
F197.5
sa(dp5942
g4
VKnicks
p5943
sg6
VCeltics
p5944
sg8
F-1.5
sg9
F201.0
sa(dp5945
g4
VPistons
p5946
sg6
VSpurs
p5947
sg8
F-6.5
sg9
F196.5
sa(dp5948
g4
VMilwaukee
p5949
sg6
VBulls
p5950
sg8
F-3.5
sg9
F202.5
sa(dp5951
g4
VTimberwolves
p5952
sg6
VThunder
p5953
sg8
F-10.5
sg9
F210.0
sa(dp5954
g4
VGrizzlies
p5955
sg6
VRockets
p5956
sg8
F-2.0
sg9
F196.0
sa(dp5957
g4
VMavericks
p5958
sg6
VCavaliers
p5959
sg8
F-6.0
sg9
F200.0
sa(dp5960
g4
VLakers
p5961
sg6
VPelicans
p5962
sg8
F-2.0
sg9
F204.0
sasS'2016-01-12'
p5963
(lp5964
(dp5965
g4
VNets
p5966
sg6
VSpurs
p5967
sg8
F-14.5
sg9
F195.0
sa(dp5968
g4
VBulls
p5969
sg6
VWizards
p5970
sg8
F9.0
sg9
F207.5
sa(dp5971
g4
VWarriors
p5972
sg6
VHeat
p5973
sg8
F14.5
sg9
F209.5
sasS'2016-01-11'
p5974
(lp5975
(dp5976
g4
VClippers
p5977
sg6
VPelicans
p5978
sg8
F9.5
sg9
F204.5
sa(dp5979
g4
VTimberwolves
p5980
sg6
VMavericks
p5981
sg8
F-4.5
sg9
F199.0
sa(dp5982
g4
V76ers
p5983
sg6
VCavaliers
p5984
sg8
F-16.0
sg9
F206.5
sa(dp5985
g4
VGrizzlies
p5986
sg6
VCeltics
p5987
sg8
F-3.0
sg9
F192.0
sa(dp5988
g4
VRockets
p5989
sg6
VPacers
p5990
sg8
F2.5
sg9
F207.0
sa(dp5991
g4
VKnicks
p5992
sg6
VMilwaukee
p5993
sg8
F5.5
sg9
F197.0
sa(dp5994
g4
VNuggets
p5995
sg6
VHornets
p5996
sg8
F-1.5
sg9
F198.5
sa(dp5997
g4
VTrail Blaze
p5998
sg6
VThunder
p5999
sg8
F-8.0
sg9
F215.5
sa(dp6000
g4
VLakers
p6001
sg6
VJazz
p6002
sg8
F-3.5
sg9
F191.0
sasS'2016-01-10'
p6003
(lp6004
(dp6005
g4
VClippers
p6006
sg6
VHornets
p6007
sg8
F8.5
sg9
F203.5
sa(dp6008
g4
VHawks
p6009
sg6
VBulls
p6010
sg8
F2.5
sg9
F209.0
sa(dp6011
g4
VMagic
p6012
sg6
VWizards
p6013
sg8
F3.5
sg9
F199.5
sa(dp6014
g4
V76ers
p6015
sg6
VRaptors
p6016
sg8
F-8.5
sg9
F202.0
sa(dp6017
g4
VPistons
p6018
sg6
VNets
p6019
sg8
F11.0
sg9
F195.5
sa(dp6020
g4
VJazz
p6021
sg6
VHeat
p6022
sg8
F-1.0
sg9
F183.5
sa(dp6023
g4
Vsac
p6024
sg6
VWarriors
p6025
sg8
F-8.5
sg9
F224.5
sasS'2016-01-17'
p6026
(lp6027
(dp6028
g4
VHornets
p6029
sg6
VMilwaukee
p6030
sg8
F5.5
sg9
F197.0
sa(dp6031
g4
V76ers
p6032
sg6
VTrail Blaze
p6033
sg8
F-6.0
sg9
F207.0
sa(dp6034
g4
VWizards
p6035
sg6
VCeltics
p6036
sg8
F-1.5
sg9
F211.5
sa(dp6037
g4
VPistons
p6038
sg6
VWarriors
p6039
sg8
F-7.0
sg9
F216.0
sa(dp6040
g4
VHawks
p6041
sg6
VNets
p6042
sg8
F10.0
sg9
F206.5
sa(dp6043
g4
VGrizzlies
p6044
sg6
VKnicks
p6045
sg8
F6.0
sg9
F186.5
sa(dp6046
g4
VJazz
p6047
sg6
VLakers
p6048
sg8
F9.0
sg9
F190.0
sa(dp6049
g4
VClippers
p6050
sg6
Vsac
p6051
sg8
F3.5
sg9
F217.5
sasS'2016-01-16'
p6052
(lp6053
(dp6054
g4
VPacers
p6055
sg6
VWizards
p6056
sg8
F7.0
sg9
F209.0
sa(dp6057
g4
VThunder
p6058
sg6
VTimberwolves
p6059
sg8
F13.0
sg9
F210.0
sa(dp6060
g4
VCeltics
p6061
sg6
VSuns
p6062
sg8
F9.5
sg9
F210.0
sa(dp6063
g4
VNets
p6064
sg6
VTrail Blaze
p6065
sg8
F-4.0
sg9
F204.5
sa(dp6066
g4
VPelicans
p6067
sg6
VHornets
p6068
sg8
F3.5
sg9
F202.0
sa(dp6069
g4
VMilwaukee
p6070
sg6
VHawks
p6071
sg8
F-5.0
sg9
F206.5
sa(dp6072
g4
VBulls
p6073
sg6
VMavericks
p6074
sg8
F1.0
sg9
F201.0
sa(dp6075
g4
VNuggets
p6076
sg6
VHeat
p6077
sg8
F-1.5
sg9
F189.5
sa(dp6078
g4
VRockets
p6079
sg6
VCavaliers
p6080
sg8
F-2.0
sg9
F204.5
sasS'2016-01-15'
p6081
(lp6082
(dp6083
g4
VMagic
p6084
sg6
VRaptors
p6085
sg8
F-4.5
sg9
F193.5
sa(dp6086
g4
V76ers
p6087
sg6
VBulls
p6088
sg8
F-8.5
sg9
F202.5
sa(dp6089
g4
VSpurs
p6090
sg6
VCavaliers
p6091
sg8
F6.5
sg9
F195.5
sa(dp6092
g4
VGrizzlies
p6093
sg6
VPistons
p6094
sg8
F-2.0
sg9
F192.0
sa(dp6095
g4
VJazz
p6096
sg6
Vsac
p6097
sg8
F3.0
sg9
F200.5
sa(dp6098
g4
VWarriors
p6099
sg6
VLakers
p6100
sg8
F18.0
sg9
F216.0
sasS'2016-01-14'
p6101
(lp6102
(dp6103
g4
VWizards
p6104
sg6
VMilwaukee
p6105
sg8
F5.5
sg9
F206.5
sa(dp6106
g4
VHornets
p6107
sg6
VHawks
p6108
sg8
F-3.0
sg9
F207.0
sa(dp6109
g4
VNets
p6110
sg6
VKnicks
p6111
sg8
F-3.5
sg9
F191.5
sa(dp6112
g4
VCeltics
p6113
sg6
VPacers
p6114
sg8
F3.5
sg9
F204.0
sa(dp6115
g4
VRockets
p6116
sg6
VTimberwolves
p6117
sg8
F7.5
sg9
F208.0
sa(dp6118
g4
VThunder
p6119
sg6
VMavericks
p6120
sg8
F12.5
sg9
F206.5
sa(dp6121
g4
VNuggets
p6122
sg6
VWarriors
p6123
sg8
F-9.5
sg9
F215.5
sa(dp6124
g4
Vsac
p6125
sg6
VPelicans
p6126
sg8
F6.5
sg9
F216.0
sa(dp6127
g4
VTrail Blaze
p6128
sg6
VJazz
p6129
sg8
F3.5
sg9
F193.5
sa(dp6130
g4
VClippers
p6131
sg6
VHeat
p6132
sg8
F3.0
sg9
F196.5
sasS'2015-03-23'
p6133
(lp6134
(dp6135
g4
VMilwaukee
p6136
sg6
VCavaliers
p6137
sg8
F-8.0
sg9
F196.0
sa(dp6138
g4
VHawks
p6139
sg6
VSpurs
p6140
sg8
F1.5
sg9
F200.5
sa(dp6141
g4
VThunder
p6142
sg6
VHeat
p6143
sg8
F3.5
sg9
F212.5
sa(dp6144
g4
VClippers
p6145
sg6
VPelicans
p6146
sg8
F9.5
sg9
F200.0
sa(dp6147
g4
VRaptors
p6148
sg6
VKnicks
p6149
sg8
F12.0
sg9
F195.0
sa(dp6150
g4
VCeltics
p6151
sg6
VPistons
p6152
sg8
F5.5
sg9
F196.5
sa(dp6153
g4
VMagic
p6154
sg6
VNuggets
p6155
sg8
F-1.0
sg9
F206.5
sa(dp6156
g4
Vsac
p6157
sg6
VWizards
p6158
sg8
F-4.0
sg9
F209.0
sa(dp6159
g4
VTimberwolves
p6160
sg6
VHornets
p6161
sg8
F-5.0
sg9
F198.5
sa(dp6162
g4
VSuns
p6163
sg6
VMavericks
p6164
sg8
F-4.5
sg9
F206.5
sa(dp6165
g4
VLakers
p6166
sg6
V76ers
p6167
sg8
F5.0
sg9
F194.0
sasS'2015-03-22'
p6168
(lp6169
(dp6170
g4
VPacers
p6171
sg6
VNets
p6172
sg8
F8.5
sg9
F195.0
sa(dp6173
g4
VPistons
p6174
sg6
VBulls
p6175
sg8
F-3.0
sg9
F192.5
sa(dp6176
g4
VRockets
p6177
sg6
VSuns
p6178
sg8
F7.5
sg9
F207.0
sa(dp6179
g4
VGrizzlies
p6180
sg6
VTrail Blaze
p6181
sg8
F3.0
sg9
F194.0
sa(dp6182
g4
VWarriors
p6183
sg6
VJazz
p6184
sg8
F9.0
sg9
F191.5
sasS'2015-03-21'
p6185
(lp6186
(dp6187
g4
VMagic
p6188
sg6
VTrail Blaze
p6189
sg8
F-8.5
sg9
F200.0
sa(dp6190
g4
V76ers
p6191
sg6
VKnicks
p6192
sg8
F5.5
sg9
F188.5
sa(dp6193
g4
VHeat
p6194
sg6
VNuggets
p6195
sg8
F7.5
sg9
F210.0
sa(dp6196
g4
VNets
p6197
sg6
VMilwaukee
p6198
sg8
F2.0
sg9
F192.5
sa(dp6199
g4
VCavaliers
p6200
sg6
VPacers
p6201
sg8
F10.5
sg9
F201.5
sa(dp6202
g4
VBulls
p6203
sg6
VRaptors
p6204
sg8
F1.5
sg9
F198.5
sa(dp6205
g4
VThunder
p6206
sg6
VHawks
p6207
sg8
F1.0
sg9
F210.0
sa(dp6208
g4
VMavericks
p6209
sg6
VGrizzlies
p6210
sg8
F3.0
sg9
F197.0
sa(dp6211
g4
VSpurs
p6212
sg6
VCeltics
p6213
sg8
F9.0
sg9
F205.5
sa(dp6214
g4
Vsac
p6215
sg6
VHornets
p6216
sg8
F-5.0
sg9
F206.5
sa(dp6217
g4
VWarriors
p6218
sg6
VPelicans
p6219
sg8
F13.5
sg9
F202.5
sa(dp6220
g4
VClippers
p6221
sg6
VWizards
p6222
sg8
F7.0
sg9
F201.5
sasS'2015-03-20'
p6223
(lp6224
(dp6225
g4
VKnicks
p6226
sg6
VTimberwolves
p6227
sg8
F1.5
sg9
F196.5
sa(dp6228
g4
VRockets
p6229
sg6
VNuggets
p6230
sg8
F7.0
sg9
F215.0
sa(dp6231
g4
VSuns
p6232
sg6
VPelicans
p6233
sg8
F3.0
sg9
F198.0
sa(dp6234
g4
VLakers
p6235
sg6
VJazz
p6236
sg8
F-4.5
sg9
F183.0
sasS'2015-03-27'
p6237
(lp6238
(dp6239
g4
VMilwaukee
p6240
sg6
VPacers
p6241
sg8
F4.0
sg9
F189.0
sasS'2015-03-26'
p6242
(lp6243
(dp6244
g4
VKnicks
p6245
sg6
VClippers
p6246
sg8
F-15.0
sg9
F197.0
sa(dp6247
g4
VMagic
p6248
sg6
VHawks
p6249
sg8
F-9.0
sg9
F200.0
sa(dp6250
g4
VWizards
p6251
sg6
VPacers
p6252
sg8
F3.0
sg9
F188.5
sa(dp6253
g4
VRaptors
p6254
sg6
VBulls
p6255
sg8
F-3.0
sg9
F196.5
sa(dp6256
g4
VHornets
p6257
sg6
VNets
p6258
sg8
F3.5
sg9
F197.5
sa(dp6259
g4
VCeltics
p6260
sg6
VHeat
p6261
sg8
F8.5
sg9
F198.5
sa(dp6262
g4
VPelicans
p6263
sg6
VRockets
p6264
sg8
F1.0
sg9
F203.5
sa(dp6265
g4
VTimberwolves
p6266
sg6
VLakers
p6267
sg8
F1.0
sg9
F201.5
sa(dp6268
g4
VGrizzlies
p6269
sg6
VCavaliers
p6270
sg8
F-1.0
sg9
F194.5
sa(dp6271
g4
VJazz
p6272
sg6
VTrail Blaze
p6273
sg8
F1.5
sg9
F180.5
sa(dp6274
g4
VNuggets
p6275
sg6
V76ers
p6276
sg8
F11.5
sg9
F209.5
sa(dp6277
g4
VSpurs
p6278
sg6
VThunder
p6279
sg8
F7.5
sg9
F216.5
sa(dp6280
g4
VSuns
p6281
sg6
Vsac
p6282
sg8
F8.5
sg9
F213.5
sasS'2015-03-25'
p6283
(lp6284
(dp6285
g4
VPistons
p6286
sg6
VRaptors
p6287
sg8
F-4.0
sg9
F204.5
sa(dp6288
g4
VMilwaukee
p6289
sg6
VHeat
p6290
sg8
F-2.0
sg9
F191.0
sa(dp6291
g4
VMavericks
p6292
sg6
VSpurs
p6293
sg8
F-3.5
sg9
F207.0
sa(dp6294
g4
VThunder
p6295
sg6
VLakers
p6296
sg8
F9.5
sg9
F214.5
sa(dp6297
g4
Vsac
p6298
sg6
V76ers
p6299
sg8
F8.5
sg9
F207.0
sa(dp6300
g4
VTrail Blaze
p6301
sg6
VWarriors
p6302
sg8
F-7.0
sg9
F204.0
sasS'2015-03-24'
p6303
(lp6304
(dp6305
g4
VPacers
p6306
sg6
VRockets
p6307
sg8
F-1.5
sg9
F203.0
sa(dp6308
g4
VNets
p6309
sg6
VCeltics
p6310
sg8
F5.0
sg9
F203.5
sa(dp6311
g4
VKnicks
p6312
sg6
VGrizzlies
p6313
sg8
F-14.0
sg9
F183.5
sa(dp6314
g4
VBulls
p6315
sg6
VHornets
p6316
sg8
F7.0
sg9
F191.5
sa(dp6317
g4
VJazz
p6318
sg6
VTimberwolves
p6319
sg8
F10.0
sg9
F182.5
sa(dp6320
g4
VWarriors
p6321
sg6
VWizards
p6322
sg8
F11.0
sg9
F207.5
sasS'2015-03-29'
p6323
(lp6324
(dp6325
g4
VHornets
p6326
sg6
VHawks
p6327
sg8
F6.0
sg9
F188.0
sa(dp6328
g4
VBulls
p6329
sg6
VKnicks
p6330
sg8
F17.5
sg9
F190.0
sa(dp6331
g4
VMilwaukee
p6332
sg6
VWarriors
p6333
sg8
F-4.5
sg9
F208.5
sa(dp6334
g4
VJazz
p6335
sg6
VThunder
p6336
sg8
F-6.0
sg9
F199.5
sa(dp6337
g4
VTrail Blaze
p6338
sg6
VNuggets
p6339
sg8
F8.5
sg9
F206.5
sasS'2015-03-28'
p6340
(lp6341
(dp6342
g4
VMagic
p6343
sg6
VPistons
p6344
sg8
F-2.5
sg9
F197.5
sa(dp6345
g4
V76ers
p6346
sg6
VClippers
p6347
sg8
F-12.5
sg9
F201.5
sa(dp6348
g4
VWizards
p6349
sg6
VHornets
p6350
sg8
F4.5
sg9
F188.5
sa(dp6351
g4
VNets
p6352
sg6
VCavaliers
p6353
sg8
F-9.0
sg9
F207.5
sa(dp6354
g4
VKnicks
p6355
sg6
VCeltics
p6356
sg8
F-11.0
sg9
F194.0
sa(dp6357
g4
VHawks
p6358
sg6
VHeat
p6359
sg8
F8.0
sg9
F195.5
sa(dp6360
g4
VRaptors
p6361
sg6
VLakers
p6362
sg8
F8.0
sg9
F204.0
sa(dp6363
g4
VPelicans
p6364
sg6
Vsac
p6365
sg8
F6.5
sg9
F206.0
sa(dp6366
g4
VRockets
p6367
sg6
VTimberwolves
p6368
sg8
F13.5
sg9
F205.5
sa(dp6369
g4
VGrizzlies
p6370
sg6
VWarriors
p6371
sg8
F-3.5
sg9
F198.5
sa(dp6372
g4
VSpurs
p6373
sg6
VMavericks
p6374
sg8
F8.5
sg9
F205.5
sa(dp6375
g4
VNuggets
p6376
sg6
VJazz
p6377
sg8
F2.0
sg9
F189.0
sa(dp6378
g4
VSuns
p6379
sg6
VTrail Blaze
p6380
sg8
F-1.0
sg9
F201.5
sasS'2015-04-19'
p6381
(lp6382
(dp6383
g4
VRaptors
p6384
sg6
VWizards
p6385
sg8
F4.0
sg9
F194.5
sa(dp6386
g4
VWarriors
p6387
sg6
VPelicans
p6388
sg8
F12.5
sg9
F205.0
sa(dp6389
g4
VBulls
p6390
sg6
VMilwaukee
p6391
sg8
F8.0
sg9
F185.5
sa(dp6392
g4
VRockets
p6393
sg6
VMavericks
p6394
sg8
F5.5
sg9
F212.5
sasS'2015-04-16'
p6395
(lp6396
(dp6397
g4
VRaptors
p6398
sg6
VHornets
p6399
sg8
F10.5
sg9
F194.0
sa(dp6400
g4
VNets
p6401
sg6
VMagic
p6402
sg8
F9.0
sg9
F203.5
sa(dp6403
g4
VKnicks
p6404
sg6
VPistons
p6405
sg8
F-9.0
sg9
F193.0
sa(dp6406
g4
V76ers
p6407
sg6
VHeat
p6408
sg8
F2.0
sg9
F192.5
sa(dp6409
g4
VPelicans
p6410
sg6
VSpurs
p6411
sg8
F-5.5
sg9
F193.0
sa(dp6412
g4
VMilwaukee
p6413
sg6
VCeltics
p6414
sg8
F6.0
sg9
F198.0
sa(dp6415
g4
VBulls
p6416
sg6
VHawks
p6417
sg8
F5.0
sg9
F197.5
sa(dp6418
g4
VCavaliers
p6419
sg6
VWizards
p6420
sg8
F8.0
sg9
F192.0
sa(dp6421
g4
VMavericks
p6422
sg6
VTrail Blaze
p6423
sg8
F6.0
sg9
F208.5
sa(dp6424
g4
VTimberwolves
p6425
sg6
VThunder
p6426
sg8
F-14.0
sg9
F211.0
sa(dp6427
g4
VRockets
p6428
sg6
VJazz
p6429
sg8
F11.5
sg9
F194.0
sa(dp6430
g4
VGrizzlies
p6431
sg6
VPacers
p6432
sg8
F-2.5
sg9
F184.5
sa(dp6433
g4
VLakers
p6434
sg6
Vsac
p6435
sg8
F3.0
sg9
F206.5
sa(dp6436
g4
VWarriors
p6437
sg6
VNuggets
p6438
sg8
F11.5
sg9
F215.5
sasS'2015-04-15'
p6439
(lp6440
(dp6441
g4
VCeltics
p6442
sg6
VRaptors
p6443
sg8
F0.0
sg9
F206.5
sa(dp6444
g4
VPacers
p6445
sg6
VWizards
p6446
sg8
F7.5
sg9
F192.5
sa(dp6447
g4
VSuns
p6448
sg6
VClippers
p6449
sg8
F-10.5
sg9
F207.0
sasS'2015-04-14'
p6450
(lp6451
(dp6452
g4
V76ers
p6453
sg6
VMilwaukee
p6454
sg8
F-3.5
sg9
F196.0
sa(dp6455
g4
VCavaliers
p6456
sg6
VPistons
p6457
sg8
F8.0
sg9
F205.0
sa(dp6458
g4
VHornets
p6459
sg6
VRockets
p6460
sg8
F-12.0
sg9
F201.0
sa(dp6461
g4
VHeat
p6462
sg6
VMagic
p6463
sg8
F5.5
sg9
F198.0
sa(dp6464
g4
VNets
p6465
sg6
VBulls
p6466
sg8
F-2.0
sg9
F199.0
sa(dp6467
g4
VHawks
p6468
sg6
VKnicks
p6469
sg8
F14.5
sg9
F195.5
sa(dp6470
g4
VTimberwolves
p6471
sg6
VPelicans
p6472
sg8
F-14.5
sg9
F198.5
sa(dp6473
g4
VThunder
p6474
sg6
VTrail Blaze
p6475
sg8
F8.0
sg9
F216.5
sa(dp6476
g4
VJazz
p6477
sg6
VMavericks
p6478
sg8
F6.0
sg9
F187.0
sa(dp6479
g4
Vsac
p6480
sg6
VLakers
p6481
sg8
F3.5
sg9
F208.0
sa(dp6482
g4
VWarriors
p6483
sg6
VGrizzlies
p6484
sg8
F8.0
sg9
F197.0
sa(dp6485
g4
VClippers
p6486
sg6
VNuggets
p6487
sg8
F18.0
sg9
F214.5
sasS'2015-04-13'
p6488
(lp6489
(dp6490
g4
VCeltics
p6491
sg6
VCavaliers
p6492
sg8
F10.5
sg9
F197.0
sa(dp6493
g4
VMilwaukee
p6494
sg6
VNets
p6495
sg8
F1.0
sg9
F202.0
sa(dp6496
g4
VPistons
p6497
sg6
VHornets
p6498
sg8
F8.5
sg9
F193.0
sa(dp6499
g4
VNuggets
p6500
sg6
Vsac
p6501
sg8
F8.5
sg9
F218.5
sa(dp6502
g4
VWizards
p6503
sg6
VHawks
p6504
sg8
F9.5
sg9
F194.0
sa(dp6505
g4
VPacers
p6506
sg6
VThunder
p6507
sg8
F2.5
sg9
F210.5
sa(dp6508
g4
VSpurs
p6509
sg6
VSuns
p6510
sg8
F17.0
sg9
F199.0
sa(dp6511
g4
VRockets
p6512
sg6
VPelicans
p6513
sg8
F5.0
sg9
F198.5
sa(dp6514
g4
VLakers
p6515
sg6
VMavericks
p6516
sg8
F-6.0
sg9
F203.0
sasS'2015-04-12'
p6517
(lp6518
(dp6519
g4
VMagic
p6520
sg6
VKnicks
p6521
sg8
F11.0
sg9
F196.5
sa(dp6522
g4
VHeat
p6523
sg6
VRaptors
p6524
sg8
F3.5
sg9
F198.0
sa(dp6525
g4
VBulls
p6526
sg6
V76ers
p6527
sg8
F15.5
sg9
F195.0
sa(dp6528
g4
VTrail Blaze
p6529
sg6
VJazz
p6530
sg8
F10.0
sg9
F182.5
sa(dp6531
g4
VClippers
p6532
sg6
VGrizzlies
p6533
sg8
F9.5
sg9
F196.5
sa(dp6534
g4
VWarriors
p6535
sg6
VTimberwolves
p6536
sg8
F20.0
sg9
F214.5
sasS'2015-04-11'
p6537
(lp6538
(dp6539
g4
VMagic
p6540
sg6
VRaptors
p6541
sg8
F-5.0
sg9
F202.5
sa(dp6542
g4
VNets
p6543
sg6
VWizards
p6544
sg8
F5.0
sg9
F198.0
sa(dp6545
g4
VKnicks
p6546
sg6
VMilwaukee
p6547
sg8
F-11.0
sg9
F189.5
sa(dp6548
g4
VPistons
p6549
sg6
VPacers
p6550
sg8
F-5.5
sg9
F193.0
sa(dp6551
g4
VHawks
p6552
sg6
VHornets
p6553
sg8
F10.0
sg9
F192.0
sa(dp6554
g4
VCavaliers
p6555
sg6
VCeltics
p6556
sg8
F6.0
sg9
F208.5
sa(dp6557
g4
VPelicans
p6558
sg6
VSuns
p6559
sg8
F9.0
sg9
F194.0
sa(dp6560
g4
VRockets
p6561
sg6
VSpurs
p6562
sg8
F-3.5
sg9
F204.0
sa(dp6563
g4
VThunder
p6564
sg6
Vsac
p6565
sg8
F13.5
sg9
F219.0
sa(dp6566
g4
VJazz
p6567
sg6
VGrizzlies
p6568
sg8
F-2.5
sg9
F176.0
sa(dp6569
g4
VNuggets
p6570
sg6
VMavericks
p6571
sg8
F1.5
sg9
F212.0
sa(dp6572
g4
VLakers
p6573
sg6
VTimberwolves
p6574
sg8
F5.0
sg9
F202.0
sasS'2015-04-10'
p6575
(lp6576
(dp6577
g4
VHeat
p6578
sg6
VBulls
p6579
sg8
F2.0
sg9
F192.5
sa(dp6580
g4
VWarriors
p6581
sg6
VTrail Blaze
p6582
sg8
F10.5
sg9
F211.0
sasS'2015-02-08'
p6583
(lp6584
(dp6585
g4
VWizards
p6586
sg6
VNets
p6587
sg8
F6.5
sg9
F192.0
sa(dp6588
g4
VPelicans
p6589
sg6
VBulls
p6590
sg8
F-2.0
sg9
F193.5
sa(dp6591
g4
VKnicks
p6592
sg6
VWarriors
p6593
sg8
F-15.0
sg9
F204.0
sa(dp6594
g4
V76ers
p6595
sg6
VHornets
p6596
sg8
F-8.0
sg9
F182.0
sa(dp6597
g4
VMilwaukee
p6598
sg6
VCeltics
p6599
sg8
F6.5
sg9
F193.0
sa(dp6600
g4
VMavericks
p6601
sg6
VTrail Blaze
p6602
sg8
F2.5
sg9
F207.0
sa(dp6603
g4
VJazz
p6604
sg6
Vsac
p6605
sg8
F5.5
sg9
F195.0
sasS'2015-02-09'
p6606
(lp6607
(dp6608
g4
VThunder
p6609
sg6
VClippers
p6610
sg8
F7.5
sg9
F207.0
sa(dp6611
g4
VCavaliers
p6612
sg6
VLakers
p6613
sg8
F14.5
sg9
F198.5
sa(dp6614
g4
VMagic
p6615
sg6
VBulls
p6616
sg8
F-6.5
sg9
F197.5
sa(dp6617
g4
VPistons
p6618
sg6
VTimberwolves
p6619
sg8
F8.0
sg9
F204.0
sa(dp6620
g4
VGrizzlies
p6621
sg6
VHawks
p6622
sg8
F3.0
sg9
F197.0
sa(dp6623
g4
VHornets
p6624
sg6
VPacers
p6625
sg8
F-2.0
sg9
F184.5
sa(dp6626
g4
VRaptors
p6627
sg6
VSpurs
p6628
sg8
F-2.0
sg9
F202.5
sa(dp6629
g4
VRockets
p6630
sg6
VTrail Blaze
p6631
sg8
F4.5
sg9
F206.5
sa(dp6632
g4
Vsac
p6633
sg6
VSuns
p6634
sg8
F-7.5
sg9
F208.0
sasS'2015-02-06'
p6635
(lp6636
(dp6637
g4
VHornets
p6638
sg6
VWizards
p6639
sg8
F-2.0
sg9
F187.0
sa(dp6640
g4
VCavaliers
p6641
sg6
VClippers
p6642
sg8
F4.0
sg9
F207.5
sa(dp6643
g4
Vsac
p6644
sg6
VMavericks
p6645
sg8
F-3.0
sg9
F209.5
sa(dp6646
g4
VTrail Blaze
p6647
sg6
VSuns
p6648
sg8
F4.5
sg9
F211.5
sasS'2015-02-07'
p6649
(lp6650
(dp6651
g4
VNets
p6652
sg6
VKnicks
p6653
sg8
F6.5
sg9
F196.0
sa(dp6654
g4
VMagic
p6655
sg6
VLakers
p6656
sg8
F4.5
sg9
F200.5
sa(dp6657
g4
VPacers
p6658
sg6
VCavaliers
p6659
sg8
F-6.0
sg9
F195.5
sa(dp6660
g4
VRaptors
p6661
sg6
VClippers
p6662
sg8
F-1.0
sg9
F211.5
sa(dp6663
g4
VCeltics
p6664
sg6
V76ers
p6665
sg8
F8.5
sg9
F190.0
sa(dp6666
g4
VPistons
p6667
sg6
VNuggets
p6668
sg8
F6.5
sg9
F204.5
sa(dp6669
g4
VHawks
p6670
sg6
VWarriors
p6671
sg8
F-2.0
sg9
F213.5
sa(dp6672
g4
VTimberwolves
p6673
sg6
VGrizzlies
p6674
sg8
F-8.5
sg9
F198.0
sa(dp6675
g4
VRockets
p6676
sg6
VMilwaukee
p6677
sg8
F5.0
sg9
F199.0
sa(dp6678
g4
VThunder
p6679
sg6
VPelicans
p6680
sg8
F6.5
sg9
F198.5
sa(dp6681
g4
VSuns
p6682
sg6
VJazz
p6683
sg8
F5.0
sg9
F202.0
sa(dp6684
g4
VSpurs
p6685
sg6
VHeat
p6686
sg8
F12.5
sg9
F186.0
sasS'2015-02-04'
p6687
(lp6688
(dp6689
g4
V76ers
p6690
sg6
VNuggets
p6691
sg8
F-7.5
sg9
F193.5
sa(dp6692
g4
VKnicks
p6693
sg6
VCeltics
p6694
sg8
F-1.0
sg9
F190.5
sa(dp6695
g4
VPistons
p6696
sg6
VHeat
p6697
sg8
F4.0
sg9
F184.0
sa(dp6698
g4
Vsac
p6699
sg6
VWarriors
p6700
sg8
F-10.0
sg9
F218.0
sa(dp6701
g4
VTrail Blaze
p6702
sg6
VJazz
p6703
sg8
F8.5
sg9
F194.0
sasS'2015-02-05'
p6704
(lp6705
(dp6706
g4
VPacers
p6707
sg6
VPistons
p6708
sg8
F4.5
sg9
F193.0
sa(dp6709
g4
VCeltics
p6710
sg6
VNuggets
p6711
sg8
F3.5
sg9
F203.5
sa(dp6712
g4
VHawks
p6713
sg6
VWizards
p6714
sg8
F6.0
sg9
F196.5
sa(dp6715
g4
VRaptors
p6716
sg6
VNets
p6717
sg8
F7.5
sg9
F203.5
sa(dp6718
g4
VPelicans
p6719
sg6
VThunder
p6720
sg8
F4.0
sg9
F192.5
sa(dp6721
g4
VMilwaukee
p6722
sg6
VLakers
p6723
sg8
F9.5
sg9
F192.0
sa(dp6724
g4
VTimberwolves
p6725
sg6
VHeat
p6726
sg8
F2.0
sg9
F188.5
sa(dp6727
g4
VRockets
p6728
sg6
VBulls
p6729
sg8
F3.0
sg9
F205.0
sa(dp6730
g4
VSpurs
p6731
sg6
VMagic
p6732
sg8
F13.5
sg9
F201.0
sa(dp6733
g4
VJazz
p6734
sg6
VGrizzlies
p6735
sg8
F-6.5
sg9
F186.5
sa(dp6736
g4
VWarriors
p6737
sg6
VMavericks
p6738
sg8
F8.0
sg9
F217.5
sasS'2015-02-02'
p6739
(lp6740
(dp6741
g4
VCeltics
p6742
sg6
VHeat
p6743
sg8
F3.5
sg9
F185.0
sa(dp6744
g4
VKnicks
p6745
sg6
VLakers
p6746
sg8
F3.0
sg9
F190.5
sasS'2015-02-03'
p6747
(lp6748
(dp6749
g4
VWizards
p6750
sg6
VHornets
p6751
sg8
F7.5
sg9
F187.0
sa(dp6752
g4
VCavaliers
p6753
sg6
V76ers
p6754
sg8
F17.0
sg9
F195.5
sa(dp6755
g4
VNets
p6756
sg6
VClippers
p6757
sg8
F-8.5
sg9
F203.0
sa(dp6758
g4
VRaptors
p6759
sg6
VMilwaukee
p6760
sg8
F6.0
sg9
F203.0
sa(dp6761
g4
VPelicans
p6762
sg6
VHawks
p6763
sg8
F-3.0
sg9
F196.0
sa(dp6764
g4
VThunder
p6765
sg6
VMagic
p6766
sg8
F10.5
sg9
F207.0
sa(dp6767
g4
VMavericks
p6768
sg6
VTimberwolves
p6769
sg8
F10.0
sg9
F209.0
sa(dp6770
g4
VSuns
p6771
sg6
VGrizzlies
p6772
sg8
F-2.5
sg9
F204.0
sasS'2015-02-01'
p6773
(lp6774
(dp6775
g4
VMagic
p6776
sg6
VMavericks
p6777
sg8
F-7.0
sg9
F209.0
sa(dp6778
g4
VWizards
p6779
sg6
VRaptors
p6780
sg8
F5.0
sg9
F203.5
sa(dp6781
g4
VPacers
p6782
sg6
Vsac
p6783
sg8
F5.5
sg9
F199.5
sa(dp6784
g4
VPistons
p6785
sg6
VRockets
p6786
sg8
F-4.5
sg9
F205.5
sa(dp6787
g4
VHawks
p6788
sg6
V76ers
p6789
sg8
F16.5
sg9
F192.0
sa(dp6790
g4
VTimberwolves
p6791
sg6
VCavaliers
p6792
sg8
F-10.5
sg9
F204.5
sa(dp6793
g4
VGrizzlies
p6794
sg6
VThunder
p6795
sg8
F4.0
sg9
F197.0
sa(dp6796
g4
VMilwaukee
p6797
sg6
VTrail Blaze
p6798
sg8
F-2.0
sg9
F198.5
sa(dp6799
g4
VSpurs
p6800
sg6
VClippers
p6801
sg8
F5.0
sg9
F205.0
sa(dp6802
g4
VNuggets
p6803
sg6
VHornets
p6804
sg8
F4.5
sg9
F194.5
sa(dp6805
g4
VWarriors
p6806
sg6
VSuns
p6807
sg8
F11.0
sg9
F225.0
sasS'2014-11-21'
p6808
(lp6809
(dp6810
g4
VHeat
p6811
sg6
VClippers
p6812
sg8
F-4.0
sg9
F197.5
sa(dp6813
g4
Vsac
p6814
sg6
VBulls
p6815
sg8
F3.0
sg9
F195.0
sasS'2014-11-20'
p6816
(lp6817
(dp6818
g4
VMagic
p6819
sg6
VClippers
p6820
sg8
F-5.5
sg9
F203.5
sa(dp6821
g4
V76ers
p6822
sg6
VCeltics
p6823
sg8
F-6.5
sg9
F214.0
sa(dp6824
g4
VWizards
p6825
sg6
VMavericks
p6826
sg8
F-3.0
sg9
F204.0
sa(dp6827
g4
VPacers
p6828
sg6
VHornets
p6829
sg8
F2.0
sg9
F179.5
sa(dp6830
g4
VCavaliers
p6831
sg6
VSpurs
p6832
sg8
F1.5
sg9
F200.5
sa(dp6833
g4
VNets
p6834
sg6
VMilwaukee
p6835
sg8
F6.5
sg9
F198.5
sa(dp6836
g4
VPistons
p6837
sg6
VSuns
p6838
sg8
F-2.5
sg9
F204.0
sa(dp6839
g4
VRaptors
p6840
sg6
VGrizzlies
p6841
sg8
F6.0
sg9
F192.5
sa(dp6842
g4
VTimberwolves
p6843
sg6
VKnicks
p6844
sg8
F1.0
sg9
F201.5
sa(dp6845
g4
VNuggets
p6846
sg6
VThunder
p6847
sg8
F7.0
sg9
F199.5
sa(dp6848
g4
VRockets
p6849
sg6
VLakers
p6850
sg8
F10.5
sg9
F208.5
sasS'2014-11-23'
p6851
(lp6852
(dp6853
g4
VMagic
p6854
sg6
VHeat
p6855
sg8
F-1.5
sg9
F191.0
sa(dp6856
g4
VPacers
p6857
sg6
VSuns
p6858
sg8
F-2.0
sg9
F195.5
sa(dp6859
g4
VKnicks
p6860
sg6
V76ers
p6861
sg8
F11.0
sg9
F198.5
sa(dp6862
g4
VCavaliers
p6863
sg6
VRaptors
p6864
sg8
F3.0
sg9
F203.5
sa(dp6865
g4
VTimberwolves
p6866
sg6
Vsac
p6867
sg8
F-9.0
sg9
F212.0
sa(dp6868
g4
VRockets
p6869
sg6
VMavericks
p6870
sg8
F-4.5
sg9
F205.0
sa(dp6871
g4
VMilwaukee
p6872
sg6
VWizards
p6873
sg8
F-3.5
sg9
F193.5
sa(dp6874
g4
VSpurs
p6875
sg6
VNets
p6876
sg8
F10.0
sg9
F194.0
sa(dp6877
g4
VJazz
p6878
sg6
VPelicans
p6879
sg8
F-2.5
sg9
F199.0
sasS'2014-11-22'
p6880
(lp6881
(dp6882
g4
V76ers
p6883
sg6
VSuns
p6884
sg8
F-9.0
sg9
F208.0
sa(dp6885
g4
VHornets
p6886
sg6
VMagic
p6887
sg8
F4.0
sg9
F191.0
sa(dp6888
g4
VHawks
p6889
sg6
VPistons
p6890
sg8
F6.0
sg9
F197.5
sa(dp6891
g4
VRaptors
p6892
sg6
VMilwaukee
p6893
sg8
F9.0
sg9
F199.5
sa(dp6894
g4
VWizards
p6895
sg6
VCavaliers
p6896
sg8
F-1.5
sg9
F204.5
sa(dp6897
g4
VTimberwolves
p6898
sg6
VSpurs
p6899
sg8
F-11.0
sg9
F202.5
sa(dp6900
g4
VGrizzlies
p6901
sg6
VCeltics
p6902
sg8
F6.5
sg9
F199.5
sa(dp6903
g4
VThunder
p6904
sg6
VNets
p6905
sg8
F1.5
sg9
F187.0
sa(dp6906
g4
VMavericks
p6907
sg6
VLakers
p6908
sg8
F11.0
sg9
F215.0
sa(dp6909
g4
VNuggets
p6910
sg6
VPelicans
p6911
sg8
F-2.5
sg9
F214.0
sa(dp6912
g4
VTrail Blaze
p6913
sg6
VBulls
p6914
sg8
F8.0
sg9
F195.5
sa(dp6915
g4
VWarriors
p6916
sg6
VJazz
p6917
sg8
F12.5
sg9
F207.5
sasS'2014-11-25'
p6918
(lp6919
(dp6920
g4
V76ers
p6921
sg6
VTrail Blaze
p6922
sg8
F-13.0
sg9
F198.0
sa(dp6923
g4
VCavaliers
p6924
sg6
VMagic
p6925
sg8
F10.5
sg9
F200.0
sa(dp6926
g4
VHornets
p6927
sg6
VClippers
p6928
sg8
F-4.0
sg9
F199.0
sa(dp6929
g4
VRaptors
p6930
sg6
VSuns
p6931
sg8
F4.5
sg9
F210.0
sa(dp6932
g4
VRockets
p6933
sg6
VKnicks
p6934
sg8
F6.0
sg9
F191.5
sa(dp6935
g4
VMavericks
p6936
sg6
VPacers
p6937
sg8
F14.0
sg9
F197.0
sa(dp6938
g4
VJazz
p6939
sg6
VBulls
p6940
sg8
F-3.5
sg9
F193.0
sasS'2014-11-24'
p6941
(lp6942
(dp6943
g4
VCeltics
p6944
sg6
VTrail Blaze
p6945
sg8
F-4.5
sg9
F209.5
sa(dp6946
g4
VHeat
p6947
sg6
VHornets
p6948
sg8
F1.0
sg9
F185.5
sa(dp6949
g4
VGrizzlies
p6950
sg6
VClippers
p6951
sg8
F2.5
sg9
F198.0
sa(dp6952
g4
VThunder
p6953
sg6
VWarriors
p6954
sg8
F-8.0
sg9
F196.5
sa(dp6955
g4
VLakers
p6956
sg6
VNuggets
p6957
sg8
F-2.0
sg9
F221.0
sasS'2014-11-27'
p6958
(lp6959
(dp6960
g4
VMagic
p6961
sg6
VWarriors
p6962
sg8
F-8.0
sg9
F202.5
sa(dp6963
g4
V76ers
p6964
sg6
VNets
p6965
sg8
F-7.0
sg9
F199.5
sa(dp6966
g4
VCavaliers
p6967
sg6
VWizards
p6968
sg8
F7.5
sg9
F201.0
sa(dp6969
g4
VHornets
p6970
sg6
VTrail Blaze
p6971
sg8
F-5.5
sg9
F191.5
sa(dp6972
g4
VPistons
p6973
sg6
VClippers
p6974
sg8
F-9.0
sg9
F199.0
sa(dp6975
g4
VHawks
p6976
sg6
VRaptors
p6977
sg8
F-3.5
sg9
F204.0
sa(dp6978
g4
VMavericks
p6979
sg6
VKnicks
p6980
sg8
F14.0
sg9
F201.0
sa(dp6981
g4
VTimberwolves
p6982
sg6
VMilwaukee
p6983
sg8
F-1.5
sg9
F205.5
sa(dp6984
g4
VRockets
p6985
sg6
Vsac
p6986
sg8
F4.5
sg9
F193.5
sa(dp6987
g4
VThunder
p6988
sg6
VJazz
p6989
sg8
F4.5
sg9
F185.0
sa(dp6990
g4
VSpurs
p6991
sg6
VPacers
p6992
sg8
F13.0
sg9
F187.0
sa(dp6993
g4
VSuns
p6994
sg6
VNuggets
p6995
sg8
F7.5
sg9
F215.5
sa(dp6996
g4
VLakers
p6997
sg6
VGrizzlies
p6998
sg8
F-7.0
sg9
F202.5
sasS'2014-11-26'
p6999
(lp7000
(dp7001
g4
VWizards
p7002
sg6
VHawks
p7003
sg8
F4.0
sg9
F200.5
sa(dp7004
g4
VHeat
p7005
sg6
VWarriors
p7006
sg8
F-7.5
sg9
F202.5
sa(dp7007
g4
VPelicans
p7008
sg6
Vsac
p7009
sg8
F6.5
sg9
F200.0
sa(dp7010
g4
VMilwaukee
p7011
sg6
VPistons
p7012
sg8
F3.5
sg9
F190.0
sa(dp7013
g4
VNuggets
p7014
sg6
VBulls
p7015
sg8
F4.5
sg9
F204.0
sasS'2014-11-29'
p7016
(lp7017
(dp7018
g4
VCeltics
p7019
sg6
VBulls
p7020
sg8
F-3.5
sg9
F204.5
sa(dp7021
g4
VHornets
p7022
sg6
VWarriors
p7023
sg8
F-8.5
sg9
F201.0
sa(dp7024
g4
VPistons
p7025
sg6
VMilwaukee
p7026
sg8
F2.0
sg9
F191.0
sa(dp7027
g4
VHawks
p7028
sg6
VPelicans
p7029
sg8
F2.5
sg9
F204.5
sa(dp7030
g4
VRaptors
p7031
sg6
VMavericks
p7032
sg8
F3.5
sg9
F211.0
sa(dp7033
g4
VPacers
p7034
sg6
VMagic
p7035
sg8
F5.0
sg9
F191.0
sa(dp7036
g4
VRockets
p7037
sg6
VClippers
p7038
sg8
F-4.5
sg9
F201.5
sa(dp7039
g4
VThunder
p7040
sg6
VKnicks
p7041
sg8
F8.0
sg9
F186.0
sa(dp7042
g4
VSpurs
p7043
sg6
Vsac
p7044
sg8
F11.0
sg9
F194.0
sa(dp7045
g4
VNuggets
p7046
sg6
VSuns
p7047
sg8
F2.0
sg9
F215.5
sa(dp7048
g4
VTrail Blaze
p7049
sg6
VGrizzlies
p7050
sg8
F3.5
sg9
F193.5
sa(dp7051
g4
VLakers
p7052
sg6
VTimberwolves
p7053
sg8
F5.5
sg9
F213.5
sasS'2014-12-08'
p7054
(lp7055
(dp7056
g4
VCeltics
p7057
sg6
VWizards
p7058
sg8
F-3.5
sg9
F204.0
sa(dp7059
g4
VHawks
p7060
sg6
VNuggets
p7061
sg8
F6.0
sg9
F211.5
sa(dp7062
g4
VPistons
p7063
sg6
VThunder
p7064
sg8
F-10.0
sg9
F194.0
sa(dp7065
g4
VGrizzlies
p7066
sg6
VHeat
p7067
sg8
F8.0
sg9
F192.0
sa(dp7068
g4
VKnicks
p7069
sg6
VTrail Blaze
p7070
sg8
F-6.5
sg9
F195.5
sa(dp7071
g4
VMavericks
p7072
sg6
VMilwaukee
p7073
sg8
F9.0
sg9
F211.0
sa(dp7074
g4
VLakers
p7075
sg6
VPelicans
p7076
sg8
F-2.5
sg9
F207.0
sasS'2014-12-09'
p7077
(lp7078
(dp7079
g4
VWizards
p7080
sg6
VCeltics
p7081
sg8
F8.5
sg9
F204.5
sa(dp7082
g4
VPacers
p7083
sg6
VHawks
p7084
sg8
F1.0
sg9
F194.0
sa(dp7085
g4
VNets
p7086
sg6
VCavaliers
p7087
sg8
F-8.0
sg9
F196.5
sa(dp7088
g4
VRaptors
p7089
sg6
VNuggets
p7090
sg8
F10.0
sg9
F214.0
sa(dp7091
g4
VTimberwolves
p7092
sg6
VWarriors
p7093
sg8
F-14.5
sg9
F213.5
sa(dp7094
g4
Vsac
p7095
sg6
VJazz
p7096
sg8
F5.0
sg9
F197.0
sa(dp7097
g4
VClippers
p7098
sg6
VSuns
p7099
sg8
F7.5
sg9
F216.0
sasS'2014-12-02'
p7100
(lp7101
(dp7102
g4
V76ers
p7103
sg6
VSpurs
p7104
sg8
F-11.0
sg9
F194.5
sa(dp7105
g4
VWizards
p7106
sg6
VHeat
p7107
sg8
F4.5
sg9
F190.5
sa(dp7108
g4
VJazz
p7109
sg6
VNuggets
p7110
sg8
F-3.5
sg9
F206.0
sa(dp7111
g4
VClippers
p7112
sg6
VTimberwolves
p7113
sg8
F15.0
sg9
F216.0
sasS'2014-12-03'
p7114
(lp7115
(dp7116
g4
VCavaliers
p7117
sg6
VMilwaukee
p7118
sg8
F10.5
sg9
F201.0
sa(dp7119
g4
VKnicks
p7120
sg6
VNets
p7121
sg8
F-1.0
sg9
F193.5
sa(dp7122
g4
VPistons
p7123
sg6
VLakers
p7124
sg8
F2.0
sg9
F206.5
sa(dp7125
g4
VHawks
p7126
sg6
VCeltics
p7127
sg8
F7.0
sg9
F211.0
sa(dp7128
g4
VPelicans
p7129
sg6
VThunder
p7130
sg8
F-3.5
sg9
F197.0
sa(dp7131
g4
VBulls
p7132
sg6
VMavericks
p7133
sg8
F1.0
sg9
F203.5
sa(dp7134
g4
VNuggets
p7135
sg6
VTrail Blaze
p7136
sg8
F3.0
sg9
F211.5
sa(dp7137
g4
VSuns
p7138
sg6
VPacers
p7139
sg8
F5.0
sg9
F196.5
sa(dp7140
g4
Vsac
p7141
sg6
VRaptors
p7142
sg8
F-2.5
sg9
F203.5
sa(dp7143
g4
VWarriors
p7144
sg6
VMagic
p7145
sg8
F14.5
sg9
F201.0
sasS'2014-12-01'
p7146
(lp7147
(dp7148
g4
VCeltics
p7149
sg6
VSpurs
p7150
sg8
F-7.5
sg9
F204.5
sa(dp7151
g4
VNets
p7152
sg6
VBulls
p7153
sg8
F-2.5
sg9
F193.5
sa(dp7154
g4
VPistons
p7155
sg6
VWarriors
p7156
sg8
F-9.0
sg9
F202.0
sa(dp7157
g4
Vsac
p7158
sg6
VGrizzlies
p7159
sg8
F-5.0
sg9
F192.5
sa(dp7160
g4
VKnicks
p7161
sg6
VHeat
p7162
sg8
F-3.0
sg9
F189.5
sa(dp7163
g4
VSuns
p7164
sg6
VMagic
p7165
sg8
F9.0
sg9
F204.5
sa(dp7166
g4
VTrail Blaze
p7167
sg6
VTimberwolves
p7168
sg8
F14.0
sg9
F212.0
sa(dp7169
g4
VLakers
p7170
sg6
VRaptors
p7171
sg8
F-7.5
sg9
F209.5
sasS'2014-12-06'
p7172
(lp7173
(dp7174
g4
V76ers
p7175
sg6
VThunder
p7176
sg8
F-13.5
sg9
F199.0
sa(dp7177
g4
VWizards
p7178
sg6
VNuggets
p7179
sg8
F4.5
sg9
F208.5
sa(dp7180
g4
VHornets
p7181
sg6
VKnicks
p7182
sg8
F4.5
sg9
F190.0
sa(dp7183
g4
VCeltics
p7184
sg6
VLakers
p7185
sg8
F3.0
sg9
F219.0
sa(dp7186
g4
VNets
p7187
sg6
VHawks
p7188
sg8
F-1.0
sg9
F201.0
sa(dp7189
g4
VRaptors
p7190
sg6
VCavaliers
p7191
sg8
F4.5
sg9
F209.0
sa(dp7192
g4
VTimberwolves
p7193
sg6
VRockets
p7194
sg8
F-7.0
sg9
F204.5
sa(dp7195
g4
VGrizzlies
p7196
sg6
VSpurs
p7197
sg8
F1.0
sg9
F191.0
sa(dp7198
g4
VMilwaukee
p7199
sg6
VHeat
p7200
sg8
F-1.5
sg9
F196.0
sa(dp7201
g4
VMavericks
p7202
sg6
VSuns
p7203
sg8
F5.5
sg9
F216.0
sa(dp7204
g4
VJazz
p7205
sg6
VMagic
p7206
sg8
F5.0
sg9
F191.5
sa(dp7207
g4
Vsac
p7208
sg6
VPacers
p7209
sg8
F3.0
sg9
F191.0
sasS'2014-12-07'
p7210
(lp7211
(dp7212
g4
VPistons
p7213
sg6
V76ers
p7214
sg8
F9.5
sg9
F194.5
sa(dp7215
g4
VBulls
p7216
sg6
VWarriors
p7217
sg8
F-2.5
sg9
F204.0
sa(dp7218
g4
VRockets
p7219
sg6
VSuns
p7220
sg8
F-2.0
sg9
F206.5
sa(dp7221
g4
VSpurs
p7222
sg6
VTimberwolves
p7223
sg8
F14.0
sg9
F201.5
sa(dp7224
g4
Vsac
p7225
sg6
VMagic
p7226
sg8
F6.0
sg9
F196.5
sa(dp7227
g4
VClippers
p7228
sg6
VPelicans
p7229
sg8
F9.0
sg9
F207.5
sasS'2014-12-04'
p7230
(lp7231
(dp7232
g4
VWizards
p7233
sg6
VLakers
p7234
sg8
F8.5
sg9
F208.0
sa(dp7235
g4
VHornets
p7236
sg6
VBulls
p7237
sg8
F3.5
sg9
F191.0
sa(dp7238
g4
VCeltics
p7239
sg6
VPistons
p7240
sg8
F5.0
sg9
F202.0
sa(dp7241
g4
VHeat
p7242
sg6
VHawks
p7243
sg8
F5.0
sg9
F199.5
sa(dp7244
g4
VNets
p7245
sg6
VSpurs
p7246
sg8
F-8.5
sg9
F198.0
sa(dp7247
g4
VMilwaukee
p7248
sg6
VMavericks
p7249
sg8
F4.0
sg9
F206.0
sa(dp7250
g4
VTimberwolves
p7251
sg6
V76ers
p7252
sg8
F7.0
sg9
F211.5
sa(dp7253
g4
VRockets
p7254
sg6
VGrizzlies
p7255
sg8
F-5.0
sg9
F189.5
sa(dp7256
g4
VJazz
p7257
sg6
VRaptors
p7258
sg8
F3.5
sg9
F201.5
sa(dp7259
g4
VClippers
p7260
sg6
VMagic
p7261
sg8
F15.0
sg9
F202.0
sasS'2014-12-05'
p7262
(lp7263
(dp7264
g4
VKnicks
p7265
sg6
VCavaliers
p7266
sg8
F-7.5
sg9
F198.0
sa(dp7267
g4
VTrail Blaze
p7268
sg6
VPacers
p7269
sg8
F8.5
sg9
F194.0
sa(dp7270
g4
VWarriors
p7271
sg6
VPelicans
p7272
sg8
F9.5
sg9
F207.0
sasS'2015-04-26'
p7273
(lp7274
(dp7275
g4
VNets
p7276
sg6
VHawks
p7277
sg8
F-3.5
sg9
F199.0
sa(dp7278
g4
VMilwaukee
p7279
sg6
VBulls
p7280
sg8
F-4.0
sg9
F190.0
sa(dp7281
g4
VPelicans
p7282
sg6
VWarriors
p7283
sg8
F-6.5
sg9
F208.5
sa(dp7284
g4
VTrail Blaze
p7285
sg6
VGrizzlies
p7286
sg8
F4.0
sg9
F189.0
sasS'2015-04-27'
p7287
(lp7288
(dp7289
g4
VCeltics
p7290
sg6
VCavaliers
p7291
sg8
F-6.5
sg9
F201.5
sa(dp7292
g4
VSpurs
p7293
sg6
VClippers
p7294
sg8
F6.0
sg9
F202.5
sa(dp7295
g4
VWizards
p7296
sg6
VRaptors
p7297
sg8
F6.5
sg9
F197.5
sa(dp7298
g4
VMavericks
p7299
sg6
VRockets
p7300
sg8
F-3.0
sg9
F218.5
sasS'2015-04-24'
p7301
(lp7302
(dp7303
g4
VCeltics
p7304
sg6
VCavaliers
p7305
sg8
F-5.5
sg9
F206.0
sa(dp7306
g4
VMilwaukee
p7307
sg6
VBulls
p7308
sg8
F-2.5
sg9
F187.5
sa(dp7309
g4
VPelicans
p7310
sg6
VWarriors
p7311
sg8
F-5.5
sg9
F203.5
sasS'2015-04-25'
p7312
(lp7313
(dp7314
g4
VMavericks
p7315
sg6
VRockets
p7316
sg8
F-1.0
sg9
F216.5
sa(dp7317
g4
VWizards
p7318
sg6
VRaptors
p7319
sg8
F4.5
sg9
F195.5
sa(dp7320
g4
VSpurs
p7321
sg6
VClippers
p7322
sg8
F5.0
sg9
F204.0
sasS'2015-04-22'
p7323
(lp7324
(dp7325
g4
VCavaliers
p7326
sg6
VCeltics
p7327
sg8
F11.0
sg9
F205.5
sa(dp7328
g4
VRaptors
p7329
sg6
VWizards
p7330
sg8
F5.0
sg9
F193.5
sa(dp7331
g4
VRockets
p7332
sg6
VMavericks
p7333
sg8
F6.5
sg9
F214.0
sasS'2015-04-23'
p7334
(lp7335
(dp7336
g4
VHawks
p7337
sg6
VNets
p7338
sg8
F9.0
sg9
F203.0
sa(dp7339
g4
VGrizzlies
p7340
sg6
VTrail Blaze
p7341
sg8
F6.0
sg9
F191.5
sa(dp7342
g4
VClippers
p7343
sg6
VSpurs
p7344
sg8
F2.0
sg9
F206.5
sasS'2015-04-20'
p7345
(lp7346
(dp7347
g4
VCavaliers
p7348
sg6
VCeltics
p7349
sg8
F12.0
sg9
F204.5
sa(dp7350
g4
VHawks
p7351
sg6
VNets
p7352
sg8
F11.0
sg9
F204.5
sa(dp7353
g4
VGrizzlies
p7354
sg6
VTrail Blaze
p7355
sg8
F5.5
sg9
F190.0
sa(dp7356
g4
VClippers
p7357
sg6
VSpurs
p7358
sg8
F1.5
sg9
F207.5
sasS'2015-04-21'
p7359
(lp7360
(dp7361
g4
VBulls
p7362
sg6
VMilwaukee
p7363
sg8
F8.0
sg9
F190.5
sa(dp7364
g4
VWarriors
p7365
sg6
VPelicans
p7366
sg8
F13.0
sg9
F206.5
sasS'2015-04-28'
p7367
(lp7368
(dp7369
g4
VNets
p7370
sg6
VHawks
p7371
sg8
F-5.5
sg9
F198.0
sa(dp7372
g4
VBulls
p7373
sg6
VMilwaukee
p7374
sg8
F8.0
sg9
F189.5
sa(dp7375
g4
VTrail Blaze
p7376
sg6
VGrizzlies
p7377
sg8
F4.0
sg9
F192.5
sasS'2015-04-29'
p7378
(lp7379
(dp7380
g4
VRockets
p7381
sg6
VMavericks
p7382
sg8
F8.0
sg9
F221.5
sa(dp7383
g4
VClippers
p7384
sg6
VSpurs
p7385
sg8
F2.5
sg9
F203.0
sasS'2016-04-14'
p7386
(lp7387
(dp7388
g4
VCeltics
p7389
sg6
VHeat
p7390
sg8
F4.5
sg9
F205.5
sa(dp7391
g4
VNets
p7392
sg6
VRaptors
p7393
sg8
F-5.5
sg9
F206.5
sa(dp7394
g4
VWizards
p7395
sg6
VHawks
p7396
sg8
F-9.5
sg9
F210.0
sa(dp7397
g4
VMilwaukee
p7398
sg6
VPacers
p7399
sg8
F5.0
sg9
F201.5
sa(dp7400
g4
VBulls
p7401
sg6
V76ers
p7402
sg8
F9.5
sg9
F210.0
sa(dp7403
g4
VCavaliers
p7404
sg6
VPistons
p7405
sg8
F4.0
sg9
F194.0
sa(dp7406
g4
VMavericks
p7407
sg6
VSpurs
p7408
sg8
F5.0
sg9
F187.5
sa(dp7409
g4
VTimberwolves
p7410
sg6
VPelicans
p7411
sg8
F10.0
sg9
F212.5
sa(dp7412
g4
VRockets
p7413
sg6
Vsac
p7414
sg8
F15.0
sg9
F220.0
sa(dp7415
g4
VHornets
p7416
sg6
VMagic
p7417
sg8
F7.0
sg9
F211.0
sa(dp7418
g4
VLakers
p7419
sg6
VJazz
p7420
sg8
F-3.5
sg9
F196.0
sa(dp7421
g4
VTrail Blaze
p7422
sg6
VNuggets
p7423
sg8
F10.0
sg9
F216.5
sa(dp7424
g4
VSuns
p7425
sg6
VClippers
p7426
sg8
F5.0
sg9
F205.5
sa(dp7427
g4
VWarriors
p7428
sg6
VGrizzlies
p7429
sg8
F17.5
sg9
F213.5
sasS'2016-04-10'
p7430
(lp7431
(dp7432
g4
VPelicans
p7433
sg6
VSuns
p7434
sg8
F-3.0
sg9
F209.0
sa(dp7435
g4
VHawks
p7436
sg6
VCeltics
p7437
sg8
F5.0
sg9
F208.0
sa(dp7438
g4
VGrizzlies
p7439
sg6
VWarriors
p7440
sg8
F-13.0
sg9
F214.0
sa(dp7441
g4
VBulls
p7442
sg6
VCavaliers
p7443
sg8
F-7.0
sg9
F204.5
sa(dp7444
g4
Vsac
p7445
sg6
VThunder
p7446
sg8
F-8.5
sg9
F225.0
sa(dp7447
g4
VTrail Blaze
p7448
sg6
VTimberwolves
p7449
sg8
F8.5
sg9
F216.0
sa(dp7450
g4
VWizards
p7451
sg6
VHornets
p7452
sg8
F-5.5
sg9
F203.5
sasS'2016-04-11'
p7453
(lp7454
(dp7455
g4
VRockets
p7456
sg6
VLakers
p7457
sg8
F14.5
sg9
F212.5
sa(dp7458
g4
VClippers
p7459
sg6
VMavericks
p7460
sg8
F6.5
sg9
F194.5
sa(dp7461
g4
V76ers
p7462
sg6
VMilwaukee
p7463
sg8
F-4.5
sg9
F206.0
sa(dp7464
g4
VNuggets
p7465
sg6
VJazz
p7466
sg8
F-6.5
sg9
F192.0
sa(dp7467
g4
VHeat
p7468
sg6
VMagic
p7469
sg8
F9.5
sg9
F211.5
sa(dp7470
g4
VPacers
p7471
sg6
VNets
p7472
sg8
F13.5
sg9
F204.5
sa(dp7473
g4
VSpurs
p7474
sg6
VWarriors
p7475
sg8
F3.5
sg9
F205.5
sa(dp7476
g4
VKnicks
p7477
sg6
VRaptors
p7478
sg8
F-6.5
sg9
F195.0
sasS'2016-04-12'
p7479
(lp7480
(dp7481
g4
VMagic
p7482
sg6
VMilwaukee
p7483
sg8
F2.5
sg9
F209.5
sa(dp7484
g4
VCavaliers
p7485
sg6
VHawks
p7486
sg8
F6.0
sg9
F205.5
sa(dp7487
g4
VCeltics
p7488
sg6
VHornets
p7489
sg8
F7.0
sg9
F210.0
sa(dp7490
g4
VNets
p7491
sg6
VWizards
p7492
sg8
F-6.5
sg9
F213.5
sa(dp7493
g4
VPelicans
p7494
sg6
VBulls
p7495
sg8
F-5.0
sg9
F204.5
sa(dp7496
g4
VTimberwolves
p7497
sg6
VRockets
p7498
sg8
F-3.5
sg9
F216.5
sa(dp7499
g4
VThunder
p7500
sg6
VLakers
p7501
sg8
F16.0
sg9
F217.0
sa(dp7502
g4
VJazz
p7503
sg6
VMavericks
p7504
sg8
F7.0
sg9
F182.5
sa(dp7505
g4
VSuns
p7506
sg6
Vsac
p7507
sg8
F6.0
sg9
F218.5
sasS'2016-04-13'
p7508
(lp7509
(dp7510
g4
VPacers
p7511
sg6
VKnicks
p7512
sg8
F11.0
sg9
F197.0
sa(dp7513
g4
VPistons
p7514
sg6
VHeat
p7515
sg8
F-2.0
sg9
F200.0
sa(dp7516
g4
VRaptors
p7517
sg6
V76ers
p7518
sg8
F12.0
sg9
F204.5
sa(dp7519
g4
VSpurs
p7520
sg6
VThunder
p7521
sg8
F13.0
sg9
F202.5
sa(dp7522
g4
VClippers
p7523
sg6
VGrizzlies
p7524
sg8
F9.0
sg9
F200.0
sasS'2016-01-22'
p7525
(lp7526
(dp7527
g4
VPelicans
p7528
sg6
VPistons
p7529
sg8
F2.5
sg9
F205.5
sa(dp7530
g4
VCavaliers
p7531
sg6
VClippers
p7532
sg8
F6.5
sg9
F203.0
sa(dp7533
g4
VNuggets
p7534
sg6
VGrizzlies
p7535
sg8
F-3.0
sg9
F197.0
sa(dp7536
g4
Vsac
p7537
sg6
VHawks
p7538
sg8
F1.0
sg9
F217.0
sa(dp7539
g4
VSuns
p7540
sg6
VSpurs
p7541
sg8
F-16.0
sg9
F199.5
sasS'2016-01-23'
p7542
(lp7543
(dp7544
g4
VMagic
p7545
sg6
VHornets
p7546
sg8
F5.0
sg9
F196.5
sa(dp7547
g4
VCeltics
p7548
sg6
VBulls
p7549
sg8
F4.0
sg9
F209.5
sa(dp7550
g4
VNets
p7551
sg6
VJazz
p7552
sg8
F-5.5
sg9
F188.0
sa(dp7553
g4
VKnicks
p7554
sg6
VClippers
p7555
sg8
F-2.0
sg9
F207.0
sa(dp7556
g4
VRaptors
p7557
sg6
VHeat
p7558
sg8
F10.5
sg9
F190.0
sa(dp7559
g4
VRockets
p7560
sg6
VMilwaukee
p7561
sg8
F2.5
sg9
F211.5
sa(dp7562
g4
VMavericks
p7563
sg6
VThunder
p7564
sg8
F-6.5
sg9
F207.5
sa(dp7565
g4
VLakers
p7566
sg6
VSpurs
p7567
sg8
F-16.5
sg9
F200.5
sa(dp7568
g4
VWarriors
p7569
sg6
VPacers
p7570
sg8
F12.5
sg9
F216.0
sasS'2015-03-18'
p7571
(lp7572
(dp7573
g4
VKnicks
p7574
sg6
VSpurs
p7575
sg8
F-15.0
sg9
F194.5
sa(dp7576
g4
VPistons
p7577
sg6
VGrizzlies
p7578
sg8
F-4.5
sg9
F183.5
sa(dp7579
g4
VPelicans
p7580
sg6
VMilwaukee
p7581
sg8
F7.0
sg9
F190.5
sa(dp7582
g4
VRockets
p7583
sg6
VMagic
p7584
sg8
F11.0
sg9
F206.5
sa(dp7585
g4
VClippers
p7586
sg6
VHornets
p7587
sg8
F10.0
sg9
F201.5
sasS'2016-01-21'
p7588
(lp7589
(dp7590
g4
VMagic
p7591
sg6
V76ers
p7592
sg8
F7.0
sg9
F195.0
sa(dp7593
g4
VWizards
p7594
sg6
VHeat
p7595
sg8
F6.0
sg9
F194.0
sa(dp7596
g4
VNets
p7597
sg6
VCavaliers
p7598
sg8
F-12.5
sg9
F196.5
sa(dp7599
g4
VKnicks
p7600
sg6
VJazz
p7601
sg8
F2.0
sg9
F187.0
sa(dp7602
g4
VRaptors
p7603
sg6
VCeltics
p7604
sg8
F3.5
sg9
F201.5
sa(dp7605
g4
VBulls
p7606
sg6
VWarriors
p7607
sg8
F-6.0
sg9
F216.0
sa(dp7608
g4
VRockets
p7609
sg6
VPistons
p7610
sg8
F3.0
sg9
F210.0
sa(dp7611
g4
VThunder
p7612
sg6
VHornets
p7613
sg8
F9.5
sg9
F206.0
sa(dp7614
g4
VMavericks
p7615
sg6
VTimberwolves
p7616
sg8
F6.0
sg9
F200.0
sa(dp7617
g4
VLakers
p7618
sg6
Vsac
p7619
sg8
F-7.0
sg9
F215.0
sa(dp7620
g4
VTrail Blaze
p7621
sg6
VHawks
p7622
sg8
F-1.5
sg9
F212.0
sasS'2016-01-26'
p7623
(lp7624
(dp7625
g4
VWizards
p7626
sg6
VCeltics
p7627
sg8
F3.0
sg9
F213.5
sa(dp7628
g4
VCavaliers
p7629
sg6
VTimberwolves
p7630
sg8
F13.0
sg9
F205.5
sa(dp7631
g4
VPelicans
p7632
sg6
VRockets
p7633
sg8
F4.0
sg9
F216.5
sa(dp7634
g4
VBulls
p7635
sg6
VHeat
p7636
sg8
F6.5
sg9
F192.0
sa(dp7637
g4
VGrizzlies
p7638
sg6
VMagic
p7639
sg8
F5.5
sg9
F190.5
sa(dp7640
g4
VJazz
p7641
sg6
VPistons
p7642
sg8
F3.0
sg9
F192.0
sa(dp7643
g4
VNuggets
p7644
sg6
VHawks
p7645
sg8
F-3.5
sg9
F208.0
sa(dp7646
g4
Vsac
p7647
sg6
VHornets
p7648
sg8
F8.0
sg9
F213.0
sa(dp7649
g4
VWarriors
p7650
sg6
VSpurs
p7651
sg8
F4.5
sg9
F211.5
sasS'2016-01-27'
p7652
(lp7653
(dp7654
g4
V76ers
p7655
sg6
VSuns
p7656
sg8
F2.0
sg9
F204.0
sa(dp7657
g4
VPacers
p7658
sg6
VClippers
p7659
sg8
F-1.0
sg9
F206.0
sa(dp7660
g4
VNets
p7661
sg6
VHeat
p7662
sg8
F-3.5
sg9
F192.0
sa(dp7663
g4
VKnicks
p7664
sg6
VThunder
p7665
sg8
F-9.0
sg9
F209.0
sa(dp7666
g4
VRaptors
p7667
sg6
VWizards
p7668
sg8
F8.0
sg9
F206.5
sa(dp7669
g4
VMilwaukee
p7670
sg6
VMagic
p7671
sg8
F5.0
sg9
F197.0
sa(dp7672
g4
VTrail Blaze
p7673
sg6
Vsac
p7674
sg8
F5.0
sg9
F214.0
sa(dp7675
g4
VLakers
p7676
sg6
VMavericks
p7677
sg8
F-6.5
sg9
F201.0
sasS'2016-01-24'
p7678
(lp7679
(dp7680
g4
VPelicans
p7681
sg6
VMilwaukee
p7682
sg8
F6.5
sg9
F202.5
sa(dp7683
g4
VHornets
p7684
sg6
VKnicks
p7685
sg8
F-1.5
sg9
F201.0
sa(dp7686
g4
VTimberwolves
p7687
sg6
VGrizzlies
p7688
sg8
F-3.5
sg9
F192.0
sa(dp7689
g4
VCavaliers
p7690
sg6
VBulls
p7691
sg8
F10.5
sg9
F202.0
sa(dp7692
g4
VSuns
p7693
sg6
VHawks
p7694
sg8
F-10.0
sg9
F203.0
sa(dp7695
g4
VNuggets
p7696
sg6
VPistons
p7697
sg8
F-4.5
sg9
F205.0
sa(dp7698
g4
Vsac
p7699
sg6
VPacers
p7700
sg8
F3.0
sg9
F214.5
sa(dp7701
g4
VTrail Blaze
p7702
sg6
VLakers
p7703
sg8
F11.5
sg9
F209.5
sasS'2016-01-25'
p7704
(lp7705
(dp7706
g4
VRockets
p7707
sg6
VMavericks
p7708
sg8
F4.0
sg9
F205.0
sa(dp7709
g4
VRaptors
p7710
sg6
VClippers
p7711
sg8
F2.5
sg9
F205.5
sa(dp7712
g4
V76ers
p7713
sg6
VCeltics
p7714
sg8
F-8.0
sg9
F205.5
sa(dp7715
g4
VNets
p7716
sg6
VThunder
p7717
sg8
F-13.5
sg9
F209.0
sasS'2015-03-12'
p7718
(lp7719
(dp7720
g4
V76ers
p7721
sg6
VBulls
p7722
sg8
F-6.5
sg9
F189.0
sa(dp7723
g4
VHornets
p7724
sg6
Vsac
p7725
sg8
F8.5
sg9
F205.0
sa(dp7726
g4
VCeltics
p7727
sg6
VGrizzlies
p7728
sg8
F-6.5
sg9
F188.5
sa(dp7729
g4
VHeat
p7730
sg6
VNets
p7731
sg8
F4.5
sg9
F200.0
sa(dp7732
g4
VMilwaukee
p7733
sg6
VMagic
p7734
sg8
F8.0
sg9
F189.5
sa(dp7735
g4
VThunder
p7736
sg6
VClippers
p7737
sg8
F6.5
sg9
F210.0
sa(dp7738
g4
VNuggets
p7739
sg6
VHawks
p7740
sg8
F-7.0
sg9
F208.0
sa(dp7741
g4
VSuns
p7742
sg6
VTimberwolves
p7743
sg8
F4.5
sg9
F204.5
sa(dp7744
g4
VTrail Blaze
p7745
sg6
VRockets
p7746
sg8
F2.5
sg9
F206.5
sa(dp7747
g4
VWarriors
p7748
sg6
VPistons
p7749
sg8
F14.5
sg9
F205.0
sasS'2015-03-13'
p7750
(lp7751
(dp7752
g4
VWizards
p7753
sg6
VGrizzlies
p7754
sg8
F8.0
sg9
F182.0
sa(dp7755
g4
VPacers
p7756
sg6
VMilwaukee
p7757
sg8
F7.0
sg9
F188.0
sa(dp7758
g4
VJazz
p7759
sg6
VRockets
p7760
sg8
F-2.0
sg9
F191.0
sa(dp7761
g4
VSpurs
p7762
sg6
VCavaliers
p7763
sg8
F-1.5
sg9
F206.5
sa(dp7764
g4
VLakers
p7765
sg6
VKnicks
p7766
sg8
F7.0
sg9
F191.5
sasS'2015-03-10'
p7767
(lp7768
(dp7769
g4
VHornets
p7770
sg6
VWizards
p7771
sg8
F2.5
sg9
F192.0
sa(dp7772
g4
VHeat
p7773
sg6
VCeltics
p7774
sg8
F2.5
sg9
F198.0
sa(dp7775
g4
VHawks
p7776
sg6
Vsac
p7777
sg8
F11.0
sg9
F210.5
sa(dp7778
g4
VMilwaukee
p7779
sg6
VPelicans
p7780
sg8
F-1.5
sg9
F186.5
sa(dp7781
g4
VBulls
p7782
sg6
VGrizzlies
p7783
sg8
F-5.5
sg9
F183.0
sa(dp7784
g4
VNuggets
p7785
sg6
VKnicks
p7786
sg8
F10.0
sg9
F204.5
sa(dp7787
g4
VSuns
p7788
sg6
VWarriors
p7789
sg8
F-5.5
sg9
F213.5
sa(dp7790
g4
VClippers
p7791
sg6
VTimberwolves
p7792
sg8
F7.5
sg9
F206.5
sasS'2015-03-11'
p7793
(lp7794
(dp7795
g4
VPacers
p7796
sg6
VMagic
p7797
sg8
F8.5
sg9
F187.5
sa(dp7798
g4
VNets
p7799
sg6
VPelicans
p7800
sg8
F2.5
sg9
F192.0
sa(dp7801
g4
VMavericks
p7802
sg6
VCavaliers
p7803
sg8
F-4.0
sg9
F200.5
sa(dp7804
g4
VSpurs
p7805
sg6
VRaptors
p7806
sg8
F7.0
sg9
F204.5
sa(dp7807
g4
VJazz
p7808
sg6
VKnicks
p7809
sg8
F13.5
sg9
F178.5
sa(dp7810
g4
VLakers
p7811
sg6
VPistons
p7812
sg8
F-3.5
sg9
F202.0
sasS'2015-03-16'
p7813
(lp7814
(dp7815
g4
VThunder
p7816
sg6
VBulls
p7817
sg8
F7.0
sg9
F205.0
sa(dp7818
g4
VClippers
p7819
sg6
VRockets
p7820
sg8
F5.0
sg9
F213.5
sa(dp7821
g4
VMagic
p7822
sg6
VCavaliers
p7823
sg8
F-10.5
sg9
F200.0
sa(dp7824
g4
VPelicans
p7825
sg6
VNuggets
p7826
sg8
F7.5
sg9
F209.0
sa(dp7827
g4
VRaptors
p7828
sg6
VTrail Blaze
p7829
sg8
F1.5
sg9
F205.0
sa(dp7830
g4
VSpurs
p7831
sg6
VTimberwolves
p7832
sg8
F14.0
sg9
F206.0
sa(dp7833
g4
VSuns
p7834
sg6
VKnicks
p7835
sg8
F11.5
sg9
F196.0
sa(dp7836
g4
VLakers
p7837
sg6
VHawks
p7838
sg8
F-6.5
sg9
F194.5
sasS'2015-03-17'
p7839
(lp7840
(dp7841
g4
VWizards
p7842
sg6
VTrail Blaze
p7843
sg8
F1.0
sg9
F198.0
sa(dp7844
g4
VPacers
p7845
sg6
VRaptors
p7846
sg8
F5.0
sg9
F198.0
sa(dp7847
g4
VCeltics
p7848
sg6
V76ers
p7849
sg8
F8.5
sg9
F195.5
sa(dp7850
g4
VHeat
p7851
sg6
VCavaliers
p7852
sg8
F-5.5
sg9
F203.0
sa(dp7853
g4
VTimberwolves
p7854
sg6
VNets
p7855
sg8
F-5.0
sg9
F197.5
sa(dp7856
g4
VGrizzlies
p7857
sg6
VNuggets
p7858
sg8
F12.5
sg9
F194.0
sa(dp7859
g4
VMavericks
p7860
sg6
VThunder
p7861
sg8
F6.0
sg9
F215.0
sa(dp7862
g4
VJazz
p7863
sg6
VHornets
p7864
sg8
F4.5
sg9
F180.5
sa(dp7865
g4
Vsac
p7866
sg6
VHawks
p7867
sg8
F-4.5
sg9
F206.5
sa(dp7868
g4
VWarriors
p7869
sg6
VLakers
p7870
sg8
F18.0
sg9
F209.0
sasS'2015-03-14'
p7871
(lp7872
(dp7873
g4
V76ers
p7874
sg6
Vsac
p7875
sg8
F-4.5
sg9
F206.0
sa(dp7876
g4
VHornets
p7877
sg6
VBulls
p7878
sg8
F0.0
sg9
F188.0
sa(dp7879
g4
VCeltics
p7880
sg6
VMagic
p7881
sg8
F5.0
sg9
F195.5
sa(dp7882
g4
VRaptors
p7883
sg6
VHeat
p7884
sg8
F5.0
sg9
F204.0
sa(dp7885
g4
VThunder
p7886
sg6
VTimberwolves
p7887
sg8
F10.5
sg9
F212.0
sa(dp7888
g4
VMavericks
p7889
sg6
VClippers
p7890
sg8
F2.5
sg9
F204.0
sa(dp7891
g4
VNuggets
p7892
sg6
VWarriors
p7893
sg8
F3.0
sg9
F207.0
sa(dp7894
g4
VTrail Blaze
p7895
sg6
VPistons
p7896
sg8
F8.0
sg9
F195.5
sa(dp7897
g4
VSuns
p7898
sg6
VHawks
p7899
sg8
F-6.5
sg9
F202.5
sasS'2015-03-15'
p7900
(lp7901
(dp7902
g4
VWizards
p7903
sg6
Vsac
p7904
sg8
F10.0
sg9
F207.5
sa(dp7905
g4
VPacers
p7906
sg6
VCeltics
p7907
sg8
F9.0
sg9
F193.0
sa(dp7908
g4
V76ers
p7909
sg6
VNets
p7910
sg8
F-6.5
sg9
F197.0
sa(dp7911
g4
VGrizzlies
p7912
sg6
VMilwaukee
p7913
sg8
F6.5
sg9
F183.5
sa(dp7914
g4
VJazz
p7915
sg6
VPistons
p7916
sg8
F8.0
sg9
F183.5
sa(dp7917
g4
VWarriors
p7918
sg6
VKnicks
p7919
sg8
F19.5
sg9
F199.5
sasS'2015-12-31'
p7920
(lp7921
(dp7922
g4
VMagic
p7923
sg6
VNets
p7924
sg8
F7.5
sg9
F198.5
sa(dp7925
g4
VHornets
p7926
sg6
VClippers
p7927
sg8
F-1.5
sg9
F201.5
sa(dp7928
g4
VCeltics
p7929
sg6
VLakers
p7930
sg8
F13.5
sg9
F207.5
sa(dp7931
g4
VRaptors
p7932
sg6
VWizards
p7933
sg8
F7.5
sg9
F204.5
sa(dp7934
g4
VBulls
p7935
sg6
VPacers
p7936
sg8
F3.5
sg9
F201.5
sa(dp7937
g4
VTimberwolves
p7938
sg6
VJazz
p7939
sg8
F3.5
sg9
F191.5
sa(dp7940
g4
VMavericks
p7941
sg6
VWarriors
p7942
sg8
F-3.5
sg9
F208.5
sa(dp7943
g4
VSpurs
p7944
sg6
VSuns
p7945
sg8
F14.5
sg9
F198.5
sa(dp7946
g4
Vsac
p7947
sg6
V76ers
p7948
sg8
F10.5
sg9
F215.5
sa(dp7949
g4
VTrail Blaze
p7950
sg6
VNuggets
p7951
sg8
F6.5
sg9
F201.5
sasS'2015-10-05'
p7952
(lp7953
(dp7954
g4
VHeat
p7955
sg6
VHornets
p7956
sg8
F7.0
sg9
F189.5
sa(dp7957
g4
VRaptors
p7958
sg6
VClippers
p7959
sg8
F-3.5
sg9
F202.5
sa(dp7960
g4
VLakers
p7961
sg6
VJazz
p7962
sg8
F-3.0
sg9
F190.0
sasS'2015-10-04'
p7963
(lp7964
(dp7965
g4
VMagic
p7966
sg6
VHornets
p7967
sg8
F2.5
sg9
F190.0
sa(dp7968
g4
VPacers
p7969
sg6
VPelicans
p7970
sg8
F5.0
sg9
F196.0
sasS'2015-10-07'
p7971
(lp7972
(dp7973
g4
VOlimpiamilano
p7974
sg6
VCeltics
p7975
sg8
F-7.5
sg9
F194.5
sa(dp7976
g4
VWizards
p7977
sg6
V76ers
p7978
sg8
F7.0
sg9
F187.5
sa(dp7979
g4
VPistons
p7980
sg6
VPacers
p7981
sg8
F-4.0
sg9
F193.5
sa(dp7982
g4
VBulls
p7983
sg6
VMilwaukee
p7984
sg8
F1.0
sg9
F190.0
sa(dp7985
g4
VGrizzlies
p7986
sg6
VRockets
p7987
sg8
F-1.5
sg9
F193.0
sa(dp7988
g4
VMavericks
p7989
sg6
VNuggets
p7990
sg8
F-4.0
sg9
F194.5
sa(dp7991
g4
VLakers
p7992
sg6
VJazz
p7993
sg8
F-3.5
sg9
F183.0
sasS'2015-10-06'
p7994
(lp7995
(dp7996
g4
VNets
p7997
sg6
VFenerbahce Ulker
p7998
sg8
F9.5
sg9
F192.0
sa(dp7999
g4
VTrail Blaze
p8000
sg6
Vsac
p8001
sg8
F-5.0
sg9
F196.5
sa(dp8002
g4
VWarriors
p8003
sg6
VRaptors
p8004
sg8
F7.5
sg9
F198.5
sasS'2015-10-03'
p8005
(lp8006
(dp8007
g4
VClippers
p8008
sg6
VNuggets
p8009
sg8
F7.5
sg9
F206.0
sasS'2015-10-09'
p8010
(lp8011
(dp8012
g4
VReal Madrid
p8013
sg6
VCeltics
p8014
sg8
F-6.0
sg9
F206.5
sa(dp8015
g4
V76ers
p8016
sg6
VCavaliers
p8017
sg8
F2.0
sg9
F187.0
sa(dp8018
g4
VPacers
p8019
sg6
VMagic
p8020
sg8
F5.5
sg9
F201.5
sa(dp8021
g4
VPistons
p8022
sg6
VNets
p8023
sg8
F10.0
sg9
F192.0
sa(dp8024
g4
VGrizzlies
p8025
sg6
VHeat Haifa
p8026
sg8
F29.5
sg9
F191.5
sa(dp8027
g4
VNuggets
p8028
sg6
VBulls
p8029
sg8
F-2.5
sg9
F195.0
sa(dp8030
g4
VLakers
p8031
sg6
VRaptors
p8032
sg8
F-5.5
sg9
F189.0
sa(dp8033
g4
Vsac
p8034
sg6
VSpurs
p8035
sg8
F4.0
sg9
F194.5
sa(dp8036
g4
VTrail Blaze
p8037
sg6
VWarriors
p8038
sg8
F-5.5
sg9
F197.5
sasS'2015-10-08'
p8039
(lp8040
(dp8041
g4
VCavaliers
p8042
sg6
VHawks
p8043
sg8
F2.5
sg9
F191.0
sa(dp8044
g4
VHeat
p8045
sg6
VMagic
p8046
sg8
F3.5
sg9
F194.5
sa(dp8047
g4
VKnicks
p8048
sg6
VGRSA
p8049
sg8
F18.5
sg9
F193.5
sa(dp8050
g4
VTimberwolves
p8051
sg6
VThunder
p8052
sg8
F-6.0
sg9
F203.0
sa(dp8053
g4
VRockets
p8054
sg6
VMavericks
p8055
sg8
F4.0
sg9
F194.0
sa(dp8056
g4
VSuns
p8057
sg6
Vsac
p8058
sg8
F1.0
sg9
F199.5
sasS'2015-01-25'
p8059
(lp8060
(dp8061
g4
VHornets
p8062
sg6
VKnicks
p8063
sg8
F9.0
sg9
F181.5
sa(dp8064
g4
VMilwaukee
p8065
sg6
VPistons
p8066
sg8
F-3.0
sg9
F195.0
sa(dp8067
g4
VGrizzlies
p8068
sg6
V76ers
p8069
sg8
F18.0
sg9
F190.0
sa(dp8070
g4
VJazz
p8071
sg6
VNets
p8072
sg8
F4.0
sg9
F187.5
sa(dp8073
g4
VTrail Blaze
p8074
sg6
VWizards
p8075
sg8
F-3.5
sg9
F195.5
sasS'2015-01-24'
p8076
(lp8077
(dp8078
g4
V76ers
p8079
sg6
VRaptors
p8080
sg8
F-13.0
sg9
F195.5
sa(dp8081
g4
VHeat
p8082
sg6
VPacers
p8083
sg8
F3.5
sg9
F183.5
sa(dp8084
g4
VKnicks
p8085
sg6
VMagic
p8086
sg8
F-3.0
sg9
F206.5
sa(dp8087
g4
VHawks
p8088
sg6
VThunder
p8089
sg8
F3.5
sg9
F207.5
sa(dp8090
g4
VCavaliers
p8091
sg6
VHornets
p8092
sg8
F10.0
sg9
F193.5
sa(dp8093
g4
VMavericks
p8094
sg6
VBulls
p8095
sg8
F5.5
sg9
F203.0
sa(dp8096
g4
VTimberwolves
p8097
sg6
VPelicans
p8098
sg8
F-6.0
sg9
F196.5
sa(dp8099
g4
VSpurs
p8100
sg6
VLakers
p8101
sg8
F14.0
sg9
F198.0
sa(dp8102
g4
VNuggets
p8103
sg6
VCeltics
p8104
sg8
F6.5
sg9
F203.5
sa(dp8105
g4
VSuns
p8106
sg6
VRockets
p8107
sg8
F2.5
sg9
F221.0
sa(dp8108
g4
VWarriors
p8109
sg6
Vsac
p8110
sg8
F15.5
sg9
F218.0
sasS'2015-01-27'
p8111
(lp8112
(dp8113
g4
VPelicans
p8114
sg6
V76ers
p8115
sg8
F15.0
sg9
F189.5
sa(dp8116
g4
VGrizzlies
p8117
sg6
VMagic
p8118
sg8
F12.0
sg9
F204.0
sa(dp8119
g4
VThunder
p8120
sg6
VTimberwolves
p8121
sg8
F13.5
sg9
F206.0
sa(dp8122
g4
VJazz
p8123
sg6
VCeltics
p8124
sg8
F7.0
sg9
F194.0
sa(dp8125
g4
VClippers
p8126
sg6
VNuggets
p8127
sg8
F14.0
sg9
F215.0
sasS'2015-01-26'
p8128
(lp8129
(dp8130
g4
VBulls
p8131
sg6
VHeat
p8132
sg8
F7.5
sg9
F184.0
sa(dp8133
g4
VCavaliers
p8134
sg6
VThunder
p8135
sg8
F3.5
sg9
F212.0
sa(dp8136
g4
VMagic
p8137
sg6
VPacers
p8138
sg8
F-1.5
sg9
F204.0
sa(dp8139
g4
VPelicans
p8140
sg6
VMavericks
p8141
sg8
F-3.5
sg9
F199.0
sa(dp8142
g4
VHawks
p8143
sg6
VTimberwolves
p8144
sg8
F17.5
sg9
F200.5
sa(dp8145
g4
VSuns
p8146
sg6
VClippers
p8147
sg8
F-2.5
sg9
F223.0
sa(dp8148
g4
VRaptors
p8149
sg6
VPistons
p8150
sg8
F8.0
sg9
F199.0
sa(dp8151
g4
VSpurs
p8152
sg6
VMilwaukee
p8153
sg8
F11.5
sg9
F192.5
sa(dp8154
g4
VNuggets
p8155
sg6
VWizards
p8156
sg8
F-3.5
sg9
F203.5
sa(dp8157
g4
VWarriors
p8158
sg6
VCeltics
p8159
sg8
F18.0
sg9
F213.0
sa(dp8160
g4
VLakers
p8161
sg6
VRockets
p8162
sg8
F-8.5
sg9
F207.0
sasS'2015-01-21'
p8163
(lp8164
(dp8165
g4
VHeat
p8166
sg6
VThunder
p8167
sg8
F-7.5
sg9
F200.5
sa(dp8168
g4
VNuggets
p8169
sg6
VSpurs
p8170
sg8
F-9.0
sg9
F204.0
sasS'2015-01-20'
p8171
(lp8172
(dp8173
g4
VWizards
p8174
sg6
V76ers
p8175
sg8
F14.0
sg9
F191.5
sa(dp8176
g4
VHornets
p8177
sg6
VTimberwolves
p8178
sg8
F6.0
sg9
F193.5
sa(dp8179
g4
VHawks
p8180
sg6
VPistons
p8181
sg8
F7.5
sg9
F203.5
sa(dp8182
g4
VClippers
p8183
sg6
VCeltics
p8184
sg8
F12.0
sg9
F212.0
sa(dp8185
g4
VWarriors
p8186
sg6
VNuggets
p8187
sg8
F14.5
sg9
F217.0
sa(dp8188
g4
VGrizzlies
p8189
sg6
VMavericks
p8190
sg8
F3.0
sg9
F203.0
sa(dp8191
g4
VKnicks
p8192
sg6
VPelicans
p8193
sg8
F-4.5
sg9
F189.0
sa(dp8194
g4
VRockets
p8195
sg6
VPacers
p8196
sg8
F10.0
sg9
F195.0
sa(dp8197
g4
VCavaliers
p8198
sg6
VBulls
p8199
sg8
F4.5
sg9
F206.5
sa(dp8200
g4
VMilwaukee
p8201
sg6
VRaptors
p8202
sg8
F1.5
sg9
F197.0
sa(dp8203
g4
VTrail Blaze
p8204
sg6
Vsac
p8205
sg8
F9.5
sg9
F206.0
sa(dp8206
g4
VSuns
p8207
sg6
VLakers
p8208
sg8
F10.0
sg9
F214.5
sasS'2015-01-23'
p8209
(lp8210
(dp8211
g4
VMilwaukee
p8212
sg6
VJazz
p8213
sg8
F8.5
sg9
F185.0
sa(dp8214
g4
VBulls
p8215
sg6
VSpurs
p8216
sg8
F-5.5
sg9
F196.5
sa(dp8217
g4
VTrail Blaze
p8218
sg6
VCeltics
p8219
sg8
F7.0
sg9
F203.5
sa(dp8220
g4
VClippers
p8221
sg6
VNets
p8222
sg8
F13.5
sg9
F203.0
sasS'2015-01-22'
p8223
(lp8224
(dp8225
g4
V76ers
p8226
sg6
VKnicks
p8227
sg8
F-3.0
sg9
F190.0
sa(dp8228
g4
VCavaliers
p8229
sg6
VJazz
p8230
sg8
F9.5
sg9
F196.5
sa(dp8231
g4
VHornets
p8232
sg6
VHeat
p8233
sg8
F6.0
sg9
F184.0
sa(dp8234
g4
VPistons
p8235
sg6
VMagic
p8236
sg8
F8.0
sg9
F209.5
sa(dp8237
g4
VHawks
p8238
sg6
VPacers
p8239
sg8
F10.5
sg9
F192.5
sa(dp8240
g4
VWizards
p8241
sg6
VThunder
p8242
sg8
F0.0
sg9
F207.0
sa(dp8243
g4
VPelicans
p8244
sg6
VLakers
p8245
sg8
F7.0
sg9
F203.0
sa(dp8246
g4
VTimberwolves
p8247
sg6
VMavericks
p8248
sg8
F-9.5
sg9
F214.0
sa(dp8249
g4
VGrizzlies
p8250
sg6
VRaptors
p8251
sg8
F6.0
sg9
F201.5
sa(dp8252
g4
VSuns
p8253
sg6
VTrail Blaze
p8254
sg8
F7.5
sg9
F211.5
sa(dp8255
g4
Vsac
p8256
sg6
VNets
p8257
sg8
F5.5
sg9
F197.5
sa(dp8258
g4
VWarriors
p8259
sg6
VRockets
p8260
sg8
F8.0
sg9
F219.0
sasS'2015-01-29'
p8261
(lp8262
(dp8263
g4
V76ers
p8264
sg6
VPistons
p8265
sg8
F-8.0
sg9
F192.0
sa(dp8266
g4
VCavaliers
p8267
sg6
VTrail Blaze
p8268
sg8
F2.5
sg9
F204.0
sa(dp8269
g4
VRaptors
p8270
sg6
Vsac
p8271
sg8
F5.0
sg9
F209.5
sa(dp8272
g4
VKnicks
p8273
sg6
VThunder
p8274
sg8
F-8.0
sg9
F195.5
sa(dp8275
g4
VPelicans
p8276
sg6
VNuggets
p8277
sg8
F6.0
sg9
F202.5
sa(dp8278
g4
VHawks
p8279
sg6
VNets
p8280
sg8
F14.5
sg9
F192.0
sa(dp8281
g4
VTimberwolves
p8282
sg6
VCeltics
p8283
sg8
F-4.0
sg9
F199.0
sa(dp8284
g4
VRockets
p8285
sg6
VMavericks
p8286
sg8
F4.0
sg9
F210.5
sa(dp8287
g4
VSpurs
p8288
sg6
VHornets
p8289
sg8
F12.5
sg9
F187.0
sa(dp8290
g4
VJazz
p8291
sg6
VClippers
p8292
sg8
F-6.5
sg9
F199.0
sa(dp8293
g4
VSuns
p8294
sg6
VWizards
p8295
sg8
F6.0
sg9
F211.0
sasS'2015-01-28'
p8296
(lp8297
(dp8298
g4
VPacers
p8299
sg6
VRaptors
p8300
sg8
F-3.0
sg9
F194.5
sa(dp8301
g4
VHeat
p8302
sg6
VMilwaukee
p8303
sg8
F2.0
sg9
F186.5
sa(dp8304
g4
VPistons
p8305
sg6
VCavaliers
p8306
sg8
F-8.5
sg9
F209.0
sa(dp8307
g4
VMavericks
p8308
sg6
VGrizzlies
p8309
sg8
F6.0
sg9
F199.0
sa(dp8310
g4
VLakers
p8311
sg6
VWizards
p8312
sg8
F-9.0
sg9
F193.5
sa(dp8313
g4
VWarriors
p8314
sg6
VBulls
p8315
sg8
F11.5
sg9
F213.5
sasS'2016-02-09'
p8316
(lp8317
(dp8318
g4
V76ers
p8319
sg6
VClippers
p8320
sg8
F-9.0
sg9
F208.0
sa(dp8321
g4
VPacers
p8322
sg6
VLakers
p8323
sg8
F12.5
sg9
F206.5
sa(dp8324
g4
VCavaliers
p8325
sg6
Vsac
p8326
sg8
F12.0
sg9
F218.0
sa(dp8327
g4
VHornets
p8328
sg6
VBulls
p8329
sg8
F8.0
sg9
F199.0
sa(dp8330
g4
VNets
p8331
sg6
VNuggets
p8332
sg8
F-2.5
sg9
F206.0
sa(dp8333
g4
VPistons
p8334
sg6
VRaptors
p8335
sg8
F-2.0
sg9
F205.5
sa(dp8336
g4
VHawks
p8337
sg6
VMagic
p8338
sg8
F9.0
sg9
F202.5
sa(dp8339
g4
VTimberwolves
p8340
sg6
VPelicans
p8341
sg8
F2.0
sg9
F209.5
sa(dp8342
g4
VGrizzlies
p8343
sg6
VTrail Blaze
p8344
sg8
F3.0
sg9
F199.0
sa(dp8345
g4
VSuns
p8346
sg6
VThunder
p8347
sg8
F-13.0
sg9
F213.5
sasS'2016-02-08'
p8348
(lp8349
(dp8350
g4
VCeltics
p8351
sg6
Vsac
p8352
sg8
F8.0
sg9
F218.0
sa(dp8353
g4
VKnicks
p8354
sg6
VNuggets
p8355
sg8
F4.0
sg9
F201.5
sa(dp8356
g4
VMagic
p8357
sg6
VHawks
p8358
sg8
F-3.0
sg9
F203.0
sa(dp8359
g4
VHeat
p8360
sg6
VClippers
p8361
sg8
F-1.0
sg9
F195.0
sasS'2016-02-01'
p8362
(lp8363
(dp8364
g4
VClippers
p8365
sg6
VBulls
p8366
sg8
F4.0
sg9
F203.0
sa(dp8367
g4
VHeat
p8368
sg6
VHawks
p8369
sg8
F-3.0
sg9
F198.0
sa(dp8370
g4
VMagic
p8371
sg6
VCeltics
p8372
sg8
F-4.0
sg9
F202.5
sa(dp8373
g4
VMavericks
p8374
sg6
VSuns
p8375
sg8
F8.5
sg9
F198.0
sa(dp8376
g4
VKnicks
p8377
sg6
VWarriors
p8378
sg8
F-11.0
sg9
F218.0
sa(dp8379
g4
VTrail Blaze
p8380
sg6
VTimberwolves
p8381
sg8
F6.5
sg9
F209.0
sa(dp8382
g4
VLakers
p8383
sg6
VHornets
p8384
sg8
F-4.0
sg9
F201.0
sasS'2016-02-03'
p8385
(lp8386
(dp8387
g4
VKnicks
p8388
sg6
VCeltics
p8389
sg8
F-4.5
sg9
F208.0
sa(dp8390
g4
VRockets
p8391
sg6
VHeat
p8392
sg8
F4.5
sg9
F211.0
sa(dp8393
g4
VSuns
p8394
sg6
VRaptors
p8395
sg8
F-9.5
sg9
F199.5
sa(dp8396
g4
VTrail Blaze
p8397
sg6
VMilwaukee
p8398
sg8
F7.0
sg9
F205.5
sa(dp8399
g4
VLakers
p8400
sg6
VTimberwolves
p8401
sg8
F-4.5
sg9
F206.5
sasS'2016-02-02'
p8402
(lp8403
(dp8404
g4
VPacers
p8405
sg6
VCavaliers
p8406
sg8
F-5.0
sg9
F207.5
sa(dp8407
g4
VNets
p8408
sg6
VPistons
p8409
sg8
F-7.0
sg9
F202.5
sa(dp8410
g4
VPelicans
p8411
sg6
VGrizzlies
p8412
sg8
F3.0
sg9
F203.0
sa(dp8413
g4
VHawks
p8414
sg6
VMavericks
p8415
sg8
F6.0
sg9
F199.0
sa(dp8416
g4
VThunder
p8417
sg6
VWizards
p8418
sg8
F10.0
sg9
F222.5
sa(dp8419
g4
VSpurs
p8420
sg6
VMagic
p8421
sg8
F15.5
sg9
F201.5
sa(dp8422
g4
VJazz
p8423
sg6
VBulls
p8424
sg8
F5.5
sg9
F190.5
sa(dp8425
g4
VNuggets
p8426
sg6
VRaptors
p8427
sg8
F-4.5
sg9
F204.5
sa(dp8428
g4
Vsac
p8429
sg6
VMilwaukee
p8430
sg8
F1.5
sg9
F214.0
sasS'2016-02-05'
p8431
(lp8432
(dp8433
g4
VPistons
p8434
sg6
VKnicks
p8435
sg8
F4.0
sg9
F201.0
sa(dp8436
g4
VSuns
p8437
sg6
VRockets
p8438
sg8
F-7.5
sg9
F217.5
sa(dp8439
g4
VPelicans
p8440
sg6
VLakers
p8441
sg8
F9.5
sg9
F211.5
sa(dp8442
g4
VTrail Blaze
p8443
sg6
VRaptors
p8444
sg8
F2.0
sg9
F206.5
sasS'2016-02-04'
p8445
(lp8446
(dp8447
g4
V76ers
p8448
sg6
VHawks
p8449
sg8
F-7.5
sg9
F209.5
sa(dp8450
g4
VHornets
p8451
sg6
VCavaliers
p8452
sg8
F-7.5
sg9
F201.5
sa(dp8453
g4
VCeltics
p8454
sg6
VPistons
p8455
sg8
F4.5
sg9
F209.5
sa(dp8456
g4
VNets
p8457
sg6
VPacers
p8458
sg8
F-6.0
sg9
F199.0
sa(dp8459
g4
VWizards
p8460
sg6
VWarriors
p8461
sg8
F-9.5
sg9
F227.5
sa(dp8462
g4
VThunder
p8463
sg6
VMagic
p8464
sg8
F11.5
sg9
F211.0
sa(dp8465
g4
VMavericks
p8466
sg6
VHeat
p8467
sg8
F2.0
sg9
F194.5
sa(dp8468
g4
VSpurs
p8469
sg6
VPelicans
p8470
sg8
F12.5
sg9
F207.5
sa(dp8471
g4
VJazz
p8472
sg6
VNuggets
p8473
sg8
F8.0
sg9
F195.0
sa(dp8474
g4
Vsac
p8475
sg6
VBulls
p8476
sg8
F4.0
sg9
F212.5
sa(dp8477
g4
VClippers
p8478
sg6
VTimberwolves
p8479
sg8
F10.5
sg9
F210.0
sasS'2016-02-07'
p8480
(lp8481
(dp8482
g4
VRockets
p8483
sg6
VTrail Blaze
p8484
sg8
F4.5
sg9
F217.5
sa(dp8485
g4
VPacers
p8486
sg6
VPistons
p8487
sg8
F4.0
sg9
F203.0
sa(dp8488
g4
VHornets
p8489
sg6
VWizards
p8490
sg8
F5.5
sg9
F211.0
sa(dp8491
g4
V76ers
p8492
sg6
VNets
p8493
sg8
F-1.5
sg9
F205.0
sa(dp8494
g4
VCavaliers
p8495
sg6
VPelicans
p8496
sg8
F9.5
sg9
F205.5
sa(dp8497
g4
VTimberwolves
p8498
sg6
VBulls
p8499
sg8
F3.5
sg9
F205.0
sa(dp8500
g4
VGrizzlies
p8501
sg6
VMavericks
p8502
sg8
F5.0
sg9
F193.0
sa(dp8503
g4
VSpurs
p8504
sg6
VLakers
p8505
sg8
F17.0
sg9
F205.0
sa(dp8506
g4
VSuns
p8507
sg6
VJazz
p8508
sg8
F-7.0
sg9
F187.0
sa(dp8509
g4
VWarriors
p8510
sg6
VThunder
p8511
sg8
F7.5
sg9
F232.5
sasS'2016-02-06'
p8512
(lp8513
(dp8514
g4
VMagic
p8515
sg6
VClippers
p8516
sg8
F-3.0
sg9
F204.0
sa(dp8517
g4
VWizards
p8518
sg6
V76ers
p8519
sg8
F9.0
sg9
F213.0
sa(dp8520
g4
VHawks
p8521
sg6
VPacers
p8522
sg8
F5.5
sg9
F209.0
sa(dp8523
g4
VHornets
p8524
sg6
VHeat
p8525
sg8
F4.5
sg9
F195.0
sa(dp8526
g4
VNets
p8527
sg6
Vsac
p8528
sg8
F-5.0
sg9
F213.5
sa(dp8529
g4
VKnicks
p8530
sg6
VGrizzlies
p8531
sg8
F-5.5
sg9
F193.5
sa(dp8532
g4
VCavaliers
p8533
sg6
VCeltics
p8534
sg8
F6.5
sg9
F210.5
sa(dp8535
g4
VJazz
p8536
sg6
VMilwaukee
p8537
sg8
F6.5
sg9
F187.5
sa(dp8538
g4
VNuggets
p8539
sg6
VBulls
p8540
sg8
F3.0
sg9
F206.5
sa(dp8541
g4
VMavericks
p8542
sg6
VSpurs
p8543
sg8
F-6.0
sg9
F197.5
sas.